Archive member included because of file (symbol)

libc_pic.a(uuid_to_string.pico)
                              (--whole-archive)
libc_pic.a(uuid_stream.pico)  (--whole-archive)
libc_pic.a(uuid_hash.pico)    (--whole-archive)
libc_pic.a(uuid_from_string.pico)
                              (--whole-archive)
libc_pic.a(uuid_equal.pico)   (--whole-archive)
libc_pic.a(uuid_create_nil.pico)
                              (--whole-archive)
libc_pic.a(uuid_create.pico)  (--whole-archive)
libc_pic.a(uuid_compare.pico)
                              (--whole-archive)
libc_pic.a(_cpufeature.pico)  (--whole-archive)
libc_pic.a(getprocessor.pico)
                              (--whole-archive)
libc_pic.a(get_bp.pico)       (--whole-archive)
libc_pic.a(_cpuid.pico)       (--whole-archive)
libc_pic.a(sprofile.pico)     (--whole-archive)
libc_pic.a(sizeup.pico)       (--whole-archive)
libc_pic.a(futimens.pico)     (--whole-archive)
libc_pic.a(truncate.pico)     (--whole-archive)
libc_pic.a(sync.pico)         (--whole-archive)
libc_pic.a(symlink.pico)      (--whole-archive)
libc_pic.a(svrctl.pico)       (--whole-archive)
libc_pic.a(statvfs.pico)      (--whole-archive)
libc_pic.a(sigpending.pico)   (--whole-archive)
libc_pic.a(shutdown.pico)     (--whole-archive)
libc_pic.a(stime.pico)        (--whole-archive)
libc_pic.a(shmget.pico)       (--whole-archive)
libc_pic.a(shmat.pico)        (--whole-archive)
libc_pic.a(sendmsg.pico)      (--whole-archive)
libc_pic.a(sem.pico)          (--whole-archive)
libc_pic.a(rename.pico)       (--whole-archive)
libc_pic.a(recvmsg.pico)      (--whole-archive)
libc_pic.a(reboot.pico)       (--whole-archive)
libc_pic.a(ptrace.pico)       (--whole-archive)
libc_pic.a(mount.pico)        (--whole-archive)
libc_pic.a(mkfifo.pico)       (--whole-archive)
libc_pic.a(link.pico)         (--whole-archive)
libc_pic.a(setsockopt.pico)   (--whole-archive)
libc_pic.a(getsockname.pico)  (--whole-archive)
libc_pic.a(getppid.pico)      (--whole-archive)
libc_pic.a(getpgrp.pico)      (--whole-archive)
libc_pic.a(getgroups.pico)    (--whole-archive)
libc_pic.a(gcov_flush_sys.pico)
                              (--whole-archive)
libc_pic.a(fstatfs.pico)      (--whole-archive)
libc_pic.a(flock.pico)        (--whole-archive)
libc_pic.a(dup.pico)          (--whole-archive)
libc_pic.a(chroot.pico)       (--whole-archive)
libc_pic.a(fchown.pico)       (--whole-archive)
libc_pic.a(fchmod.pico)       (--whole-archive)
libc_pic.a(getsid.pico)       (--whole-archive)
libc_pic.a(m_closefrom.pico)  (--whole-archive)
libc_pic.a(strptime.pico)     (--whole-archive)
libc_pic.a(getdate.pico)      (--whole-archive)
libc_pic.a(difftime.pico)     (--whole-archive)
libc_pic.a(thread-stub-init.pico)
                              (--whole-archive)
libc_pic.a(thread-stub.pico)  (--whole-archive)
libc_pic.a(__isthreaded.pico)
                              (--whole-archive)
libc_pic.a(tcsetpgrp.pico)    (--whole-archive)
libc_pic.a(tcsendbreak.pico)  (--whole-archive)
libc_pic.a(tcgetpgrp.pico)    (--whole-archive)
libc_pic.a(tcflush.pico)      (--whole-archive)
libc_pic.a(tcflow.pico)       (--whole-archive)
libc_pic.a(tcdrain.pico)      (--whole-archive)
libc_pic.a(cfsetspeed.pico)   (--whole-archive)
libc_pic.a(cfsetospeed.pico)  (--whole-archive)
libc_pic.a(cfsetispeed.pico)  (--whole-archive)
libc_pic.a(cfmakeraw.pico)    (--whole-archive)
libc_pic.a(cfgetospeed.pico)  (--whole-archive)
libc_pic.a(cfgetispeed.pico)  (--whole-archive)
libc_pic.a(swab.pico)         (--whole-archive)
libc_pic.a(ffs.pico)          (--whole-archive)
libc_pic.a(bzero.pico)        (--whole-archive)
libc_pic.a(bcopy.pico)        (--whole-archive)
libc_pic.a(bcmp.pico)         (--whole-archive)
libc_pic.a(wmemmove.pico)     (--whole-archive)
libc_pic.a(wmemcmp.pico)      (--whole-archive)
libc_pic.a(wcswcs.pico)       (--whole-archive)
libc_pic.a(wcstok.pico)       (--whole-archive)
libc_pic.a(wcsstr.pico)       (--whole-archive)
libc_pic.a(wcsspn.pico)       (--whole-archive)
libc_pic.a(wcsrchr.pico)      (--whole-archive)
libc_pic.a(wcspbrk.pico)      (--whole-archive)
libc_pic.a(wcsncpy.pico)      (--whole-archive)
libc_pic.a(wcsncmp.pico)      (--whole-archive)
libc_pic.a(wcsncasecmp.pico)  (--whole-archive)
libc_pic.a(wcsdup.pico)       (--whole-archive)
libc_pic.a(wcscasecmp.pico)   (--whole-archive)
libc_pic.a(wcsncat.pico)      (--whole-archive)
libc_pic.a(wcslcpy.pico)      (--whole-archive)
libc_pic.a(wcslcat.pico)      (--whole-archive)
libc_pic.a(wcscspn.pico)      (--whole-archive)
libc_pic.a(wcscat.pico)       (--whole-archive)
libc_pic.a(popcount64.pico)   (--whole-archive)
libc_pic.a(popcount32.pico)   (--whole-archive)
libc_pic.a(memmem.pico)       (--whole-archive)
libc_pic.a(memccpy.pico)      (--whole-archive)
libc_pic.a(consttime_memequal.pico)
                              (--whole-archive)
libc_pic.a(strnstr.pico)      (--whole-archive)
libc_pic.a(strspn.pico)       (--whole-archive)
libc_pic.a(memrchr.pico)      (--whole-archive)
libc_pic.a(strxfrm.pico)      (--whole-archive)
libc_pic.a(strtok.pico)       (--whole-archive)
libc_pic.a(strsignal.pico)    (--whole-archive)
libc_pic.a(strmode.pico)      (--whole-archive)
libc_pic.a(strnlen.pico)      (--whole-archive)
libc_pic.a(strcasestr.pico)   (--whole-archive)
libc_pic.a(stpcpy.pico)       (--whole-archive)
libc_pic.a(bm.pico)           (--whole-archive)
libc_pic.a(llabs.pico)        (--whole-archive)
libc_pic.a(ldiv.pico)         (--whole-archive)
libc_pic.a(labs.pico)         (--whole-archive)
libc_pic.a(div.pico)          (--whole-archive)
libc_pic.a(abs.pico)          (--whole-archive)
libc_pic.a(mtab.pico)         (--whole-archive)
libc_pic.a(configfile.pico)   (--whole-archive)
libc_pic.a(strfmon.pico)      (--whole-archive)
libc_pic.a(unsetenv.pico)     (--whole-archive)
libc_pic.a(twalk.pico)        (--whole-archive)
libc_pic.a(tsearch.pico)      (--whole-archive)
libc_pic.a(tfind.pico)        (--whole-archive)
libc_pic.a(tdelete.pico)      (--whole-archive)
libc_pic.a(system.pico)       (--whole-archive)
libc_pic.a(strtouq.pico)      (--whole-archive)
libc_pic.a(strtoull.pico)     (--whole-archive)
libc_pic.a(strtoq.pico)       (--whole-archive)
libc_pic.a(strtonum.pico)     (--whole-archive)
libc_pic.a(strtou.pico)       (--whole-archive)
libc_pic.a(strsuftoll.pico)   (--whole-archive)
libc_pic.a(srand48.pico)      (--whole-archive)
libc_pic.a(seed48.pico)       (--whole-archive)
libc_pic.a(reallocarray.pico)
                              (--whole-archive)
libc_pic.a(remque.pico)       (--whole-archive)
libc_pic.a(rand_r.pico)       (--whole-archive)
libc_pic.a(rand.pico)         (--whole-archive)
libc_pic.a(radixsort.pico)    (--whole-archive)
libc_pic.a(quick_exit.pico)   (--whole-archive)
libc_pic.a(pty.pico)          (--whole-archive)
libc_pic.a(posix_openpt.pico)
                              (--whole-archive)
libc_pic.a(qdiv.pico)         (--whole-archive)
libc_pic.a(qabs.pico)         (--whole-archive)
libc_pic.a(putenv.pico)       (--whole-archive)
libc_pic.a(nrand48.pico)      (--whole-archive)
libc_pic.a(mrand48.pico)      (--whole-archive)
libc_pic.a(lsearch.pico)      (--whole-archive)
libc_pic.a(lrand48.pico)      (--whole-archive)
libc_pic.a(lcong48.pico)      (--whole-archive)
libc_pic.a(lldiv.pico)        (--whole-archive)
libc_pic.a(l64a.pico)         (--whole-archive)
libc_pic.a(jrand48.pico)      (--whole-archive)
libc_pic.a(insque.pico)       (--whole-archive)
libc_pic.a(imaxdiv.pico)      (--whole-archive)
libc_pic.a(heapsort.pico)     (--whole-archive)
libc_pic.a(hcreate.pico)      (--whole-archive)
libc_pic.a(getsubopt.pico)    (--whole-archive)
libc_pic.a(getopt_long.pico)  (--whole-archive)
libc_pic.a(getopt.pico)       (--whole-archive)
libc_pic.a(drand48.pico)      (--whole-archive)
libc_pic.a(atoll.pico)        (--whole-archive)
libc_pic.a(atol.pico)         (--whole-archive)
libc_pic.a(atof.pico)         (--whole-archive)
libc_pic.a(a64l.pico)         (--whole-archive)
libc_pic.a(tmpnam.pico)       (--whole-archive)
libc_pic.a(tempnam.pico)      (--whole-archive)
libc_pic.a(open_wmemstream.pico)
                              (--whole-archive)
libc_pic.a(open_memstream.pico)
                              (--whole-archive)
libc_pic.a(fmemopen.pico)     (--whole-archive)
libc_pic.a(wscanf.pico)       (--whole-archive)
libc_pic.a(wprintf.pico)      (--whole-archive)
libc_pic.a(vwscanf.pico)      (--whole-archive)
libc_pic.a(vwprintf.pico)     (--whole-archive)
libc_pic.a(vscanf.pico)       (--whole-archive)
libc_pic.a(vprintf.pico)      (--whole-archive)
libc_pic.a(tmpfile.pico)      (--whole-archive)
libc_pic.a(swscanf.pico)      (--whole-archive)
libc_pic.a(swprintf.pico)     (--whole-archive)
libc_pic.a(setbuffer.pico)    (--whole-archive)
libc_pic.a(setbuf.pico)       (--whole-archive)
libc_pic.a(scanf.pico)        (--whole-archive)
libc_pic.a(remove.pico)       (--whole-archive)
libc_pic.a(putwchar.pico)     (--whole-archive)
libc_pic.a(putwc.pico)        (--whole-archive)
libc_pic.a(putw.pico)         (--whole-archive)
libc_pic.a(putc.pico)         (--whole-archive)
libc_pic.a(mkostemps.pico)    (--whole-archive)
libc_pic.a(mkostemp.pico)     (--whole-archive)
libc_pic.a(mkstemps.pico)     (--whole-archive)
libc_pic.a(mkstemp.pico)      (--whole-archive)
libc_pic.a(mkdtemp.pico)      (--whole-archive)
libc_pic.a(getwchar.pico)     (--whole-archive)
libc_pic.a(getwc.pico)        (--whole-archive)
libc_pic.a(getw.pico)         (--whole-archive)
libc_pic.a(getline.pico)      (--whole-archive)
libc_pic.a(getchar.pico)      (--whole-archive)
libc_pic.a(getc.pico)         (--whole-archive)
libc_pic.a(fwscanf.pico)      (--whole-archive)
libc_pic.a(fwprintf.pico)     (--whole-archive)
libc_pic.a(fwide.pico)        (--whole-archive)
libc_pic.a(funopen.pico)      (--whole-archive)
libc_pic.a(fsetpos.pico)      (--whole-archive)
libc_pic.a(fscanf.pico)       (--whole-archive)
libc_pic.a(freopen.pico)      (--whole-archive)
libc_pic.a(fputws.pico)       (--whole-archive)
libc_pic.a(fpurge.pico)       (--whole-archive)
libc_pic.a(flockfile.pico)    (--whole-archive)
libc_pic.a(fileno.pico)       (--whole-archive)
libc_pic.a(fgetws.pico)       (--whole-archive)
libc_pic.a(fgetwln.pico)      (--whole-archive)
libc_pic.a(fgetpos.pico)      (--whole-archive)
libc_pic.a(fgetc.pico)        (--whole-archive)
libc_pic.a(ferror.pico)       (--whole-archive)
libc_pic.a(feof.pico)         (--whole-archive)
libc_pic.a(dprintf.pico)      (--whole-archive)
libc_pic.a(clrerr.pico)       (--whole-archive)
libc_pic.a(vsprintf_chk.pico)
                              (--whole-archive)
libc_pic.a(vsnprintf_chk.pico)
                              (--whole-archive)
libc_pic.a(strncpy_chk.pico)  (--whole-archive)
libc_pic.a(strncat_chk.pico)  (--whole-archive)
libc_pic.a(strcpy_chk.pico)   (--whole-archive)
libc_pic.a(strcat_chk.pico)   (--whole-archive)
libc_pic.a(stpncpy_chk.pico)  (--whole-archive)
libc_pic.a(stpcpy_chk.pico)   (--whole-archive)
libc_pic.a(sprintf_chk.pico)  (--whole-archive)
libc_pic.a(snprintf_chk.pico)
                              (--whole-archive)
libc_pic.a(memset_chk.pico)   (--whole-archive)
libc_pic.a(memmove_chk.pico)  (--whole-archive)
libc_pic.a(memcpy_chk.pico)   (--whole-archive)
libc_pic.a(fgets_chk.pico)    (--whole-archive)
libc_pic.a(gets_chk.pico)     (--whole-archive)
libc_pic.a(res_state.pico)    (--whole-archive)
libc_pic.a(herror.pico)       (--whole-archive)
libc_pic.a(regexec.pico)      (--whole-archive)
libc_pic.a(regerror.pico)     (--whole-archive)
libc_pic.a(regcomp.pico)      (--whole-archive)
libc_pic.a(if_nameindex.pico)
                              (--whole-archive)
libc_pic.a(inet6_scopeid.pico)
                              (--whole-archive)
libc_pic.a(vars6.pico)        (--whole-archive)
libc_pic.a(rthdr.pico)        (--whole-archive)
libc_pic.a(ip6opt.pico)       (--whole-archive)
libc_pic.a(sockatmark.pico)   (--whole-archive)
libc_pic.a(recv.pico)         (--whole-archive)
libc_pic.a(rcmd.pico)         (--whole-archive)
libc_pic.a(linkaddr.pico)     (--whole-archive)
libc_pic.a(iso_addr.pico)     (--whole-archive)
libc_pic.a(getservent.pico)   (--whole-archive)
libc_pic.a(getservbyport.pico)
                              (--whole-archive)
libc_pic.a(getservbyname.pico)
                              (--whole-archive)
libc_pic.a(getprotoent.pico)  (--whole-archive)
libc_pic.a(getprotobynumber.pico)
                              (--whole-archive)
libc_pic.a(getprotobyname.pico)
                              (--whole-archive)
libc_pic.a(getpeereid.pico)   (--whole-archive)
libc_pic.a(getnetnamadr.pico)
                              (--whole-archive)
libc_pic.a(ethers.pico)       (--whole-archive)
libc_pic.a(initfini.pico)     (--whole-archive)
libc_pic.a(md5hl.pico)        (--whole-archive)
libc_pic.a(md4hl.pico)        (--whole-archive)
libc_pic.a(md4c.pico)         (--whole-archive)
libc_pic.a(wcsftime.pico)     (--whole-archive)
libc_pic.a(wcsxfrm.pico)      (--whole-archive)
libc_pic.a(wcscoll.pico)      (--whole-archive)
libc_pic.a(wcstoull.pico)     (--whole-archive)
libc_pic.a(wcstoul.pico)      (--whole-archive)
libc_pic.a(wcstoll.pico)      (--whole-archive)
libc_pic.a(wcstol.pico)       (--whole-archive)
libc_pic.a(nl_langinfo.pico)  (--whole-archive)
libc_pic.a(newlocale.pico)    (--whole-archive)
libc_pic.a(freelocale.pico)   (--whole-archive)
libc_pic.a(duplocale.pico)    (--whole-archive)
libc_pic.a(assertions.pico)   (--whole-archive)
libc_pic.a(inet_ntoa.pico)    (--whole-archive)
libc_pic.a(inet_netof.pico)   (--whole-archive)
libc_pic.a(inet_neta.pico)    (--whole-archive)
libc_pic.a(inet_net_pton.pico)
                              (--whole-archive)
libc_pic.a(inet_net_ntop.pico)
                              (--whole-archive)
libc_pic.a(inet_makeaddr.pico)
                              (--whole-archive)
libc_pic.a(inet_lnaof.pico)   (--whole-archive)
libc_pic.a(inet_cidr_pton.pico)
                              (--whole-archive)
libc_pic.a(inet_cidr_ntop.pico)
                              (--whole-archive)
libc_pic.a(iconv.pico)        (--whole-archive)
libc_pic.a(murmurhash.pico)   (--whole-archive)
libc_pic.a(sha512hl.pico)     (--whole-archive)
libc_pic.a(sha384hl.pico)     (--whole-archive)
libc_pic.a(sha256hl.pico)     (--whole-archive)
libc_pic.a(sha224hl.pico)     (--whole-archive)
libc_pic.a(sha1hl.pico)       (--whole-archive)
libc_pic.a(sha1.pico)         (--whole-archive)
libc_pic.a(rmd160hl.pico)     (--whole-archive)
libc_pic.a(rmd160.pico)       (--whole-archive)
libc_pic.a(md2hl.pico)        (--whole-archive)
libc_pic.a(md2.pico)          (--whole-archive)
libc_pic.a(fixunsdfsi.pico)   (--whole-archive)
libc_pic.a(fixdfsi.pico)      (--whole-archive)
libc_pic.a(signbitl.pico)     (--whole-archive)
libc_pic.a(isnanl.pico)       (--whole-archive)
libc_pic.a(isinfl.pico)       (--whole-archive)
libc_pic.a(isfinitel.pico)    (--whole-archive)
libc_pic.a(infinityl.pico)    (--whole-archive)
libc_pic.a(nanf.pico)         (--whole-archive)
libc_pic.a(signbitd_ieee754.pico)
                              (--whole-archive)
libc_pic.a(signbitf_ieee754.pico)
                              (--whole-archive)
libc_pic.a(isfinited_ieee754.pico)
                              (--whole-archive)
libc_pic.a(isfinitef_ieee754.pico)
                              (--whole-archive)
libc_pic.a(isnand_ieee754.pico)
                              (--whole-archive)
libc_pic.a(isnanf_ieee754.pico)
                              (--whole-archive)
libc_pic.a(isinfd_ieee754.pico)
                              (--whole-archive)
libc_pic.a(isinff_ieee754.pico)
                              (--whole-archive)
libc_pic.a(fpclassifyf_ieee754.pico)
                              (--whole-archive)
libc_pic.a(infinity_ieee754.pico)
                              (--whole-archive)
libc_pic.a(infinityf_ieee754.pico)
                              (--whole-archive)
libc_pic.a(sigsetjmp.pico)    (--whole-archive)
libc_pic.a(_setjmp.pico)      (--whole-archive)
libc_pic.a(setjmp.pico)       (--whole-archive)
libc_pic.a(fpsetprec.pico)    (--whole-archive)
libc_pic.a(fpgetprec.pico)    (--whole-archive)
libc_pic.a(fpsetsticky.pico)  (--whole-archive)
libc_pic.a(fpsetround.pico)   (--whole-archive)
libc_pic.a(fpsetmask.pico)    (--whole-archive)
libc_pic.a(fpgetsticky.pico)  (--whole-archive)
libc_pic.a(fpgetround.pico)   (--whole-archive)
libc_pic.a(fpgetmask.pico)    (--whole-archive)
libc_pic.a(fabs.pico)         (--whole-archive)
libc_pic.a(byte_swap_4.pico)  (--whole-archive)
libc_pic.a(byte_swap_2.pico)  (--whole-archive)
libc_pic.a(alloca.pico)       (--whole-archive)
libc_pic.a(wordexp.pico)      (--whole-archive)
libc_pic.a(warnc.pico)        (--whole-archive)
libc_pic.a(wait.pico)         (--whole-archive)
libc_pic.a(valloc.pico)       (--whole-archive)
libc_pic.a(utimens.pico)      (--whole-archive)
libc_pic.a(utime.pico)        (--whole-archive)
libc_pic.a(uname.pico)        (--whole-archive)
libc_pic.a(ulimit.pico)       (--whole-archive)
libc_pic.a(ualarm.pico)       (--whole-archive)
libc_pic.a(ttyslot.pico)      (--whole-archive)
libc_pic.a(ttyname.pico)      (--whole-archive)
libc_pic.a(toascii.pico)      (--whole-archive)
libc_pic.a(time.pico)         (--whole-archive)
libc_pic.a(sysctlnametomib.pico)
                              (--whole-archive)
libc_pic.a(sigsetops.pico)    (--whole-archive)
libc_pic.a(sigset.pico)       (--whole-archive)
libc_pic.a(sigrelse.pico)     (--whole-archive)
libc_pic.a(signame.pico)      (--whole-archive)
libc_pic.a(siginterrupt.pico)
                              (--whole-archive)
libc_pic.a(sigignore.pico)    (--whole-archive)
libc_pic.a(sighold.pico)      (--whole-archive)
libc_pic.a(shquotev.pico)     (--whole-archive)
libc_pic.a(shquote.pico)      (--whole-archive)
libc_pic.a(setprogname.pico)  (--whole-archive)
libc_pic.a(setproctitle.pico)
                              (--whole-archive)
libc_pic.a(setmode.pico)      (--whole-archive)
libc_pic.a(setjmperr.pico)    (--whole-archive)
libc_pic.a(sethostname.pico)  (--whole-archive)
libc_pic.a(setdomainname.pico)
                              (--whole-archive)
libc_pic.a(seekdir.pico)      (--whole-archive)
libc_pic.a(scandir.pico)      (--whole-archive)
libc_pic.a(randomid.pico)     (--whole-archive)
libc_pic.a(pw_scan.pico)      (--whole-archive)
libc_pic.a(ptree.pico)        (--whole-archive)
libc_pic.a(psignal.pico)      (--whole-archive)
libc_pic.a(posix_spawnp.pico)
                              (--whole-archive)
libc_pic.a(posix_spawn_fileactions.pico)
                              (--whole-archive)
libc_pic.a(posix_spawn_sched.pico)
                              (--whole-archive)
libc_pic.a(popen.pico)        (--whole-archive)
libc_pic.a(pause.pico)        (--whole-archive)
libc_pic.a(nlist_elf64.pico)  (--whole-archive)
libc_pic.a(nlist_ecoff.pico)  (--whole-archive)
libc_pic.a(nlist_coff.pico)   (--whole-archive)
libc_pic.a(nlist.pico)        (--whole-archive)
libc_pic.a(nice.pico)         (--whole-archive)
libc_pic.a(nftw.pico)         (--whole-archive)
libc_pic.a(isascii.pico)      (--whole-archive)
libc_pic.a(initgroups.pico)   (--whole-archive)
libc_pic.a(humanize_number.pico)
                              (--whole-archive)
libc_pic.a(glob.pico)         (--whole-archive)
libc_pic.a(getusershell.pico)
                              (--whole-archive)
libc_pic.a(getttyent.pico)    (--whole-archive)
libc_pic.a(getpass.pico)      (--whole-archive)
libc_pic.a(getmntinfo.pico)   (--whole-archive)
libc_pic.a(getlogin.pico)     (--whole-archive)
libc_pic.a(getloadavg.pico)   (--whole-archive)
libc_pic.a(getgrouplist.pico)
                              (--whole-archive)
libc_pic.a(getdomainname.pico)
                              (--whole-archive)
libc_pic.a(getcap.pico)       (--whole-archive)
libc_pic.a(getbsize.pico)     (--whole-archive)
libc_pic.a(ftw.pico)          (--whole-archive)
libc_pic.a(ftok.pico)         (--whole-archive)
libc_pic.a(fstab.pico)        (--whole-archive)
libc_pic.a(fnmatch.pico)      (--whole-archive)
libc_pic.a(fmtmsg.pico)       (--whole-archive)
libc_pic.a(fmtcheck.pico)     (--whole-archive)
libc_pic.a(execv.pico)        (--whole-archive)
libc_pic.a(execlp.pico)       (--whole-archive)
libc_pic.a(execle.pico)       (--whole-archive)
libc_pic.a(errno.pico)        (--whole-archive)
libc_pic.a(errc.pico)         (--whole-archive)
libc_pic.a(errx.pico)         (--whole-archive)
libc_pic.a(err.pico)          (--whole-archive)
libc_pic.a(dirname.pico)      (--whole-archive)
libc_pic.a(dehumanize_number.pico)
                              (--whole-archive)
libc_pic.a(daemon.pico)       (--whole-archive)
libc_pic.a(ctermid.pico)      (--whole-archive)
libc_pic.a(clock.pico)        (--whole-archive)
libc_pic.a(basename.pico)     (--whole-archive)
libc_pic.a(asysctl.pico)      (--whole-archive)
libc_pic.a(alarm.pico)        (--whole-archive)
libc_pic.a(fslib.pico)        (--whole-archive)
libc_pic.a(read_tsc_64.pico)  (--whole-archive)
libc_pic.a(itoa.pico)         (--whole-archive)
libc_pic.a(gcov.pico)         (--whole-archive)
libc_pic.a(fsversion.pico)    (--whole-archive)
libc_pic.a(dlfcn_elf.pico)    (--whole-archive)
libc_pic.a(InstrProfilingFile.pico)
                              (--whole-archive)
libc_pic.a(InstrProfilingBuffer.pico)
                              (--whole-archive)
libc_pic.a(InstrProfiling.pico)
                              (--whole-archive)
libc_pic.a(GCDAProfiling.pico)
                              (--whole-archive)
libc_pic.a(udivmoddi4.pico)   (--whole-archive)
libc_pic.a(ucmpdi2.pico)      (--whole-archive)
libc_pic.a(negdi2.pico)       (--whole-archive)
libc_pic.a(muldi3.pico)       (--whole-archive)
libc_pic.a(lshrdi3.pico)      (--whole-archive)
libc_pic.a(divmoddi4.pico)    (--whole-archive)
libc_pic.a(ashrdi3.pico)      (--whole-archive)
libc_pic.a(ashldi3.pico)      (--whole-archive)
libc_pic.a(cmpdi2.pico)       (--whole-archive)
libc_pic.a(ffsdi2.pico)       (--whole-archive)
libc_pic.a(ctzdi2.pico)       (--whole-archive)
libc_pic.a(clzdi2.pico)       (--whole-archive)
libc_pic.a(subvdi3.pico)      (--whole-archive)
libc_pic.a(popcountdi2.pico)  (--whole-archive)
libc_pic.a(paritydi2.pico)    (--whole-archive)
libc_pic.a(negvdi2.pico)      (--whole-archive)
libc_pic.a(mulvdi3.pico)      (--whole-archive)
libc_pic.a(mulodi4.pico)      (--whole-archive)
libc_pic.a(addvdi3.pico)      (--whole-archive)
libc_pic.a(absvdi2.pico)      (--whole-archive)
libc_pic.a(umodsi3.pico)      (--whole-archive)
libc_pic.a(udivmodsi4.pico)   (--whole-archive)
libc_pic.a(modsi3.pico)       (--whole-archive)
libc_pic.a(divmodsi4.pico)    (--whole-archive)
libc_pic.a(ctzsi2.pico)       (--whole-archive)
libc_pic.a(clzsi2.pico)       (--whole-archive)
libc_pic.a(floatuntixf.pico)  (--whole-archive)
libc_pic.a(floatuntisf.pico)  (--whole-archive)
libc_pic.a(floatuntidf.pico)  (--whole-archive)
libc_pic.a(floattixf.pico)    (--whole-archive)
libc_pic.a(floattisf.pico)    (--whole-archive)
libc_pic.a(floattidf.pico)    (--whole-archive)
libc_pic.a(fixxfti.pico)      (--whole-archive)
libc_pic.a(fixunsxfti.pico)   (--whole-archive)
libc_pic.a(fixunssfti.pico)   (--whole-archive)
libc_pic.a(fixunsdfti.pico)   (--whole-archive)
libc_pic.a(umodti3.pico)      (--whole-archive)
libc_pic.a(udivti3.pico)      (--whole-archive)
libc_pic.a(udivmodti4.pico)   (--whole-archive)
libc_pic.a(ucmpti2.pico)      (--whole-archive)
libc_pic.a(subvti3.pico)      (--whole-archive)
libc_pic.a(subvsi3.pico)      (--whole-archive)
libc_pic.a(powixf2.pico)      (--whole-archive)
libc_pic.a(powitf2.pico)      (--whole-archive)
libc_pic.a(powisf2.pico)      (--whole-archive)
libc_pic.a(powidf2.pico)      (--whole-archive)
libc_pic.a(popcountti2.pico)  (--whole-archive)
libc_pic.a(popcountsi2.pico)  (--whole-archive)
libc_pic.a(parityti2.pico)    (--whole-archive)
libc_pic.a(paritysi2.pico)    (--whole-archive)
libc_pic.a(negvti2.pico)      (--whole-archive)
libc_pic.a(negvsi2.pico)      (--whole-archive)
libc_pic.a(negti2.pico)       (--whole-archive)
libc_pic.a(negsf2.pico)       (--whole-archive)
libc_pic.a(negdf2.pico)       (--whole-archive)
libc_pic.a(mulvti3.pico)      (--whole-archive)
libc_pic.a(mulvsi3.pico)      (--whole-archive)
libc_pic.a(multi3.pico)       (--whole-archive)
libc_pic.a(muloti4.pico)      (--whole-archive)
libc_pic.a(mulosi4.pico)      (--whole-archive)
libc_pic.a(muldc3.pico)       (--whole-archive)
libc_pic.a(modti3.pico)       (--whole-archive)
libc_pic.a(lshrti3.pico)      (--whole-archive)
libc_pic.a(int_util.pico)     (--whole-archive)
libc_pic.a(floatundixf.pico)  (--whole-archive)
libc_pic.a(floatundisf.pico)  (--whole-archive)
libc_pic.a(floatundidf.pico)  (--whole-archive)
libc_pic.a(floatdixf.pico)    (--whole-archive)
libc_pic.a(floatdisf.pico)    (--whole-archive)
libc_pic.a(floatdidf.pico)    (--whole-archive)
libc_pic.a(fixxfdi.pico)      (--whole-archive)
libc_pic.a(fixunsxfsi.pico)   (--whole-archive)
libc_pic.a(fixunsxfdi.pico)   (--whole-archive)
libc_pic.a(fixunssfsi.pico)   (--whole-archive)
libc_pic.a(fixunssfdi.pico)   (--whole-archive)
libc_pic.a(fixunsdfdi.pico)   (--whole-archive)
libc_pic.a(fixdfdi.pico)      (--whole-archive)
libc_pic.a(fixsfdi.pico)      (--whole-archive)
libc_pic.a(ffsti2.pico)       (--whole-archive)
libc_pic.a(divti3.pico)       (--whole-archive)
libc_pic.a(ctzti2.pico)       (--whole-archive)
libc_pic.a(cmpti2.pico)       (--whole-archive)
libc_pic.a(clzti2.pico)       (--whole-archive)
libc_pic.a(ashrti3.pico)      (--whole-archive)
libc_pic.a(ashlti3.pico)      (--whole-archive)
libc_pic.a(addvti3.pico)      (--whole-archive)
libc_pic.a(addvsi3.pico)      (--whole-archive)
libc_pic.a(absvti2.pico)      (--whole-archive)
libc_pic.a(absvsi2.pico)      (--whole-archive)
libc_pic.a(gcc_personality_v0.pico)
                              (--whole-archive)
libc_pic.a(getwd.pico)        (--whole-archive)
libc_pic.a(sigcompat.pico)    (--whole-archive)
libc_pic.a(setpgrp.pico)      (--whole-archive)
libc_pic.a(sethostid.pico)    (--whole-archive)
libc_pic.a(killpg.pico)       (--whole-archive)
libc_pic.a(gethostid.pico)    (--whole-archive)
libc_pic.a(getdtablesize.pico)
                              (--whole-archive)
libc_pic.a(creat.pico)        (--whole-archive)
libc_pic.a(citrus_stdenc.pico)
                              (--whole-archive)
libc_pic.a(citrus_iconv.pico)
                              (--whole-archive)
libc_pic.a(citrus_esdb.pico)  (--whole-archive)
libc_pic.a(citrus_ctype_fallback.pico)
                              (--whole-archive)
libc_pic.a(citrus_csmapper.pico)
                              (--whole-archive)
libc_pic.a(citrus_bcs_strtoul.pico)
                              (--whole-archive)
libc_pic.a(ndbm.pico)         (--whole-archive)
libc_pic.a(ndbmdatum.pico)    (--whole-archive)
libc_pic.a(bt_debug.pico)     (--whole-archive)
libc_pic.a(cdbw.pico)         (--whole-archive)
libc_pic.a(atomic_init_cas.pico)
                              (--whole-archive)
libc_pic.a(atomic_cas_64_cas.pico)
                              (--whole-archive)
libc_pic.a(atomic_sub_64_cas.pico)
                              (--whole-archive)
libc_pic.a(atomic_xor_64_cas.pico)
                              (--whole-archive)
libc_pic.a(atomic_nand_64_cas.pico)
                              (--whole-archive)
libc_pic.a(atomic.pico)       (--whole-archive)
libc_pic.a(atomic_swap_64_cas.pico)
                              (--whole-archive)
libc_pic.a(atomic_or_64_nv_cas.pico)
                              (--whole-archive)
libc_pic.a(atomic_or_64_cas.pico)
                              (--whole-archive)
libc_pic.a(atomic_inc_64_nv_cas.pico)
                              (--whole-archive)
libc_pic.a(atomic_inc_64_cas.pico)
                              (--whole-archive)
libc_pic.a(atomic_dec_64_nv_cas.pico)
                              (--whole-archive)
libc_pic.a(atomic_dec_64_cas.pico)
                              (--whole-archive)
libc_pic.a(atomic_and_64_nv_cas.pico)
                              (--whole-archive)
libc_pic.a(atomic_and_64_cas.pico)
                              (--whole-archive)
libc_pic.a(atomic_add_64_nv_cas.pico)
                              (--whole-archive)
libc_pic.a(atomic_add_64_cas.pico)
                              (--whole-archive)
libc_pic.a(compat_difftime.pico)
                              (--whole-archive)
libc_pic.a(compat_localtime.pico)
                              (--whole-archive)
libc_pic.a(compat___shmctl13.pico)
                              (--whole-archive)
libc_pic.a(compat_mknod.pico)
                              (--whole-archive)
libc_pic.a(compat_adjtime.pico)
                              (--whole-archive)
libc_pic.a(compat_nanosleep.pico)
                              (--whole-archive)
libc_pic.a(compat_itimer.pico)
                              (--whole-archive)
libc_pic.a(compat_clock.pico)
                              (--whole-archive)
libc_pic.a(compat_settimeofday.pico)
                              (--whole-archive)
libc_pic.a(compat_wait4.pico)
                              (--whole-archive)
libc_pic.a(compat_utimes.pico)
                              (--whole-archive)
libc_pic.a(compat_socket.pico)
                              (--whole-archive)
libc_pic.a(compat_sched.pico)
                              (--whole-archive)
libc_pic.a(compat_getdirentries.pico)
                              (--whole-archive)
libc_pic.a(compat_getdents.pico)
                              (--whole-archive)
libc_pic.a(compat_unsetenv.pico)
                              (--whole-archive)
libc_pic.a(compat_random.pico)
                              (--whole-archive)
libc_pic.a(compat_putenv.pico)
                              (--whole-archive)
libc_pic.a(compat_fsetpos.pico)
                              (--whole-archive)
libc_pic.a(compat_fgetpos.pico)
                              (--whole-archive)
libc_pic.a(compat_ns_ntoa.pico)
                              (--whole-archive)
libc_pic.a(compat_ns_addr.pico)
                              (--whole-archive)
libc_pic.a(__cmsg_alignbytes.pico)
                              (--whole-archive)
libc_pic.a(compat_alloca.pico)
                              (--whole-archive)
libc_pic.a(compat_syslog.pico)
                              (--whole-archive)
libc_pic.a(compat___unvis13.pico)
                              (--whole-archive)
libc_pic.a(compat___fts50.pico)
                              (--whole-archive)
libc_pic.a(compat_utmp.pico)  (--whole-archive)
libc_pic.a(compat_getpwent.pico)
                              (--whole-archive)
libc_pic.a(compat_alphasort.pico)
                              (--whole-archive)
libc_pic.a(compat_devname.pico)
                              (--whole-archive)
libc_pic.a(compat_utime.pico)
                              (--whole-archive)
libc_pic.a(compat_time.pico)  (--whole-archive)
libc_pic.a(compat_utmpx.pico)
                              (--whole-archive)
libc_pic.a(compat_unvis.pico)
                              (--whole-archive)
libc_pic.a(compat_timezone.pico)
                              (--whole-archive)
libc_pic.a(compat_times.pico)
                              (--whole-archive)
libc_pic.a(compat_sigsetops.pico)
                              (--whole-archive)
libc_pic.a(compat_signame.pico)
                              (--whole-archive)
libc_pic.a(compat_siglist.pico)
                              (--whole-archive)
libc_pic.a(compat_scandir.pico)
                              (--whole-archive)
libc_pic.a(compat__readdir_unlocked30.pico)
                              (--whole-archive)
libc_pic.a(compat___glob13.pico)
                              (--whole-archive)
libc_pic.a(compat_glob.pico)  (--whole-archive)
libc_pic.a(compat_fts.pico)   (--whole-archive)
libc_pic.a(compat_errlist.pico)
                              (--whole-archive)
libc_pic.a(compat_setlocale32.pico)
                              (--whole-archive)
libc_pic.a(compat_setlocale1.pico)
                              (--whole-archive)
libc_pic.a(compat_ndbmdatum.pico)
                              (--whole-archive)
libc_pic.a(lchown.pico)       (--whole-archive)
libc_pic.a(lchmod.pico)       (--whole-archive)
libc_pic.a(lchflags.pico)     (--whole-archive)
libc_pic.a(uuid_is_nil.pico)  (--whole-archive)
libc_pic.a(libunwind.pico)    (--whole-archive)
libc_pic.a(read_tsc.pico)     (--whole-archive)
libc_pic.a(setrlimit.pico)    (--whole-archive)
libc_pic.a(vfork.pico)        (--whole-archive)
libc_pic.a(lutimes.pico)      (--whole-archive)
libc_pic.a(futimes.pico)      (--whole-archive)
libc_pic.a(utimes.pico)       (--whole-archive)
libc_pic.a(utimensat.pico)    (--whole-archive)
libc_pic.a(umask.pico)        (--whole-archive)
libc_pic.a(socketpair.pico)   (--whole-archive)
libc_pic.a(sigsuspend.pico)   (--whole-archive)
libc_pic.a(shmctl.pico)       (--whole-archive)
libc_pic.a(settimeofday.pico)
                              (--whole-archive)
libc_pic.a(setgroups.pico)    (--whole-archive)
libc_pic.a(rmdir.pico)        (--whole-archive)
libc_pic.a(posix_spawn.pico)  (--whole-archive)
libc_pic.a(poll.pico)         (--whole-archive)
libc_pic.a(pipe.pico)         (--whole-archive)
libc_pic.a(minix_rs.pico)     (--whole-archive)
libc_pic.a(listen.pico)       (--whole-archive)
libc_pic.a(getvfsstat.pico)   (--whole-archive)
libc_pic.a(getsockopt.pico)   (--whole-archive)
libc_pic.a(priority.pico)     (--whole-archive)
libc_pic.a(__getlogin.pico)   (--whole-archive)
libc_pic.a(setitimer.pico)    (--whole-archive)
libc_pic.a(getitimer.pico)    (--whole-archive)
libc_pic.a(getegid.pico)      (--whole-archive)
libc_pic.a(fstatvfs.pico)     (--whole-archive)
libc_pic.a(dup2.pico)         (--whole-archive)
libc_pic.a(clock_settime.pico)
                              (--whole-archive)
libc_pic.a(clock_getres.pico)
                              (--whole-archive)
libc_pic.a(chown.pico)        (--whole-archive)
libc_pic.a(chmod.pico)        (--whole-archive)
libc_pic.a(adjtime.pico)      (--whole-archive)
libc_pic.a(accept.pico)       (--whole-archive)
libc_pic.a(tcsetattr.pico)    (--whole-archive)
libc_pic.a(wmemset.pico)      (--whole-archive)
libc_pic.a(wmemcpy.pico)      (--whole-archive)
libc_pic.a(wcscpy.pico)       (--whole-archive)
libc_pic.a(wcscmp.pico)       (--whole-archive)
libc_pic.a(strsep.pico)       (--whole-archive)
libc_pic.a(strncat.pico)      (--whole-archive)
libc_pic.a(stresep.pico)      (--whole-archive)
libc_pic.a(__strsignal.pico)  (--whole-archive)
libc_pic.a(strtok_r.pico)     (--whole-archive)
libc_pic.a(stpncpy.pico)      (--whole-archive)
libc_pic.a(stderr.pico)       (--whole-archive)
libc_pic.a(erand48_ieee754.pico)
                              (--whole-archive)
libc_pic.a(strtoll.pico)      (--whole-archive)
libc_pic.a(setenv.pico)       (--whole-archive)
libc_pic.a(random.pico)       (--whole-archive)
libc_pic.a(_rand48.pico)      (--whole-archive)
libc_pic.a(mktemp.pico)       (--whole-archive)
libc_pic.a(gets.pico)         (--whole-archive)
libc_pic.a(vswscanf.pico)     (--whole-archive)
libc_pic.a(vswprintf.pico)    (--whole-archive)
libc_pic.a(vfwscanf.pico)     (--whole-archive)
libc_pic.a(vfwprintf.pico)    (--whole-archive)
libc_pic.a(vdprintf.pico)     (--whole-archive)
libc_pic.a(ungetwc.pico)      (--whole-archive)
libc_pic.a(sscanf.pico)       (--whole-archive)
libc_pic.a(setvbuf.pico)      (--whole-archive)
libc_pic.a(perror.pico)       (--whole-archive)
libc_pic.a(gettemp.pico)      (--whole-archive)
libc_pic.a(ftello.pico)       (--whole-archive)
libc_pic.a(ftell.pico)        (--whole-archive)
libc_pic.a(fputwc.pico)       (--whole-archive)
libc_pic.a(fgetwc.pico)       (--whole-archive)
libc_pic.a(regfree.pico)      (--whole-archive)
libc_pic.a(getprotobynumber_r.pico)
                              (--whole-archive)
libc_pic.a(getprotobyname_r.pico)
                              (--whole-archive)
libc_pic.a(getnetent.pico)    (--whole-archive)
libc_pic.a(stack_protector.pico)
                              (--whole-archive)
libc_pic.a(wcstold.pico)      (--whole-archive)
libc_pic.a(wcstof.pico)       (--whole-archive)
libc_pic.a(wcstod.pico)       (--whole-archive)
libc_pic.a(wcstoumax.pico)    (--whole-archive)
libc_pic.a(wcstoimax.pico)    (--whole-archive)
libc_pic.a(inet_network.pico)
                              (--whole-archive)
libc_pic.a(udivsi3.pico)      (--whole-archive)
libc_pic.a(divsi3.pico)       (--whole-archive)
libc_pic.a(verrx.pico)        (--whole-archive)
libc_pic.a(verr.pico)         (--whole-archive)
libc_pic.a(warn.pico)         (--whole-archive)
libc_pic.a(wait3.pico)        (--whole-archive)
libc_pic.a(utmpx.pico)        (--whole-archive)
libc_pic.a(utmp.pico)         (--whole-archive)
libc_pic.a(unvis.pico)        (--whole-archive)
libc_pic.a(times.pico)        (--whole-archive)
libc_pic.a(siglist.pico)      (--whole-archive)
libc_pic.a(pwcache.pico)      (--whole-archive)
libc_pic.a(nlist_elf32.pico)  (--whole-archive)
libc_pic.a(nlist_aout.pico)   (--whole-archive)
libc_pic.a(lockf.pico)        (--whole-archive)
libc_pic.a(getpwent.pico)     (--whole-archive)
libc_pic.a(getnetgrent.pico)  (--whole-archive)
libc_pic.a(getgroupmembership.pico)
                              (--whole-archive)
libc_pic.a(getgrent.pico)     (--whole-archive)
libc_pic.a(getcwd.pico)       (--whole-archive)
libc_pic.a(execvp.pico)       (--whole-archive)
libc_pic.a(execl.pico)        (--whole-archive)
libc_pic.a(devname.pico)      (--whole-archive)
libc_pic.a(arc4random.pico)   (--whole-archive)
libc_pic.a(InstrProfilingPlatformOther.pico)
                              (--whole-archive)
libc_pic.a(citrus_mapper.pico)
                              (--whole-archive)
libc_pic.a(citrus_hash.pico)  (--whole-archive)
libc_pic.a(compat_gettimeofday.pico)
                              (--whole-archive)
libc_pic.a(compat_getrusage.pico)
                              (--whole-archive)
libc_pic.a(compat_stat.pico)  (--whole-archive)
libc_pic.a(compat_readdir.pico)
                              (--whole-archive)
libc_pic.a(compat_opendir.pico)
                              (--whole-archive)
libc_pic.a(unwind_registers.pico)
                              (--whole-archive)
libc_pic.a(setpgid.pico)      (--whole-archive)
libc_pic.a(getrusage.pico)    (--whole-archive)
libc_pic.a(__getcwd.pico)     (--whole-archive)
libc_pic.a(environ.pico)      (--whole-archive)
libc_pic.a(setuid.pico)       (--whole-archive)
libc_pic.a(setgid.pico)       (--whole-archive)
libc_pic.a(setsid.pico)       (--whole-archive)
libc_pic.a(mkdir.pico)        (--whole-archive)
libc_pic.a(geteuid.pico)      (--whole-archive)
libc_pic.a(fork.pico)         (--whole-archive)
libc_pic.a(execve.pico)       (--whole-archive)
libc_pic.a(wmemchr.pico)      (--whole-archive)
libc_pic.a(explicit_memset.pico)
                              (--whole-archive)
libc_pic.a(strstr.pico)       (--whole-archive)
libc_pic.a(vsscanf.pico)      (--whole-archive)
libc_pic.a(vfscanf.pico)      (--whole-archive)
libc_pic.a(ungetc.pico)       (--whole-archive)
libc_pic.a(getprotoent_r.pico)
                              (--whole-archive)
libc_pic.a(sha2.pico)         (--whole-archive)
libc_pic.a(bswap64.pico)      (--whole-archive)
libc_pic.a(verrc.pico)        (--whole-archive)
libc_pic.a(vwarn.pico)        (--whole-archive)
libc_pic.a(warnx.pico)        (--whole-archive)
libc_pic.a(waitpid.pico)      (--whole-archive)
libc_pic.a(vis.pico)          (--whole-archive)
libc_pic.a(stringlist.pico)   (--whole-archive)
libc_pic.a(sleep.pico)        (--whole-archive)
libc_pic.a(rewinddir.pico)    (--whole-archive)
libc_pic.a(getdevmajor.pico)  (--whole-archive)
libc_pic.a(fts.pico)          (--whole-archive)
libc_pic.a(closedir.pico)     (--whole-archive)
libc_pic.a(strtod.pico)       (--whole-archive)
libc_pic.a(strtold_px.pico)   (--whole-archive)
libc_pic.a(strtof.pico)       (--whole-archive)
libc_pic.a(citrus_module.pico)
                              (--whole-archive)
libc_pic.a(stack_utils.pico)  (--whole-archive)
libc_pic.a(kernel_utils.pico)
                              (--whole-archive)
libc_pic.a(wait4.pico)        (--whole-archive)
libc_pic.a(chdir.pico)        (--whole-archive)
libc_pic.a(strrchr.pico)      (--whole-archive)
libc_pic.a(wcslen.pico)       (--whole-archive)
libc_pic.a(wcschr.pico)       (--whole-archive)
libc_pic.a(strcoll.pico)      (--whole-archive)
libc_pic.a(strtoumax.pico)    (--whole-archive)
libc_pic.a(reallocarr.pico)   (--whole-archive)
libc_pic.a(iswctype_mb.pico)  (--whole-archive)
libc_pic.a(multibyte_c90.pico)
                              (--whole-archive)
libc_pic.a(vwarnc.pico)       (--whole-archive)
libc_pic.a(vwarnx.pico)       (--whole-archive)
libc_pic.a(sysctlbyname.pico)
                              (--whole-archive)
libc_pic.a(opendir.pico)      (--whole-archive)
libc_pic.a(initdir.pico)      (--whole-archive)
libc_pic.a(alphasort.pico)    (--whole-archive)
libc_pic.a(strtord.pico)      (--whole-archive)
libc_pic.a(ulp.pico)          (--whole-archive)
libc_pic.a(strtopx.pico)      (--whole-archive)
libc_pic.a(merge.pico)        (--whole-archive)
libc_pic.a(telldir.pico)      (--whole-archive)
libc_pic.a(readdir.pico)      (--whole-archive)
libc_pic.a(getdents.pico)     (--whole-archive)
libc_pic.a(ucontext.pico)     (--whole-archive)
libc_pic.a(_ucontext.pico)    (--whole-archive)
libc_pic.a(_mcontext.pico)    (--whole-archive)
libc_pic.a(socket.pico)       (--whole-archive)
libc_pic.a(bind.pico)         (--whole-archive)
libc_pic.a(mknod.pico)        (--whole-archive)
libc_pic.a(vectorio.pico)     (--whole-archive)
libc_pic.a(sendto.pico)       (--whole-archive)
libc_pic.a(ioctl.pico)        (--whole-archive)
libc_pic.a(strftime.pico)     (--whole-archive)
libc_pic.a(malloc.pico)       (--whole-archive)
libc_pic.a(readlink.pico)     (--whole-archive)
libc_pic.a(getuid.pico)       (--whole-archive)
libc_pic.a(getgid.pico)       (--whole-archive)
libc_pic.a(sbrk.pico)         (--whole-archive)
libc_pic.a(brk.pico)          (--whole-archive)
libc_pic.a(brksize.pico)      (--whole-archive)
libc_pic.a(wsetup.pico)       (--whole-archive)
libc_pic.a(fwalk.pico)        (--whole-archive)
libc_pic.a(res_send.pico)     (--whole-archive)
libc_pic.a(recvfrom.pico)     (--whole-archive)
libc_pic.a(getpeername.pico)  (--whole-archive)
libc_pic.a(getnameinfo.pico)  (--whole-archive)
libc_pic.a(getservbyport_r.pico)
                              (--whole-archive)
libc_pic.a(ev_streams.pico)   (--whole-archive)
libc_pic.a(ev_timers.pico)    (--whole-archive)
libc_pic.a(assert.pico)       (--whole-archive)
libc_pic.a(clock_gettime.pico)
                              (--whole-archive)
libc_pic.a(if_indextoname.pico)
                              (--whole-archive)
libc_pic.a(res_query.pico)    (--whole-archive)
libc_pic.a(res_mkquery.pico)  (--whole-archive)
libc_pic.a(res_init.pico)     (--whole-archive)
libc_pic.a(puts.pico)         (--whole-archive)
libc_pic.a(getaddrinfo.pico)  (--whole-archive)
libc_pic.a(getservbyname_r.pico)
                              (--whole-archive)
libc_pic.a(md5c.pico)         (--whole-archive)
libc_pic.a(inet_addr.pico)    (--whole-archive)
libc_pic.a(vasprintf.pico)    (--whole-archive)
libc_pic.a(fgets.pico)        (--whole-archive)
libc_pic.a(if_nametoindex.pico)
                              (--whole-archive)
libc_pic.a(getservent_r.pico)
                              (--whole-archive)
libc_pic.a(getifaddrs.pico)   (--whole-archive)
libc_pic.a(cdbr.pico)         (--whole-archive)
libc_pic.a(mi_vector_hash.pico)
                              (--whole-archive)
libc_pic.a(atoi.pico)         (--whole-archive)
libc_pic.a(res_debug.pico)    (--whole-archive)
libc_pic.a(strerror.pico)     (--whole-archive)
libc_pic.a(strtoul.pico)      (--whole-archive)
libc_pic.a(fputs.pico)        (--whole-archive)
libc_pic.a(fputc.pico)        (--whole-archive)
libc_pic.a(ns_print.pico)     (--whole-archive)
libc_pic.a(ns_parse.pico)     (--whole-archive)
libc_pic.a(base64.pico)       (--whole-archive)
libc_pic.a(nsap_addr.pico)    (--whole-archive)
libc_pic.a(inet_ntop.pico)    (--whole-archive)
libc_pic.a(mtctxres.pico)     (--whole-archive)
libc_pic.a(ns_ttl.pico)       (--whole-archive)
libc_pic.a(ns_samedomain.pico)
                              (--whole-archive)
libc_pic.a(sethostent.pico)   (--whole-archive)
libc_pic.a(rewind.pico)       (--whole-archive)
libc_pic.a(fseek.pico)        (--whole-archive)
libc_pic.a(res_data.pico)     (--whole-archive)
libc_pic.a(h_errno.pico)      (--whole-archive)
libc_pic.a(gethnamaddr.pico)  (--whole-archive)
libc_pic.a(inet_pton.pico)    (--whole-archive)
libc_pic.a(fseeko.pico)       (--whole-archive)
libc_pic.a(fparseln.pico)     (--whole-archive)
libc_pic.a(fgetln.pico)       (--whole-archive)
libc_pic.a(res_compat.pico)   (--whole-archive)
libc_pic.a(res_comp.pico)     (--whole-archive)
libc_pic.a(ns_netint.pico)    (--whole-archive)
libc_pic.a(ns_name.pico)      (--whole-archive)
libc_pic.a(strncasecmp.pico)  (--whole-archive)
libc_pic.a(strtol.pico)       (--whole-archive)
libc_pic.a(vsprintf.pico)     (--whole-archive)
libc_pic.a(fgetstr.pico)      (--whole-archive)
libc_pic.a(getdelim.pico)     (--whole-archive)
libc_pic.a(nsparser.pico)     (--whole-archive)
libc_pic.a(nslexer.pico)      (--whole-archive)
libc_pic.a(nsdispatch.pico)   (--whole-archive)
libc_pic.a(syslog.pico)       (--whole-archive)
libc_pic.a(getprogname.pico)  (--whole-archive)
libc_pic.a(gethostname.pico)  (--whole-archive)
libc_pic.a(connect.pico)      (--whole-archive)
libc_pic.a(localtime.pico)    (--whole-archive)
libc_pic.a(asctime.pico)      (--whole-archive)
libc_pic.a(strcat.pico)       (--whole-archive)
libc_pic.a(strerror_r.pico)   (--whole-archive)
libc_pic.a(strcasecmp.pico)   (--whole-archive)
libc_pic.a(exit.pico)         (--whole-archive)
libc_pic.a(bsearch.pico)      (--whole-archive)
libc_pic.a(atexit.pico)       (--whole-archive)
libc_pic.a(snprintf_ss.pico)  (--whole-archive)
libc_pic.a(putchar.pico)      (--whole-archive)
libc_pic.a(printf.pico)       (--whole-archive)
libc_pic.a(fread.pico)        (--whole-archive)
libc_pic.a(fprintf.pico)      (--whole-archive)
libc_pic.a(fopen.pico)        (--whole-archive)
libc_pic.a(catopen.pico)      (--whole-archive)
libc_pic.a(catgets.pico)      (--whole-archive)
libc_pic.a(catclose.pico)     (--whole-archive)
libc_pic.a(send.pico)         (--whole-archive)
libc_pic.a(usleep.pico)       (--whole-archive)
libc_pic.a(errlist.pico)      (--whole-archive)
libc_pic.a(nanosleep.pico)    (--whole-archive)
libc_pic.a(gettimeofday.pico)
                              (--whole-archive)
libc_pic.a(access.pico)       (--whole-archive)
libc_pic.a(wbuf.pico)         (--whole-archive)
libc_pic.a(vsnprintf_ss.pico)
                              (--whole-archive)
libc_pic.a(select.pico)       (--whole-archive)
libc_pic.a(dummy_lc_collate.pico)
                              (--whole-archive)
libc_pic.a(generic_lc_all.pico)
                              (--whole-archive)
libc_pic.a(setlocale.pico)    (--whole-archive)
libc_pic.a(citrus_lc_messages.pico)
                              (--whole-archive)
libc_pic.a(citrus_lc_time.pico)
                              (--whole-archive)
libc_pic.a(citrus_lc_numeric.pico)
                              (--whole-archive)
libc_pic.a(citrus_lc_monetary.pico)
                              (--whole-archive)
libc_pic.a(citrus_lc_ctype.pico)
                              (--whole-archive)
libc_pic.a(citrus_lookup.pico)
                              (--whole-archive)
libc_pic.a(citrus_db_hash.pico)
                              (--whole-archive)
libc_pic.a(citrus_db.pico)    (--whole-archive)
libc_pic.a(citrus_bcs_strtol.pico)
                              (--whole-archive)
libc_pic.a(strndup.pico)      (--whole-archive)
libc_pic.a(rune.pico)         (--whole-archive)
libc_pic.a(_wctype.pico)      (--whole-archive)
libc_pic.a(_wctrans.pico)     (--whole-archive)
libc_pic.a(fix_grouping.pico)
                              (--whole-archive)
libc_pic.a(__mb_cur_max.pico)
                              (--whole-archive)
libc_pic.a(citrus_mmap.pico)  (--whole-archive)
libc_pic.a(citrus_memstream.pico)
                              (--whole-archive)
libc_pic.a(citrus_bcs.pico)   (--whole-archive)
libc_pic.a(strtodg.pico)      (--whole-archive)
libc_pic.a(sum.pico)          (--whole-archive)
libc_pic.a(hexnan.pico)       (--whole-archive)
libc_pic.a(gethex.pico)       (--whole-archive)
libc_pic.a(smisc.pico)        (--whole-archive)
libc_pic.a(hd_init.pico)      (--whole-archive)
libc_pic.a(rec_put.pico)      (--whole-archive)
libc_pic.a(rec_open.pico)     (--whole-archive)
libc_pic.a(fdopen.pico)       (--whole-archive)
libc_pic.a(rec_seq.pico)      (--whole-archive)
libc_pic.a(rec_get.pico)      (--whole-archive)
libc_pic.a(rec_delete.pico)   (--whole-archive)
libc_pic.a(rec_close.pico)    (--whole-archive)
libc_pic.a(mmap.pico)         (--whole-archive)
libc_pic.a(ftruncate.pico)    (--whole-archive)
libc_pic.a(rget.pico)         (--whole-archive)
libc_pic.a(refill.pico)       (--whole-archive)
libc_pic.a(makebuf.pico)      (--whole-archive)
libc_pic.a(flags.pico)        (--whole-archive)
libc_pic.a(fclose.pico)       (--whole-archive)
libc_pic.a(isatty.pico)       (--whole-archive)
libc_pic.a(rec_utils.pico)    (--whole-archive)
libc_pic.a(rec_search.pico)   (--whole-archive)
libc_pic.a(tcgetattr.pico)    (--whole-archive)
libc_pic.a(strtoi.pico)       (--whole-archive)
libc_pic.a(vsnprintf.pico)    (--whole-archive)
libc_pic.a(vfprintf.pico)     (--whole-archive)
libc_pic.a(multibyte_amd1.pico)
                              (--whole-archive)
libc_pic.a(localeconv.pico)   (--whole-archive)
libc_pic.a(hdtoa.pico)        (--whole-archive)
libc_pic.a(ldtoa.pico)        (--whole-archive)
libc_pic.a(dtoa.pico)         (--whole-archive)
libc_pic.a(umoddi3.pico)      (--whole-archive)
libc_pic.a(strdup.pico)       (--whole-archive)
libc_pic.a(fpclassifyl.pico)  (--whole-archive)
libc_pic.a(fpclassifyd_ieee754.pico)
                              (--whole-archive)
libc_pic.a(flt_rounds.pico)   (--whole-archive)
libc_pic.a(gdtoa.pico)        (--whole-archive)
libc_pic.a(gmisc.pico)        (--whole-archive)
libc_pic.a(dmisc.pico)        (--whole-archive)
libc_pic.a(misc.pico)         (--whole-archive)
libc_pic.a(hash_page.pico)    (--whole-archive)
libc_pic.a(hash_bigkey.pico)  (--whole-archive)
libc_pic.a(db.pico)           (--whole-archive)
libc_pic.a(hash.pico)         (--whole-archive)
libc_pic.a(bt_open.pico)      (--whole-archive)
libc_pic.a(bt_get.pico)       (--whole-archive)
libc_pic.a(bt_conv.pico)      (--whole-archive)
libc_pic.a(bt_close.pico)     (--whole-archive)
libc_pic.a(memcmp.pico)       (--whole-archive)
libc_pic.a(hash_log2.pico)    (--whole-archive)
libc_pic.a(hash_func.pico)    (--whole-archive)
libc_pic.a(hash_buf.pico)     (--whole-archive)
libc_pic.a(dbfile.pico)       (--whole-archive)
libc_pic.a(bt_put.pico)       (--whole-archive)
libc_pic.a(bt_delete.pico)    (--whole-archive)
libc_pic.a(unlink.pico)       (--whole-archive)
libc_pic.a(issetugid.pico)    (--whole-archive)
libc_pic.a(fcntl.pico)        (--whole-archive)
libc_pic.a(getenv.pico)       (--whole-archive)
libc_pic.a(_env.pico)         (--whole-archive)
libc_pic.a(rb.pico)           (--whole-archive)
libc_pic.a(bt_split.pico)     (--whole-archive)
libc_pic.a(bt_seq.pico)       (--whole-archive)
libc_pic.a(bt_search.pico)    (--whole-archive)
libc_pic.a(strncmp.pico)      (--whole-archive)
libc_pic.a(strcspn.pico)      (--whole-archive)
libc_pic.a(bt_utils.pico)     (--whole-archive)
libc_pic.a(bt_overflow.pico)  (--whole-archive)
libc_pic.a(memmove.pico)      (--whole-archive)
libc_pic.a(bt_page.pico)      (--whole-archive)
libc_pic.a(mpool.pico)        (--whole-archive)
libc_pic.a(pwrite.pico)       (--whole-archive)
libc_pic.a(pread.pico)        (--whole-archive)
libc_pic.a(fsync.pico)        (--whole-archive)
libc_pic.a(abort.pico)        (--whole-archive)
libc_pic.a(fwrite.pico)       (--whole-archive)
libc_pic.a(fvwrite.pico)      (--whole-archive)
libc_pic.a(findfp.pico)       (--whole-archive)
libc_pic.a(fflush.pico)       (--whole-archive)
libc_pic.a(sysconf.pico)      (--whole-archive)
libc_pic.a(signal.pico)       (--whole-archive)
libc_pic.a(raise.pico)        (--whole-archive)
libc_pic.a(getpagesize.pico)  (--whole-archive)
libc_pic.a(udivdi3.pico)      (--whole-archive)
libc_pic.a(_exit.pico)        (--whole-archive)
libc_pic.a(sigaction.pico)    (--whole-archive)
libc_pic.a(pathconf.pico)     (--whole-archive)
libc_pic.a(open.pico)         (--whole-archive)
libc_pic.a(loadname.pico)     (--whole-archive)
libc_pic.a(kill.pico)         (--whole-archive)
libc_pic.a(getrlimit.pico)    (--whole-archive)
libc_pic.a(getpid.pico)       (--whole-archive)
libc_pic.a(fpathconf.pico)    (--whole-archive)
libc_pic.a(strcpy.pico)       (--whole-archive)
libc_pic.a(memchr.pico)       (--whole-archive)
libc_pic.a(stdio.pico)        (--whole-archive)
libc_pic.a(sysctlgetmibinfo.pico)
                              (--whole-archive)
libc_pic.a(sysctl.pico)       (--whole-archive)
libc_pic.a(__sigreturn.pico)  (--whole-archive)
libc_pic.a(__sysctl.pico)     (--whole-archive)
libc_pic.a(write.pico)        (--whole-archive)
libc_pic.a(stat.pico)         (--whole-archive)
libc_pic.a(sigreturn.pico)    (--whole-archive)
libc_pic.a(read.pico)         (--whole-archive)
libc_pic.a(lseek.pico)        (--whole-archive)
libc_pic.a(close.pico)        (--whole-archive)
libc_pic.a(memset.pico)       (--whole-archive)
libc_pic.a(memcpy.pico)       (--whole-archive)
libc_pic.a(strpbrk.pico)      (--whole-archive)
libc_pic.a(strncpy.pico)      (--whole-archive)
libc_pic.a(strlcpy.pico)      (--whole-archive)
libc_pic.a(strlcat.pico)      (--whole-archive)
libc_pic.a(strtoimax.pico)    (--whole-archive)
libc_pic.a(qsort.pico)        (--whole-archive)
libc_pic.a(global_locale.pico)
                              (--whole-archive)
libc_pic.a(isctype.pico)      (--whole-archive)
libc_pic.a(moddi3.pico)       (--whole-archive)
libc_pic.a(divdi3.pico)       (--whole-archive)
libc_pic.a(sigprocmask.pico)  (--whole-archive)
libc_pic.a(strlen.pico)       (--whole-archive)
libc_pic.a(strchr.pico)       (--whole-archive)
libc_pic.a(runetable.pico)    (--whole-archive)
libc_pic.a(toupper_.pico)     (--whole-archive)
libc_pic.a(tolower_.pico)     (--whole-archive)
libc_pic.a(ctype_.pico)       (--whole-archive)
libc_pic.a(citrus_ctype.pico)
                              (--whole-archive)
libc_pic.a(syscall.pico)      (--whole-archive)
libc_pic.a(strcmp.pico)       (--whole-archive)
libc_pic.a(_errno.pico)       (--whole-archive)
libc_pic.a(citrus_none.pico)  (--whole-archive)
libc_pic.a(init.pico)         (--whole-archive)
libc_pic.a(ipc_minix_kerninfo.pico)
                              (--whole-archive)
libc_pic.a(_ipc.pico)         (--whole-archive)
libc_pic.a(_do_kernel_call_intr.pico)
                              (--whole-archive)

Allocating common symbols
Common symbol       size              file

_nres               0x1f0             libc_pic.a(res_state.pico)
_malloc_options     0x4               libc_pic.a(malloc.pico)
__rcmd_errstr       0x4               libc_pic.a(rcmd.pico)
__sFext             0x354             libc_pic.a(findfp.pico)
_net_stayopen       0x4               libc_pic.a(getnetent.pico)
_nsyychar           0x4               libc_pic.a(nsparser.pico)
__dtoa_result_D2A   0x4               libc_pic.a(dmisc.pico)
_nsyynerrs          0x4               libc_pic.a(nsparser.pico)
errno               0x4               libc_pic.a(errno.pico)
optarg              0x4               libc_pic.a(getopt.pico)
_nsyydebug          0x4               libc_pic.a(nsparser.pico)
_nsyyerrflag        0x4               libc_pic.a(nsparser.pico)
_nsyyval            0x4               libc_pic.a(nsparser.pico)
getdate_err         0x4               libc_pic.a(getdate.pico)
__sigintr           0x10              libc_pic.a(signal.pico)
h_errno             0x4               libc_pic.a(herror.pico)
__cleanup           0x4               libc_pic.a(exit.pico)
_res                0x1bc             libc_pic.a(res_compat.pico)
__progname          0x4               libc_pic.a(getprogname.pico)
__logname_valid     0x4               libc_pic.a(getlogin.pico)
_protoent_data      0x24              libc_pic.a(getprotoent.pico)
_nsyytext           0x4               libc_pic.a(nslexer.pico)
_servent_data       0x38              libc_pic.a(getservent.pico)
optreset            0x4               libc_pic.a(getopt.pico)
_h_file             0x4               libc_pic.a(gethnamaddr.pico)
optopt              0x4               libc_pic.a(getopt.pico)
_nsyylval           0x4               libc_pic.a(nsparser.pico)
__ps_strings        0x4               libc_pic.a(initfini.pico)
__sdidinit          0x4               libc_pic.a(findfp.pico)
suboptarg           0x4               libc_pic.a(getsubopt.pico)
_nsyyleng           0x4               libc_pic.a(nslexer.pico)
__hexdig_D2A        0x100             libc_pic.a(hd_init.pico)

Discarded input sections

 .note.GNU-stack
                0x00000000        0x0 libc_pic.a(uuid_to_string.pico)
 .note.GNU-stack
                0x00000000        0x0 libc_pic.a(uuid_stream.pico)
 .note.GNU-stack
                0x00000000        0x0 libc_pic.a(uuid_hash.pico)
 .note.GNU-stack
                0x00000000        0x0 libc_pic.a(uuid_from_string.pico)
 .note.GNU-stack
                0x00000000        0x0 libc_pic.a(uuid_equal.pico)
 .note.GNU-stack
                0x00000000        0x0 libc_pic.a(uuid_create_nil.pico)
 .note.GNU-stack
                0x00000000        0x0 libc_pic.a(uuid_create.pico)
 .note.GNU-stack
                0x00000000        0x0 libc_pic.a(uuid_compare.pico)
 .note.GNU-stack
                0x00000000        0x0 libc_pic.a(_cpufeature.pico)
 .note.GNU-stack
                0x00000000        0x0 libc_pic.a(sprofile.pico)
 .note.GNU-stack
                0x00000000        0x0 libc_pic.a(sizeup.pico)
 .note.GNU-stack
                0x00000000        0x0 libc_pic.a(futimens.pico)
 .note.GNU-stack
                0x00000000        0x0 libc_pic.a(truncate.pico)
 .note.GNU-stack
                0x00000000        0x0 libc_pic.a(sync.pico)
 .note.GNU-stack
                0x00000000        0x0 libc_pic.a(symlink.pico)
 .note.GNU-stack
                0x00000000        0x0 libc_pic.a(svrctl.pico)
 .note.GNU-stack
                0x00000000        0x0 libc_pic.a(statvfs.pico)
 .note.GNU-stack
                0x00000000        0x0 libc_pic.a(sigpending.pico)
 .note.GNU-stack
                0x00000000        0x0 libc_pic.a(shutdown.pico)
 .note.GNU-stack
                0x00000000        0x0 libc_pic.a(stime.pico)
 .note.GNU-stack
                0x00000000        0x0 libc_pic.a(shmget.pico)
 .note.GNU-stack
                0x00000000        0x0 libc_pic.a(shmat.pico)
 .note.GNU-stack
                0x00000000        0x0 libc_pic.a(sendmsg.pico)
 .note.GNU-stack
                0x00000000        0x0 libc_pic.a(sem.pico)
 .note.GNU-stack
                0x00000000        0x0 libc_pic.a(rename.pico)
 .note.GNU-stack
                0x00000000        0x0 libc_pic.a(recvmsg.pico)
 .note.GNU-stack
                0x00000000        0x0 libc_pic.a(reboot.pico)
 .note.GNU-stack
                0x00000000        0x0 libc_pic.a(ptrace.pico)
 .note.GNU-stack
                0x00000000        0x0 libc_pic.a(mount.pico)
 .note.GNU-stack
                0x00000000        0x0 libc_pic.a(mkfifo.pico)
 .note.GNU-stack
                0x00000000        0x0 libc_pic.a(link.pico)
 .note.GNU-stack
                0x00000000        0x0 libc_pic.a(setsockopt.pico)
 .note.GNU-stack
                0x00000000        0x0 libc_pic.a(getsockname.pico)
 .note.GNU-stack
                0x00000000        0x0 libc_pic.a(getppid.pico)
 .note.GNU-stack
                0x00000000        0x0 libc_pic.a(getpgrp.pico)
 .note.GNU-stack
                0x00000000        0x0 libc_pic.a(getgroups.pico)
 .note.GNU-stack
                0x00000000        0x0 libc_pic.a(gcov_flush_sys.pico)
 .note.GNU-stack
                0x00000000        0x0 libc_pic.a(fstatfs.pico)
 .note.GNU-stack
                0x00000000        0x0 libc_pic.a(flock.pico)
 .note.GNU-stack
                0x00000000        0x0 libc_pic.a(dup.pico)
 .note.GNU-stack
                0x00000000        0x0 libc_pic.a(chroot.pico)
 .note.GNU-stack
                0x00000000        0x0 libc_pic.a(fchown.pico)
 .note.GNU-stack
                0x00000000        0x0 libc_pic.a(fchmod.pico)
 .note.GNU-stack
                0x00000000        0x0 libc_pic.a(getsid.pico)
 .note.GNU-stack
                0x00000000        0x0 libc_pic.a(m_closefrom.pico)
 .note.GNU-stack
                0x00000000        0x0 libc_pic.a(strptime.pico)
 .note.GNU-stack
                0x00000000        0x0 libc_pic.a(getdate.pico)
 .note.GNU-stack
                0x00000000        0x0 libc_pic.a(difftime.pico)
 .note.GNU-stack
                0x00000000        0x0 libc_pic.a(thread-stub-init.pico)
 .note.GNU-stack
                0x00000000        0x0 libc_pic.a(thread-stub.pico)
 .note.GNU-stack
                0x00000000        0x0 libc_pic.a(__isthreaded.pico)
 .note.GNU-stack
                0x00000000        0x0 libc_pic.a(tcsetpgrp.pico)
 .note.GNU-stack
                0x00000000        0x0 libc_pic.a(tcsendbreak.pico)
 .note.GNU-stack
                0x00000000        0x0 libc_pic.a(tcgetpgrp.pico)
 .note.GNU-stack
                0x00000000        0x0 libc_pic.a(tcflush.pico)
 .note.GNU-stack
                0x00000000        0x0 libc_pic.a(tcflow.pico)
 .note.GNU-stack
                0x00000000        0x0 libc_pic.a(tcdrain.pico)
 .note.GNU-stack
                0x00000000        0x0 libc_pic.a(cfsetspeed.pico)
 .note.GNU-stack
                0x00000000        0x0 libc_pic.a(cfsetospeed.pico)
 .note.GNU-stack
                0x00000000        0x0 libc_pic.a(cfsetispeed.pico)
 .note.GNU-stack
                0x00000000        0x0 libc_pic.a(cfmakeraw.pico)
 .note.GNU-stack
                0x00000000        0x0 libc_pic.a(cfgetospeed.pico)
 .note.GNU-stack
                0x00000000        0x0 libc_pic.a(cfgetispeed.pico)
 .note.GNU-stack
                0x00000000        0x0 libc_pic.a(wmemmove.pico)
 .note.GNU-stack
                0x00000000        0x0 libc_pic.a(wmemcmp.pico)
 .note.GNU-stack
                0x00000000        0x0 libc_pic.a(wcswcs.pico)
 .note.GNU-stack
                0x00000000        0x0 libc_pic.a(wcstok.pico)
 .note.GNU-stack
                0x00000000        0x0 libc_pic.a(wcsstr.pico)
 .note.GNU-stack
                0x00000000        0x0 libc_pic.a(wcsspn.pico)
 .note.GNU-stack
                0x00000000        0x0 libc_pic.a(wcsrchr.pico)
 .note.GNU-stack
                0x00000000        0x0 libc_pic.a(wcspbrk.pico)
 .note.GNU-stack
                0x00000000        0x0 libc_pic.a(wcsncpy.pico)
 .note.GNU-stack
                0x00000000        0x0 libc_pic.a(wcsncmp.pico)
 .note.GNU-stack
                0x00000000        0x0 libc_pic.a(wcsncasecmp.pico)
 .note.GNU-stack
                0x00000000        0x0 libc_pic.a(wcsdup.pico)
 .note.GNU-stack
                0x00000000        0x0 libc_pic.a(wcscasecmp.pico)
 .note.GNU-stack
                0x00000000        0x0 libc_pic.a(wcsncat.pico)
 .note.GNU-stack
                0x00000000        0x0 libc_pic.a(wcslcpy.pico)
 .note.GNU-stack
                0x00000000        0x0 libc_pic.a(wcslcat.pico)
 .note.GNU-stack
                0x00000000        0x0 libc_pic.a(wcscspn.pico)
 .note.GNU-stack
                0x00000000        0x0 libc_pic.a(wcscat.pico)
 .note.GNU-stack
                0x00000000        0x0 libc_pic.a(popcount64.pico)
 .note.GNU-stack
                0x00000000        0x0 libc_pic.a(popcount32.pico)
 .note.GNU-stack
                0x00000000        0x0 libc_pic.a(memmem.pico)
 .note.GNU-stack
                0x00000000        0x0 libc_pic.a(memccpy.pico)
 .note.GNU-stack
                0x00000000        0x0 libc_pic.a(consttime_memequal.pico)
 .note.GNU-stack
                0x00000000        0x0 libc_pic.a(strnstr.pico)
 .note.GNU-stack
                0x00000000        0x0 libc_pic.a(strspn.pico)
 .note.GNU-stack
                0x00000000        0x0 libc_pic.a(memrchr.pico)
 .note.GNU-stack
                0x00000000        0x0 libc_pic.a(strxfrm.pico)
 .note.GNU-stack
                0x00000000        0x0 libc_pic.a(strtok.pico)
 .note.GNU-stack
                0x00000000        0x0 libc_pic.a(strsignal.pico)
 .note.GNU-stack
                0x00000000        0x0 libc_pic.a(strmode.pico)
 .note.GNU-stack
                0x00000000        0x0 libc_pic.a(strnlen.pico)
 .note.GNU-stack
                0x00000000        0x0 libc_pic.a(strcasestr.pico)
 .note.GNU-stack
                0x00000000        0x0 libc_pic.a(stpcpy.pico)
 .note.GNU-stack
                0x00000000        0x0 libc_pic.a(bm.pico)
 .note.GNU-stack
                0x00000000        0x0 libc_pic.a(mtab.pico)
 .note.GNU-stack
                0x00000000        0x0 libc_pic.a(configfile.pico)
 .note.GNU-stack
                0x00000000        0x0 libc_pic.a(strfmon.pico)
 .note.GNU-stack
                0x00000000        0x0 libc_pic.a(unsetenv.pico)
 .note.GNU-stack
                0x00000000        0x0 libc_pic.a(twalk.pico)
 .note.GNU-stack
                0x00000000        0x0 libc_pic.a(tsearch.pico)
 .note.GNU-stack
                0x00000000        0x0 libc_pic.a(tfind.pico)
 .note.GNU-stack
                0x00000000        0x0 libc_pic.a(tdelete.pico)
 .note.GNU-stack
                0x00000000        0x0 libc_pic.a(system.pico)
 .note.GNU-stack
                0x00000000        0x0 libc_pic.a(strtouq.pico)
 .note.GNU-stack
                0x00000000        0x0 libc_pic.a(strtoull.pico)
 .note.GNU-stack
                0x00000000        0x0 libc_pic.a(strtoq.pico)
 .note.GNU-stack
                0x00000000        0x0 libc_pic.a(strtonum.pico)
 .note.GNU-stack
                0x00000000        0x0 libc_pic.a(strtou.pico)
 .note.GNU-stack
                0x00000000        0x0 libc_pic.a(strsuftoll.pico)
 .note.GNU-stack
                0x00000000        0x0 libc_pic.a(srand48.pico)
 .note.GNU-stack
                0x00000000        0x0 libc_pic.a(seed48.pico)
 .note.GNU-stack
                0x00000000        0x0 libc_pic.a(reallocarray.pico)
 .note.GNU-stack
                0x00000000        0x0 libc_pic.a(remque.pico)
 .note.GNU-stack
                0x00000000        0x0 libc_pic.a(rand_r.pico)
 .note.GNU-stack
                0x00000000        0x0 libc_pic.a(rand.pico)
 .note.GNU-stack
                0x00000000        0x0 libc_pic.a(radixsort.pico)
 .note.GNU-stack
                0x00000000        0x0 libc_pic.a(quick_exit.pico)
 .note.GNU-stack
                0x00000000        0x0 libc_pic.a(pty.pico)
 .note.GNU-stack
                0x00000000        0x0 libc_pic.a(posix_openpt.pico)
 .note.GNU-stack
                0x00000000        0x0 libc_pic.a(qdiv.pico)
 .note.GNU-stack
                0x00000000        0x0 libc_pic.a(qabs.pico)
 .note.GNU-stack
                0x00000000        0x0 libc_pic.a(putenv.pico)
 .note.GNU-stack
                0x00000000        0x0 libc_pic.a(nrand48.pico)
 .note.GNU-stack
                0x00000000        0x0 libc_pic.a(mrand48.pico)
 .note.GNU-stack
                0x00000000        0x0 libc_pic.a(lsearch.pico)
 .note.GNU-stack
                0x00000000        0x0 libc_pic.a(lrand48.pico)
 .note.GNU-stack
                0x00000000        0x0 libc_pic.a(lcong48.pico)
 .note.GNU-stack
                0x00000000        0x0 libc_pic.a(lldiv.pico)
 .note.GNU-stack
                0x00000000        0x0 libc_pic.a(l64a.pico)
 .note.GNU-stack
                0x00000000        0x0 libc_pic.a(jrand48.pico)
 .note.GNU-stack
                0x00000000        0x0 libc_pic.a(insque.pico)
 .note.GNU-stack
                0x00000000        0x0 libc_pic.a(imaxdiv.pico)
 .note.GNU-stack
                0x00000000        0x0 libc_pic.a(heapsort.pico)
 .note.GNU-stack
                0x00000000        0x0 libc_pic.a(hcreate.pico)
 .note.GNU-stack
                0x00000000        0x0 libc_pic.a(getsubopt.pico)
 .note.GNU-stack
                0x00000000        0x0 libc_pic.a(getopt_long.pico)
 .note.GNU-stack
                0x00000000        0x0 libc_pic.a(getopt.pico)
 .note.GNU-stack
                0x00000000        0x0 libc_pic.a(drand48.pico)
 .note.GNU-stack
                0x00000000        0x0 libc_pic.a(atoll.pico)
 .note.GNU-stack
                0x00000000        0x0 libc_pic.a(atol.pico)
 .note.GNU-stack
                0x00000000        0x0 libc_pic.a(atof.pico)
 .note.GNU-stack
                0x00000000        0x0 libc_pic.a(a64l.pico)
 .gnu.warning.tmpnam
                0x00000000        0x0 libc_pic.a(tmpnam.pico)
 .note.GNU-stack
                0x00000000        0x0 libc_pic.a(tmpnam.pico)
 .gnu.warning.tempnam
                0x00000000        0x0 libc_pic.a(tempnam.pico)
 .note.GNU-stack
                0x00000000        0x0 libc_pic.a(tempnam.pico)
 .note.GNU-stack
                0x00000000        0x0 libc_pic.a(open_wmemstream.pico)
 .note.GNU-stack
                0x00000000        0x0 libc_pic.a(open_memstream.pico)
 .note.GNU-stack
                0x00000000        0x0 libc_pic.a(fmemopen.pico)
 .note.GNU-stack
                0x00000000        0x0 libc_pic.a(wscanf.pico)
 .note.GNU-stack
                0x00000000        0x0 libc_pic.a(wprintf.pico)
 .note.GNU-stack
                0x00000000        0x0 libc_pic.a(vwscanf.pico)
 .note.GNU-stack
                0x00000000        0x0 libc_pic.a(vwprintf.pico)
 .note.GNU-stack
                0x00000000        0x0 libc_pic.a(vscanf.pico)
 .note.GNU-stack
                0x00000000        0x0 libc_pic.a(vprintf.pico)
 .note.GNU-stack
                0x00000000        0x0 libc_pic.a(tmpfile.pico)
 .note.GNU-stack
                0x00000000        0x0 libc_pic.a(swscanf.pico)
 .note.GNU-stack
                0x00000000        0x0 libc_pic.a(swprintf.pico)
 .note.GNU-stack
                0x00000000        0x0 libc_pic.a(setbuffer.pico)
 .note.GNU-stack
                0x00000000        0x0 libc_pic.a(setbuf.pico)
 .note.GNU-stack
                0x00000000        0x0 libc_pic.a(scanf.pico)
 .note.GNU-stack
                0x00000000        0x0 libc_pic.a(remove.pico)
 .note.GNU-stack
                0x00000000        0x0 libc_pic.a(putwchar.pico)
 .note.GNU-stack
                0x00000000        0x0 libc_pic.a(putwc.pico)
 .note.GNU-stack
                0x00000000        0x0 libc_pic.a(putw.pico)
 .note.GNU-stack
                0x00000000        0x0 libc_pic.a(putc.pico)
 .note.GNU-stack
                0x00000000        0x0 libc_pic.a(mkostemps.pico)
 .note.GNU-stack
                0x00000000        0x0 libc_pic.a(mkostemp.pico)
 .note.GNU-stack
                0x00000000        0x0 libc_pic.a(mkstemps.pico)
 .note.GNU-stack
                0x00000000        0x0 libc_pic.a(mkstemp.pico)
 .note.GNU-stack
                0x00000000        0x0 libc_pic.a(mkdtemp.pico)
 .note.GNU-stack
                0x00000000        0x0 libc_pic.a(getwchar.pico)
 .note.GNU-stack
                0x00000000        0x0 libc_pic.a(getwc.pico)
 .note.GNU-stack
                0x00000000        0x0 libc_pic.a(getw.pico)
 .note.GNU-stack
                0x00000000        0x0 libc_pic.a(getline.pico)
 .note.GNU-stack
                0x00000000        0x0 libc_pic.a(getchar.pico)
 .note.GNU-stack
                0x00000000        0x0 libc_pic.a(getc.pico)
 .note.GNU-stack
                0x00000000        0x0 libc_pic.a(fwscanf.pico)
 .note.GNU-stack
                0x00000000        0x0 libc_pic.a(fwprintf.pico)
 .note.GNU-stack
                0x00000000        0x0 libc_pic.a(fwide.pico)
 .note.GNU-stack
                0x00000000        0x0 libc_pic.a(funopen.pico)
 .note.GNU-stack
                0x00000000        0x0 libc_pic.a(fsetpos.pico)
 .note.GNU-stack
                0x00000000        0x0 libc_pic.a(fscanf.pico)
 .note.GNU-stack
                0x00000000        0x0 libc_pic.a(freopen.pico)
 .note.GNU-stack
                0x00000000        0x0 libc_pic.a(fputws.pico)
 .note.GNU-stack
                0x00000000        0x0 libc_pic.a(fpurge.pico)
 .note.GNU-stack
                0x00000000        0x0 libc_pic.a(flockfile.pico)
 .note.GNU-stack
                0x00000000        0x0 libc_pic.a(fileno.pico)
 .note.GNU-stack
                0x00000000        0x0 libc_pic.a(fgetws.pico)
 .note.GNU-stack
                0x00000000        0x0 libc_pic.a(fgetwln.pico)
 .note.GNU-stack
                0x00000000        0x0 libc_pic.a(fgetpos.pico)
 .note.GNU-stack
                0x00000000        0x0 libc_pic.a(fgetc.pico)
 .note.GNU-stack
                0x00000000        0x0 libc_pic.a(ferror.pico)
 .note.GNU-stack
                0x00000000        0x0 libc_pic.a(feof.pico)
 .note.GNU-stack
                0x00000000        0x0 libc_pic.a(dprintf.pico)
 .note.GNU-stack
                0x00000000        0x0 libc_pic.a(clrerr.pico)
 .note.GNU-stack
                0x00000000        0x0 libc_pic.a(vsprintf_chk.pico)
 .note.GNU-stack
                0x00000000        0x0 libc_pic.a(vsnprintf_chk.pico)
 .note.GNU-stack
                0x00000000        0x0 libc_pic.a(strncpy_chk.pico)
 .note.GNU-stack
                0x00000000        0x0 libc_pic.a(strncat_chk.pico)
 .note.GNU-stack
                0x00000000        0x0 libc_pic.a(strcpy_chk.pico)
 .note.GNU-stack
                0x00000000        0x0 libc_pic.a(strcat_chk.pico)
 .note.GNU-stack
                0x00000000        0x0 libc_pic.a(stpncpy_chk.pico)
 .note.GNU-stack
                0x00000000        0x0 libc_pic.a(stpcpy_chk.pico)
 .note.GNU-stack
                0x00000000        0x0 libc_pic.a(sprintf_chk.pico)
 .note.GNU-stack
                0x00000000        0x0 libc_pic.a(snprintf_chk.pico)
 .note.GNU-stack
                0x00000000        0x0 libc_pic.a(memset_chk.pico)
 .note.GNU-stack
                0x00000000        0x0 libc_pic.a(memmove_chk.pico)
 .note.GNU-stack
                0x00000000        0x0 libc_pic.a(memcpy_chk.pico)
 .note.GNU-stack
                0x00000000        0x0 libc_pic.a(fgets_chk.pico)
 .note.GNU-stack
                0x00000000        0x0 libc_pic.a(gets_chk.pico)
 .note.GNU-stack
                0x00000000        0x0 libc_pic.a(res_state.pico)
 .note.GNU-stack
                0x00000000        0x0 libc_pic.a(herror.pico)
 .note.GNU-stack
                0x00000000        0x0 libc_pic.a(regexec.pico)
 .note.GNU-stack
                0x00000000        0x0 libc_pic.a(regerror.pico)
 .note.GNU-stack
                0x00000000        0x0 libc_pic.a(regcomp.pico)
 .note.GNU-stack
                0x00000000        0x0 libc_pic.a(if_nameindex.pico)
 .note.GNU-stack
                0x00000000        0x0 libc_pic.a(inet6_scopeid.pico)
 .note.GNU-stack
                0x00000000        0x0 libc_pic.a(vars6.pico)
 .note.GNU-stack
                0x00000000        0x0 libc_pic.a(rthdr.pico)
 .note.GNU-stack
                0x00000000        0x0 libc_pic.a(ip6opt.pico)
 .note.GNU-stack
                0x00000000        0x0 libc_pic.a(sockatmark.pico)
 .note.GNU-stack
                0x00000000        0x0 libc_pic.a(recv.pico)
 .note.GNU-stack
                0x00000000        0x0 libc_pic.a(rcmd.pico)
 .note.GNU-stack
                0x00000000        0x0 libc_pic.a(linkaddr.pico)
 .note.GNU-stack
                0x00000000        0x0 libc_pic.a(iso_addr.pico)
 .note.GNU-stack
                0x00000000        0x0 libc_pic.a(getservent.pico)
 .note.GNU-stack
                0x00000000        0x0 libc_pic.a(getservbyport.pico)
 .note.GNU-stack
                0x00000000        0x0 libc_pic.a(getservbyname.pico)
 .note.GNU-stack
                0x00000000        0x0 libc_pic.a(getprotoent.pico)
 .note.GNU-stack
                0x00000000        0x0 libc_pic.a(getprotobynumber.pico)
 .note.GNU-stack
                0x00000000        0x0 libc_pic.a(getprotobyname.pico)
 .note.GNU-stack
                0x00000000        0x0 libc_pic.a(getpeereid.pico)
 .note.GNU-stack
                0x00000000        0x0 libc_pic.a(getnetnamadr.pico)
 .note.GNU-stack
                0x00000000        0x0 libc_pic.a(ethers.pico)
 .note.GNU-stack
                0x00000000        0x0 libc_pic.a(initfini.pico)
 .note.GNU-stack
                0x00000000        0x0 libc_pic.a(md5hl.pico)
 .note.GNU-stack
                0x00000000        0x0 libc_pic.a(md4hl.pico)
 .note.GNU-stack
                0x00000000        0x0 libc_pic.a(md4c.pico)
 .note.GNU-stack
                0x00000000        0x0 libc_pic.a(wcsftime.pico)
 .note.GNU-stack
                0x00000000        0x0 libc_pic.a(wcsxfrm.pico)
 .note.GNU-stack
                0x00000000        0x0 libc_pic.a(wcscoll.pico)
 .note.GNU-stack
                0x00000000        0x0 libc_pic.a(wcstoull.pico)
 .note.GNU-stack
                0x00000000        0x0 libc_pic.a(wcstoul.pico)
 .note.GNU-stack
                0x00000000        0x0 libc_pic.a(wcstoll.pico)
 .note.GNU-stack
                0x00000000        0x0 libc_pic.a(wcstol.pico)
 .note.GNU-stack
                0x00000000        0x0 libc_pic.a(nl_langinfo.pico)
 .note.GNU-stack
                0x00000000        0x0 libc_pic.a(newlocale.pico)
 .note.GNU-stack
                0x00000000        0x0 libc_pic.a(freelocale.pico)
 .note.GNU-stack
                0x00000000        0x0 libc_pic.a(duplocale.pico)
 .note.GNU-stack
                0x00000000        0x0 libc_pic.a(assertions.pico)
 .note.GNU-stack
                0x00000000        0x0 libc_pic.a(inet_ntoa.pico)
 .note.GNU-stack
                0x00000000        0x0 libc_pic.a(inet_netof.pico)
 .note.GNU-stack
                0x00000000        0x0 libc_pic.a(inet_neta.pico)
 .note.GNU-stack
                0x00000000        0x0 libc_pic.a(inet_net_pton.pico)
 .note.GNU-stack
                0x00000000        0x0 libc_pic.a(inet_net_ntop.pico)
 .note.GNU-stack
                0x00000000        0x0 libc_pic.a(inet_makeaddr.pico)
 .note.GNU-stack
                0x00000000        0x0 libc_pic.a(inet_lnaof.pico)
 .note.GNU-stack
                0x00000000        0x0 libc_pic.a(inet_cidr_pton.pico)
 .note.GNU-stack
                0x00000000        0x0 libc_pic.a(inet_cidr_ntop.pico)
 .note.GNU-stack
                0x00000000        0x0 libc_pic.a(iconv.pico)
 .note.GNU-stack
                0x00000000        0x0 libc_pic.a(murmurhash.pico)
 .note.GNU-stack
                0x00000000        0x0 libc_pic.a(sha512hl.pico)
 .note.GNU-stack
                0x00000000        0x0 libc_pic.a(sha384hl.pico)
 .note.GNU-stack
                0x00000000        0x0 libc_pic.a(sha256hl.pico)
 .note.GNU-stack
                0x00000000        0x0 libc_pic.a(sha224hl.pico)
 .note.GNU-stack
                0x00000000        0x0 libc_pic.a(sha1hl.pico)
 .note.GNU-stack
                0x00000000        0x0 libc_pic.a(sha1.pico)
 .note.GNU-stack
                0x00000000        0x0 libc_pic.a(rmd160hl.pico)
 .note.GNU-stack
                0x00000000        0x0 libc_pic.a(rmd160.pico)
 .note.GNU-stack
                0x00000000        0x0 libc_pic.a(md2hl.pico)
 .note.GNU-stack
                0x00000000        0x0 libc_pic.a(md2.pico)
 .note.GNU-stack
                0x00000000        0x0 libc_pic.a(signbitl.pico)
 .note.GNU-stack
                0x00000000        0x0 libc_pic.a(isnanl.pico)
 .note.GNU-stack
                0x00000000        0x0 libc_pic.a(isinfl.pico)
 .note.GNU-stack
                0x00000000        0x0 libc_pic.a(isfinitel.pico)
 .note.GNU-stack
                0x00000000        0x0 libc_pic.a(infinityl.pico)
 .gnu.warning.__nanf
                0x00000000        0x0 libc_pic.a(nanf.pico)
 .note.GNU-stack
                0x00000000        0x0 libc_pic.a(nanf.pico)
 .note.GNU-stack
                0x00000000        0x0 libc_pic.a(signbitd_ieee754.pico)
 .note.GNU-stack
                0x00000000        0x0 libc_pic.a(signbitf_ieee754.pico)
 .note.GNU-stack
                0x00000000        0x0 libc_pic.a(isfinited_ieee754.pico)
 .note.GNU-stack
                0x00000000        0x0 libc_pic.a(isfinitef_ieee754.pico)
 .note.GNU-stack
                0x00000000        0x0 libc_pic.a(isnand_ieee754.pico)
 .note.GNU-stack
                0x00000000        0x0 libc_pic.a(isnanf_ieee754.pico)
 .note.GNU-stack
                0x00000000        0x0 libc_pic.a(isinfd_ieee754.pico)
 .note.GNU-stack
                0x00000000        0x0 libc_pic.a(isinff_ieee754.pico)
 .note.GNU-stack
                0x00000000        0x0 libc_pic.a(fpclassifyf_ieee754.pico)
 .note.GNU-stack
                0x00000000        0x0 libc_pic.a(infinity_ieee754.pico)
 .note.GNU-stack
                0x00000000        0x0 libc_pic.a(infinityf_ieee754.pico)
 .note.GNU-stack
                0x00000000        0x0 libc_pic.a(wordexp.pico)
 .note.GNU-stack
                0x00000000        0x0 libc_pic.a(warnc.pico)
 .note.GNU-stack
                0x00000000        0x0 libc_pic.a(wait.pico)
 .note.GNU-stack
                0x00000000        0x0 libc_pic.a(valloc.pico)
 .note.GNU-stack
                0x00000000        0x0 libc_pic.a(utimens.pico)
 .note.GNU-stack
                0x00000000        0x0 libc_pic.a(utime.pico)
 .note.GNU-stack
                0x00000000        0x0 libc_pic.a(uname.pico)
 .note.GNU-stack
                0x00000000        0x0 libc_pic.a(ulimit.pico)
 .note.GNU-stack
                0x00000000        0x0 libc_pic.a(ualarm.pico)
 .note.GNU-stack
                0x00000000        0x0 libc_pic.a(ttyslot.pico)
 .note.GNU-stack
                0x00000000        0x0 libc_pic.a(ttyname.pico)
 .note.GNU-stack
                0x00000000        0x0 libc_pic.a(toascii.pico)
 .note.GNU-stack
                0x00000000        0x0 libc_pic.a(time.pico)
 .note.GNU-stack
                0x00000000        0x0 libc_pic.a(sysctlnametomib.pico)
 .note.GNU-stack
                0x00000000        0x0 libc_pic.a(sigsetops.pico)
 .note.GNU-stack
                0x00000000        0x0 libc_pic.a(sigset.pico)
 .note.GNU-stack
                0x00000000        0x0 libc_pic.a(sigrelse.pico)
 .note.GNU-stack
                0x00000000        0x0 libc_pic.a(signame.pico)
 .note.GNU-stack
                0x00000000        0x0 libc_pic.a(siginterrupt.pico)
 .note.GNU-stack
                0x00000000        0x0 libc_pic.a(sigignore.pico)
 .note.GNU-stack
                0x00000000        0x0 libc_pic.a(sighold.pico)
 .note.GNU-stack
                0x00000000        0x0 libc_pic.a(shquotev.pico)
 .note.GNU-stack
                0x00000000        0x0 libc_pic.a(shquote.pico)
 .note.GNU-stack
                0x00000000        0x0 libc_pic.a(setprogname.pico)
 .note.GNU-stack
                0x00000000        0x0 libc_pic.a(setproctitle.pico)
 .note.GNU-stack
                0x00000000        0x0 libc_pic.a(setmode.pico)
 .note.GNU-stack
                0x00000000        0x0 libc_pic.a(setjmperr.pico)
 .note.GNU-stack
                0x00000000        0x0 libc_pic.a(sethostname.pico)
 .note.GNU-stack
                0x00000000        0x0 libc_pic.a(setdomainname.pico)
 .note.GNU-stack
                0x00000000        0x0 libc_pic.a(seekdir.pico)
 .note.GNU-stack
                0x00000000        0x0 libc_pic.a(scandir.pico)
 .note.GNU-stack
                0x00000000        0x0 libc_pic.a(randomid.pico)
 .note.GNU-stack
                0x00000000        0x0 libc_pic.a(pw_scan.pico)
 .note.GNU-stack
                0x00000000        0x0 libc_pic.a(ptree.pico)
 .note.GNU-stack
                0x00000000        0x0 libc_pic.a(psignal.pico)
 .note.GNU-stack
                0x00000000        0x0 libc_pic.a(posix_spawnp.pico)
 .note.GNU-stack
                0x00000000        0x0 libc_pic.a(posix_spawn_fileactions.pico)
 .note.GNU-stack
                0x00000000        0x0 libc_pic.a(posix_spawn_sched.pico)
 .note.GNU-stack
                0x00000000        0x0 libc_pic.a(popen.pico)
 .note.GNU-stack
                0x00000000        0x0 libc_pic.a(pause.pico)
 .note.GNU-stack
                0x00000000        0x0 libc_pic.a(nlist_elf64.pico)
 .note.GNU-stack
                0x00000000        0x0 libc_pic.a(nlist_ecoff.pico)
 .note.GNU-stack
                0x00000000        0x0 libc_pic.a(nlist_coff.pico)
 .note.GNU-stack
                0x00000000        0x0 libc_pic.a(nlist.pico)
 .note.GNU-stack
                0x00000000        0x0 libc_pic.a(nice.pico)
 .note.GNU-stack
                0x00000000        0x0 libc_pic.a(nftw.pico)
 .note.GNU-stack
                0x00000000        0x0 libc_pic.a(isascii.pico)
 .note.GNU-stack
                0x00000000        0x0 libc_pic.a(initgroups.pico)
 .note.GNU-stack
                0x00000000        0x0 libc_pic.a(humanize_number.pico)
 .note.GNU-stack
                0x00000000        0x0 libc_pic.a(glob.pico)
 .note.GNU-stack
                0x00000000        0x0 libc_pic.a(getusershell.pico)
 .note.GNU-stack
                0x00000000        0x0 libc_pic.a(getttyent.pico)
 .note.GNU-stack
                0x00000000        0x0 libc_pic.a(getpass.pico)
 .note.GNU-stack
                0x00000000        0x0 libc_pic.a(getmntinfo.pico)
 .note.GNU-stack
                0x00000000        0x0 libc_pic.a(getlogin.pico)
 .note.GNU-stack
                0x00000000        0x0 libc_pic.a(getloadavg.pico)
 .note.GNU-stack
                0x00000000        0x0 libc_pic.a(getgrouplist.pico)
 .note.GNU-stack
                0x00000000        0x0 libc_pic.a(getdomainname.pico)
 .note.GNU-stack
                0x00000000        0x0 libc_pic.a(getcap.pico)
 .note.GNU-stack
                0x00000000        0x0 libc_pic.a(getbsize.pico)
 .note.GNU-stack
                0x00000000        0x0 libc_pic.a(ftw.pico)
 .note.GNU-stack
                0x00000000        0x0 libc_pic.a(ftok.pico)
 .note.GNU-stack
                0x00000000        0x0 libc_pic.a(fstab.pico)
 .note.GNU-stack
                0x00000000        0x0 libc_pic.a(fnmatch.pico)
 .note.GNU-stack
                0x00000000        0x0 libc_pic.a(fmtmsg.pico)
 .note.GNU-stack
                0x00000000        0x0 libc_pic.a(fmtcheck.pico)
 .note.GNU-stack
                0x00000000        0x0 libc_pic.a(execv.pico)
 .note.GNU-stack
                0x00000000        0x0 libc_pic.a(execlp.pico)
 .note.GNU-stack
                0x00000000        0x0 libc_pic.a(execle.pico)
 .note.GNU-stack
                0x00000000        0x0 libc_pic.a(errno.pico)
 .note.GNU-stack
                0x00000000        0x0 libc_pic.a(errc.pico)
 .note.GNU-stack
                0x00000000        0x0 libc_pic.a(errx.pico)
 .note.GNU-stack
                0x00000000        0x0 libc_pic.a(err.pico)
 .note.GNU-stack
                0x00000000        0x0 libc_pic.a(dirname.pico)
 .note.GNU-stack
                0x00000000        0x0 libc_pic.a(dehumanize_number.pico)
 .note.GNU-stack
                0x00000000        0x0 libc_pic.a(daemon.pico)
 .note.GNU-stack
                0x00000000        0x0 libc_pic.a(ctermid.pico)
 .note.GNU-stack
                0x00000000        0x0 libc_pic.a(clock.pico)
 .note.GNU-stack
                0x00000000        0x0 libc_pic.a(basename.pico)
 .note.GNU-stack
                0x00000000        0x0 libc_pic.a(asysctl.pico)
 .note.GNU-stack
                0x00000000        0x0 libc_pic.a(alarm.pico)
 .note.GNU-stack
                0x00000000        0x0 libc_pic.a(fslib.pico)
 .note.GNU-stack
                0x00000000        0x0 libc_pic.a(read_tsc_64.pico)
 .note.GNU-stack
                0x00000000        0x0 libc_pic.a(itoa.pico)
 .note.GNU-stack
                0x00000000        0x0 libc_pic.a(gcov.pico)
 .note.GNU-stack
                0x00000000        0x0 libc_pic.a(fsversion.pico)
 .note.GNU-stack
                0x00000000        0x0 libc_pic.a(dlfcn_elf.pico)
 .group         0x00000000        0x8 libc_pic.a(InstrProfilingFile.pico)
 .group         0x00000000        0x8 libc_pic.a(InstrProfilingFile.pico)
 .note.GNU-stack
                0x00000000        0x0 libc_pic.a(InstrProfilingFile.pico)
 .note.GNU-stack
                0x00000000        0x0 libc_pic.a(InstrProfilingBuffer.pico)
 .note.GNU-stack
                0x00000000        0x0 libc_pic.a(InstrProfiling.pico)
 .note.GNU-stack
                0x00000000        0x0 libc_pic.a(GCDAProfiling.pico)
 .note.GNU-stack
                0x00000000        0x0 libc_pic.a(udivmoddi4.pico)
 .note.GNU-stack
                0x00000000        0x0 libc_pic.a(ucmpdi2.pico)
 .note.GNU-stack
                0x00000000        0x0 libc_pic.a(negdi2.pico)
 .note.GNU-stack
                0x00000000        0x0 libc_pic.a(divmoddi4.pico)
 .note.GNU-stack
                0x00000000        0x0 libc_pic.a(cmpdi2.pico)
 .note.GNU-stack
                0x00000000        0x0 libc_pic.a(ffsdi2.pico)
 .note.GNU-stack
                0x00000000        0x0 libc_pic.a(ctzdi2.pico)
 .note.GNU-stack
                0x00000000        0x0 libc_pic.a(clzdi2.pico)
 .note.GNU-stack
                0x00000000        0x0 libc_pic.a(subvdi3.pico)
 .note.GNU-stack
                0x00000000        0x0 libc_pic.a(popcountdi2.pico)
 .note.GNU-stack
                0x00000000        0x0 libc_pic.a(paritydi2.pico)
 .note.GNU-stack
                0x00000000        0x0 libc_pic.a(negvdi2.pico)
 .note.GNU-stack
                0x00000000        0x0 libc_pic.a(mulvdi3.pico)
 .note.GNU-stack
                0x00000000        0x0 libc_pic.a(mulodi4.pico)
 .note.GNU-stack
                0x00000000        0x0 libc_pic.a(addvdi3.pico)
 .note.GNU-stack
                0x00000000        0x0 libc_pic.a(absvdi2.pico)
 .note.GNU-stack
                0x00000000        0x0 libc_pic.a(umodsi3.pico)
 .note.GNU-stack
                0x00000000        0x0 libc_pic.a(udivmodsi4.pico)
 .note.GNU-stack
                0x00000000        0x0 libc_pic.a(modsi3.pico)
 .note.GNU-stack
                0x00000000        0x0 libc_pic.a(divmodsi4.pico)
 .note.GNU-stack
                0x00000000        0x0 libc_pic.a(ctzsi2.pico)
 .note.GNU-stack
                0x00000000        0x0 libc_pic.a(clzsi2.pico)
 .note.GNU-stack
                0x00000000        0x0 libc_pic.a(floatuntixf.pico)
 .note.GNU-stack
                0x00000000        0x0 libc_pic.a(floatuntisf.pico)
 .note.GNU-stack
                0x00000000        0x0 libc_pic.a(floatuntidf.pico)
 .note.GNU-stack
                0x00000000        0x0 libc_pic.a(floattixf.pico)
 .note.GNU-stack
                0x00000000        0x0 libc_pic.a(floattisf.pico)
 .note.GNU-stack
                0x00000000        0x0 libc_pic.a(floattidf.pico)
 .note.GNU-stack
                0x00000000        0x0 libc_pic.a(fixxfti.pico)
 .note.GNU-stack
                0x00000000        0x0 libc_pic.a(fixunsxfti.pico)
 .note.GNU-stack
                0x00000000        0x0 libc_pic.a(fixunssfti.pico)
 .note.GNU-stack
                0x00000000        0x0 libc_pic.a(fixunsdfti.pico)
 .note.GNU-stack
                0x00000000        0x0 libc_pic.a(umodti3.pico)
 .note.GNU-stack
                0x00000000        0x0 libc_pic.a(udivti3.pico)
 .note.GNU-stack
                0x00000000        0x0 libc_pic.a(udivmodti4.pico)
 .note.GNU-stack
                0x00000000        0x0 libc_pic.a(ucmpti2.pico)
 .note.GNU-stack
                0x00000000        0x0 libc_pic.a(subvti3.pico)
 .note.GNU-stack
                0x00000000        0x0 libc_pic.a(subvsi3.pico)
 .note.GNU-stack
                0x00000000        0x0 libc_pic.a(powixf2.pico)
 .note.GNU-stack
                0x00000000        0x0 libc_pic.a(powitf2.pico)
 .note.GNU-stack
                0x00000000        0x0 libc_pic.a(powisf2.pico)
 .note.GNU-stack
                0x00000000        0x0 libc_pic.a(powidf2.pico)
 .note.GNU-stack
                0x00000000        0x0 libc_pic.a(popcountti2.pico)
 .note.GNU-stack
                0x00000000        0x0 libc_pic.a(popcountsi2.pico)
 .note.GNU-stack
                0x00000000        0x0 libc_pic.a(parityti2.pico)
 .note.GNU-stack
                0x00000000        0x0 libc_pic.a(paritysi2.pico)
 .note.GNU-stack
                0x00000000        0x0 libc_pic.a(negvti2.pico)
 .note.GNU-stack
                0x00000000        0x0 libc_pic.a(negvsi2.pico)
 .note.GNU-stack
                0x00000000        0x0 libc_pic.a(negti2.pico)
 .note.GNU-stack
                0x00000000        0x0 libc_pic.a(negsf2.pico)
 .note.GNU-stack
                0x00000000        0x0 libc_pic.a(negdf2.pico)
 .note.GNU-stack
                0x00000000        0x0 libc_pic.a(mulvti3.pico)
 .note.GNU-stack
                0x00000000        0x0 libc_pic.a(mulvsi3.pico)
 .note.GNU-stack
                0x00000000        0x0 libc_pic.a(multi3.pico)
 .note.GNU-stack
                0x00000000        0x0 libc_pic.a(muloti4.pico)
 .note.GNU-stack
                0x00000000        0x0 libc_pic.a(mulosi4.pico)
 .note.GNU-stack
                0x00000000        0x0 libc_pic.a(muldc3.pico)
 .note.GNU-stack
                0x00000000        0x0 libc_pic.a(modti3.pico)
 .note.GNU-stack
                0x00000000        0x0 libc_pic.a(lshrti3.pico)
 .group         0x00000000        0x8 libc_pic.a(int_util.pico)
 .note.GNU-stack
                0x00000000        0x0 libc_pic.a(int_util.pico)
 .note.GNU-stack
                0x00000000        0x0 libc_pic.a(fixxfdi.pico)
 .note.GNU-stack
                0x00000000        0x0 libc_pic.a(fixunsxfsi.pico)
 .note.GNU-stack
                0x00000000        0x0 libc_pic.a(fixunsxfdi.pico)
 .note.GNU-stack
                0x00000000        0x0 libc_pic.a(fixunssfsi.pico)
 .note.GNU-stack
                0x00000000        0x0 libc_pic.a(fixunssfdi.pico)
 .note.GNU-stack
                0x00000000        0x0 libc_pic.a(fixunsdfdi.pico)
 .note.GNU-stack
                0x00000000        0x0 libc_pic.a(fixdfdi.pico)
 .note.GNU-stack
                0x00000000        0x0 libc_pic.a(fixsfdi.pico)
 .note.GNU-stack
                0x00000000        0x0 libc_pic.a(ffsti2.pico)
 .note.GNU-stack
                0x00000000        0x0 libc_pic.a(divti3.pico)
 .note.GNU-stack
                0x00000000        0x0 libc_pic.a(ctzti2.pico)
 .note.GNU-stack
                0x00000000        0x0 libc_pic.a(cmpti2.pico)
 .note.GNU-stack
                0x00000000        0x0 libc_pic.a(clzti2.pico)
 .note.GNU-stack
                0x00000000        0x0 libc_pic.a(ashrti3.pico)
 .note.GNU-stack
                0x00000000        0x0 libc_pic.a(ashlti3.pico)
 .note.GNU-stack
                0x00000000        0x0 libc_pic.a(addvti3.pico)
 .note.GNU-stack
                0x00000000        0x0 libc_pic.a(addvsi3.pico)
 .note.GNU-stack
                0x00000000        0x0 libc_pic.a(absvti2.pico)
 .note.GNU-stack
                0x00000000        0x0 libc_pic.a(absvsi2.pico)
 .note.GNU-stack
                0x00000000        0x0 libc_pic.a(gcc_personality_v0.pico)
 .gnu.warning.getwd
                0x00000000        0x0 libc_pic.a(getwd.pico)
 .note.GNU-stack
                0x00000000        0x0 libc_pic.a(getwd.pico)
 .note.GNU-stack
                0x00000000        0x0 libc_pic.a(sigcompat.pico)
 .note.GNU-stack
                0x00000000        0x0 libc_pic.a(setpgrp.pico)
 .note.GNU-stack
                0x00000000        0x0 libc_pic.a(sethostid.pico)
 .note.GNU-stack
                0x00000000        0x0 libc_pic.a(killpg.pico)
 .note.GNU-stack
                0x00000000        0x0 libc_pic.a(gethostid.pico)
 .note.GNU-stack
                0x00000000        0x0 libc_pic.a(getdtablesize.pico)
 .note.GNU-stack
                0x00000000        0x0 libc_pic.a(creat.pico)
 .note.GNU-stack
                0x00000000        0x0 libc_pic.a(citrus_stdenc.pico)
 .note.GNU-stack
                0x00000000        0x0 libc_pic.a(citrus_iconv.pico)
 .note.GNU-stack
                0x00000000        0x0 libc_pic.a(citrus_esdb.pico)
 .note.GNU-stack
                0x00000000        0x0 libc_pic.a(citrus_ctype_fallback.pico)
 .note.GNU-stack
                0x00000000        0x0 libc_pic.a(citrus_csmapper.pico)
 .note.GNU-stack
                0x00000000        0x0 libc_pic.a(citrus_bcs_strtoul.pico)
 .note.GNU-stack
                0x00000000        0x0 libc_pic.a(ndbm.pico)
 .note.GNU-stack
                0x00000000        0x0 libc_pic.a(ndbmdatum.pico)
 .note.GNU-stack
                0x00000000        0x0 libc_pic.a(bt_debug.pico)
 .note.GNU-stack
                0x00000000        0x0 libc_pic.a(cdbw.pico)
 .note.GNU-stack
                0x00000000        0x0 libc_pic.a(atomic_init_cas.pico)
 .note.GNU-stack
                0x00000000        0x0 libc_pic.a(atomic_cas_64_cas.pico)
 .note.GNU-stack
                0x00000000        0x0 libc_pic.a(atomic_sub_64_cas.pico)
 .note.GNU-stack
                0x00000000        0x0 libc_pic.a(atomic_xor_64_cas.pico)
 .note.GNU-stack
                0x00000000        0x0 libc_pic.a(atomic_nand_64_cas.pico)
 .note.GNU-stack
                0x00000000        0x0 libc_pic.a(atomic_swap_64_cas.pico)
 .note.GNU-stack
                0x00000000        0x0 libc_pic.a(atomic_or_64_nv_cas.pico)
 .note.GNU-stack
                0x00000000        0x0 libc_pic.a(atomic_or_64_cas.pico)
 .note.GNU-stack
                0x00000000        0x0 libc_pic.a(atomic_inc_64_nv_cas.pico)
 .note.GNU-stack
                0x00000000        0x0 libc_pic.a(atomic_inc_64_cas.pico)
 .note.GNU-stack
                0x00000000        0x0 libc_pic.a(atomic_dec_64_nv_cas.pico)
 .note.GNU-stack
                0x00000000        0x0 libc_pic.a(atomic_dec_64_cas.pico)
 .note.GNU-stack
                0x00000000        0x0 libc_pic.a(atomic_and_64_nv_cas.pico)
 .note.GNU-stack
                0x00000000        0x0 libc_pic.a(atomic_and_64_cas.pico)
 .note.GNU-stack
                0x00000000        0x0 libc_pic.a(atomic_add_64_nv_cas.pico)
 .note.GNU-stack
                0x00000000        0x0 libc_pic.a(atomic_add_64_cas.pico)
 .note.GNU-stack
                0x00000000        0x0 libc_pic.a(compat_difftime.pico)
 .gnu.warning.ctime_r
                0x00000000        0x0 libc_pic.a(compat_localtime.pico)
 .gnu.warning.ctime_rz
                0x00000000        0x0 libc_pic.a(compat_localtime.pico)
 .gnu.warning.gmtime_r
                0x00000000        0x0 libc_pic.a(compat_localtime.pico)
 .gnu.warning.localtime_r
                0x00000000        0x0 libc_pic.a(compat_localtime.pico)
 .gnu.warning.localtime_rz
                0x00000000        0x0 libc_pic.a(compat_localtime.pico)
 .gnu.warning.mktime_z
                0x00000000        0x0 libc_pic.a(compat_localtime.pico)
 .gnu.warning.offtime
                0x00000000        0x0 libc_pic.a(compat_localtime.pico)
 .gnu.warning.posix2time
                0x00000000        0x0 libc_pic.a(compat_localtime.pico)
 .gnu.warning.posix2time_z
                0x00000000        0x0 libc_pic.a(compat_localtime.pico)
 .gnu.warning.time2posix
                0x00000000        0x0 libc_pic.a(compat_localtime.pico)
 .gnu.warning.timegm
                0x00000000        0x0 libc_pic.a(compat_localtime.pico)
 .gnu.warning.timelocal
                0x00000000        0x0 libc_pic.a(compat_localtime.pico)
 .gnu.warning.timeoff
                0x00000000        0x0 libc_pic.a(compat_localtime.pico)
 .gnu.warning.tzset
                0x00000000        0x0 libc_pic.a(compat_localtime.pico)
 .gnu.warning.tzsetwall
                0x00000000        0x0 libc_pic.a(compat_localtime.pico)
 .note.GNU-stack
                0x00000000        0x0 libc_pic.a(compat_localtime.pico)
 .gnu.warning.__shmctl13
                0x00000000        0x0 libc_pic.a(compat___shmctl13.pico)
 .note.GNU-stack
                0x00000000        0x0 libc_pic.a(compat___shmctl13.pico)
 .gnu.warning.mknod
                0x00000000        0x0 libc_pic.a(compat_mknod.pico)
 .note.GNU-stack
                0x00000000        0x0 libc_pic.a(compat_mknod.pico)
 .gnu.warning.adjtime
                0x00000000        0x0 libc_pic.a(compat_adjtime.pico)
 .note.GNU-stack
                0x00000000        0x0 libc_pic.a(compat_adjtime.pico)
 .gnu.warning.nanosleep
                0x00000000        0x0 libc_pic.a(compat_nanosleep.pico)
 .note.GNU-stack
                0x00000000        0x0 libc_pic.a(compat_nanosleep.pico)
 .gnu.warning.getitimer
                0x00000000        0x0 libc_pic.a(compat_itimer.pico)
 .gnu.warning.setitimer
                0x00000000        0x0 libc_pic.a(compat_itimer.pico)
 .note.GNU-stack
                0x00000000        0x0 libc_pic.a(compat_itimer.pico)
 .gnu.warning.clock_gettime
                0x00000000        0x0 libc_pic.a(compat_clock.pico)
 .gnu.warning.clock_settime
                0x00000000        0x0 libc_pic.a(compat_clock.pico)
 .gnu.warning.clock_getres
                0x00000000        0x0 libc_pic.a(compat_clock.pico)
 .note.GNU-stack
                0x00000000        0x0 libc_pic.a(compat_clock.pico)
 .gnu.warning.settimeofday
                0x00000000        0x0 libc_pic.a(compat_settimeofday.pico)
 .note.GNU-stack
                0x00000000        0x0 libc_pic.a(compat_settimeofday.pico)
 .gnu.warning.wait3
                0x00000000        0x0 libc_pic.a(compat_wait4.pico)
 .gnu.warning.wait4
                0x00000000        0x0 libc_pic.a(compat_wait4.pico)
 .note.GNU-stack
                0x00000000        0x0 libc_pic.a(compat_wait4.pico)
 .gnu.warning.utimes
                0x00000000        0x0 libc_pic.a(compat_utimes.pico)
 .gnu.warning.lutimes
                0x00000000        0x0 libc_pic.a(compat_utimes.pico)
 .gnu.warning.futimes
                0x00000000        0x0 libc_pic.a(compat_utimes.pico)
 .note.GNU-stack
                0x00000000        0x0 libc_pic.a(compat_utimes.pico)
 .gnu.warning.socket
                0x00000000        0x0 libc_pic.a(compat_socket.pico)
 .note.GNU-stack
                0x00000000        0x0 libc_pic.a(compat_socket.pico)
 .gnu.warning.sched_rr_get_interval
                0x00000000        0x0 libc_pic.a(compat_sched.pico)
 .note.GNU-stack
                0x00000000        0x0 libc_pic.a(compat_sched.pico)
 .gnu.warning.getdirentries
                0x00000000        0x0 libc_pic.a(compat_getdirentries.pico)
 .note.GNU-stack
                0x00000000        0x0 libc_pic.a(compat_getdirentries.pico)
 .note.GNU-stack
                0x00000000        0x0 libc_pic.a(compat_getdents.pico)
 .gnu.warning.unsetenv
                0x00000000        0x0 libc_pic.a(compat_unsetenv.pico)
 .note.GNU-stack
                0x00000000        0x0 libc_pic.a(compat_unsetenv.pico)
 .gnu.warning.initstate
                0x00000000        0x0 libc_pic.a(compat_random.pico)
 .gnu.warning.srandom
                0x00000000        0x0 libc_pic.a(compat_random.pico)
 .note.GNU-stack
                0x00000000        0x0 libc_pic.a(compat_random.pico)
 .gnu.warning.putenv
                0x00000000        0x0 libc_pic.a(compat_putenv.pico)
 .note.GNU-stack
                0x00000000        0x0 libc_pic.a(compat_putenv.pico)
 .gnu.warning.fsetpos
                0x00000000        0x0 libc_pic.a(compat_fsetpos.pico)
 .note.GNU-stack
                0x00000000        0x0 libc_pic.a(compat_fsetpos.pico)
 .gnu.warning.fgetpos
                0x00000000        0x0 libc_pic.a(compat_fgetpos.pico)
 .note.GNU-stack
                0x00000000        0x0 libc_pic.a(compat_fgetpos.pico)
 .note.GNU-stack
                0x00000000        0x0 libc_pic.a(compat_ns_ntoa.pico)
 .note.GNU-stack
                0x00000000        0x0 libc_pic.a(compat_ns_addr.pico)
 .note.GNU-stack
                0x00000000        0x0 libc_pic.a(__cmsg_alignbytes.pico)
 .gnu.warning.alloca
                0x00000000        0x0 libc_pic.a(compat_alloca.pico)
 .note.GNU-stack
                0x00000000        0x0 libc_pic.a(compat_alloca.pico)
 .gnu.warning.closelog_r
                0x00000000        0x0 libc_pic.a(compat_syslog.pico)
 .gnu.warning.openlog_r
                0x00000000        0x0 libc_pic.a(compat_syslog.pico)
 .gnu.warning.setlogmask_r
                0x00000000        0x0 libc_pic.a(compat_syslog.pico)
 .gnu.warning.syslog_r
                0x00000000        0x0 libc_pic.a(compat_syslog.pico)
 .gnu.warning.vsyslog_r
                0x00000000        0x0 libc_pic.a(compat_syslog.pico)
 .gnu.warning.syslogp_r
                0x00000000        0x0 libc_pic.a(compat_syslog.pico)
 .gnu.warning.vsyslogp_r
                0x00000000        0x0 libc_pic.a(compat_syslog.pico)
 .note.GNU-stack
                0x00000000        0x0 libc_pic.a(compat_syslog.pico)
 .gnu.warning.__unvis13
                0x00000000        0x0 libc_pic.a(compat___unvis13.pico)
 .note.GNU-stack
                0x00000000        0x0 libc_pic.a(compat___unvis13.pico)
 .gnu.warning.__fts_children50
                0x00000000        0x0 libc_pic.a(compat___fts50.pico)
 .gnu.warning.__fts_close50
                0x00000000        0x0 libc_pic.a(compat___fts50.pico)
 .gnu.warning.__fts_open50
                0x00000000        0x0 libc_pic.a(compat___fts50.pico)
 .gnu.warning.__fts_read50
                0x00000000        0x0 libc_pic.a(compat___fts50.pico)
 .gnu.warning.__fts_set50
                0x00000000        0x0 libc_pic.a(compat___fts50.pico)
 .note.GNU-stack
                0x00000000        0x0 libc_pic.a(compat___fts50.pico)
 .gnu.warning.getutent
                0x00000000        0x0 libc_pic.a(compat_utmp.pico)
 .note.GNU-stack
                0x00000000        0x0 libc_pic.a(compat_utmp.pico)
 .gnu.warning.getpwuid
                0x00000000        0x0 libc_pic.a(compat_getpwent.pico)
 .gnu.warning.getpwnam
                0x00000000        0x0 libc_pic.a(compat_getpwent.pico)
 .gnu.warning.getpwnam_r
                0x00000000        0x0 libc_pic.a(compat_getpwent.pico)
 .gnu.warning.getpwuid_r
                0x00000000        0x0 libc_pic.a(compat_getpwent.pico)
 .gnu.warning.getpwent
                0x00000000        0x0 libc_pic.a(compat_getpwent.pico)
 .gnu.warning.getpwent_r
                0x00000000        0x0 libc_pic.a(compat_getpwent.pico)
 .gnu.warning.pwcache_userdb
                0x00000000        0x0 libc_pic.a(compat_getpwent.pico)
 .note.GNU-stack
                0x00000000        0x0 libc_pic.a(compat_getpwent.pico)
 .gnu.warning.alphasort
                0x00000000        0x0 libc_pic.a(compat_alphasort.pico)
 .note.GNU-stack
                0x00000000        0x0 libc_pic.a(compat_alphasort.pico)
 .gnu.warning.devname
                0x00000000        0x0 libc_pic.a(compat_devname.pico)
 .note.GNU-stack
                0x00000000        0x0 libc_pic.a(compat_devname.pico)
 .gnu.warning.utime
                0x00000000        0x0 libc_pic.a(compat_utime.pico)
 .note.GNU-stack
                0x00000000        0x0 libc_pic.a(compat_utime.pico)
 .gnu.warning.time
                0x00000000        0x0 libc_pic.a(compat_time.pico)
 .note.GNU-stack
                0x00000000        0x0 libc_pic.a(compat_time.pico)
 .gnu.warning.getutxent
                0x00000000        0x0 libc_pic.a(compat_utmpx.pico)
 .gnu.warning.getutxid
                0x00000000        0x0 libc_pic.a(compat_utmpx.pico)
 .gnu.warning.getutxline
                0x00000000        0x0 libc_pic.a(compat_utmpx.pico)
 .gnu.warning.pututxline
                0x00000000        0x0 libc_pic.a(compat_utmpx.pico)
 .gnu.warning.updwtmpx
                0x00000000        0x0 libc_pic.a(compat_utmpx.pico)
 .gnu.warning.getlastlogx
                0x00000000        0x0 libc_pic.a(compat_utmpx.pico)
 .gnu.warning.updlastlogx
                0x00000000        0x0 libc_pic.a(compat_utmpx.pico)
 .gnu.warning.getutmp
                0x00000000        0x0 libc_pic.a(compat_utmpx.pico)
 .gnu.warning.getutmpx
                0x00000000        0x0 libc_pic.a(compat_utmpx.pico)
 .note.GNU-stack
                0x00000000        0x0 libc_pic.a(compat_utmpx.pico)
 .gnu.warning.unvis
                0x00000000        0x0 libc_pic.a(compat_unvis.pico)
 .note.GNU-stack
                0x00000000        0x0 libc_pic.a(compat_unvis.pico)
 .gnu.warning.timezone
                0x00000000        0x0 libc_pic.a(compat_timezone.pico)
 .note.GNU-stack
                0x00000000        0x0 libc_pic.a(compat_timezone.pico)
 .gnu.warning.times
                0x00000000        0x0 libc_pic.a(compat_times.pico)
 .note.GNU-stack
                0x00000000        0x0 libc_pic.a(compat_times.pico)
 .gnu.warning.sigaddset
                0x00000000        0x0 libc_pic.a(compat_sigsetops.pico)
 .gnu.warning.sigdelset
                0x00000000        0x0 libc_pic.a(compat_sigsetops.pico)
 .gnu.warning.sigemptyset
                0x00000000        0x0 libc_pic.a(compat_sigsetops.pico)
 .gnu.warning.sigfillset
                0x00000000        0x0 libc_pic.a(compat_sigsetops.pico)
 .gnu.warning.sigismember
                0x00000000        0x0 libc_pic.a(compat_sigsetops.pico)
 .note.GNU-stack
                0x00000000        0x0 libc_pic.a(compat_sigsetops.pico)
 .gnu.warning.sys_signame
                0x00000000        0x0 libc_pic.a(compat_signame.pico)
 .note.GNU-stack
                0x00000000        0x0 libc_pic.a(compat_signame.pico)
 .note.GNU-stack
                0x00000000        0x0 libc_pic.a(compat_siglist.pico)
 .gnu.warning.scandir
                0x00000000        0x0 libc_pic.a(compat_scandir.pico)
 .note.GNU-stack
                0x00000000        0x0 libc_pic.a(compat_scandir.pico)
 .gnu.warning.___readdir_unlocked30
                0x00000000        0x0 libc_pic.a(compat__readdir_unlocked30.pico)
 .note.GNU-stack
                0x00000000        0x0 libc_pic.a(compat__readdir_unlocked30.pico)
 .gnu.warning.__glob13
                0x00000000        0x0 libc_pic.a(compat___glob13.pico)
 .gnu.warning.__globfree13
                0x00000000        0x0 libc_pic.a(compat___glob13.pico)
 .note.GNU-stack
                0x00000000        0x0 libc_pic.a(compat___glob13.pico)
 .gnu.warning.glob
                0x00000000        0x0 libc_pic.a(compat_glob.pico)
 .gnu.warning.globfree
                0x00000000        0x0 libc_pic.a(compat_glob.pico)
 .note.GNU-stack
                0x00000000        0x0 libc_pic.a(compat_glob.pico)
 .gnu.warning.fts_children
                0x00000000        0x0 libc_pic.a(compat_fts.pico)
 .gnu.warning.fts_close
                0x00000000        0x0 libc_pic.a(compat_fts.pico)
 .gnu.warning.fts_open
                0x00000000        0x0 libc_pic.a(compat_fts.pico)
 .gnu.warning.fts_read
                0x00000000        0x0 libc_pic.a(compat_fts.pico)
 .gnu.warning.fts_set
                0x00000000        0x0 libc_pic.a(compat_fts.pico)
 .note.GNU-stack
                0x00000000        0x0 libc_pic.a(compat_fts.pico)
 .note.GNU-stack
                0x00000000        0x0 libc_pic.a(compat_errlist.pico)
 .gnu.warning.__setlocale_mb_len_max_32
                0x00000000        0x0 libc_pic.a(compat_setlocale32.pico)
 .note.GNU-stack
                0x00000000        0x0 libc_pic.a(compat_setlocale32.pico)
 .gnu.warning.setlocale
                0x00000000        0x0 libc_pic.a(compat_setlocale1.pico)
 .note.GNU-stack
                0x00000000        0x0 libc_pic.a(compat_setlocale1.pico)
 .gnu.warning.dbm_delete
                0x00000000        0x0 libc_pic.a(compat_ndbmdatum.pico)
 .gnu.warning.dbm_fetch
                0x00000000        0x0 libc_pic.a(compat_ndbmdatum.pico)
 .gnu.warning.dbm_firstkey
                0x00000000        0x0 libc_pic.a(compat_ndbmdatum.pico)
 .gnu.warning.dbm_nextkey
                0x00000000        0x0 libc_pic.a(compat_ndbmdatum.pico)
 .gnu.warning.dbm_store
                0x00000000        0x0 libc_pic.a(compat_ndbmdatum.pico)
 .note.GNU-stack
                0x00000000        0x0 libc_pic.a(compat_ndbmdatum.pico)
 .note.GNU-stack
                0x00000000        0x0 libc_pic.a(lchown.pico)
 .note.GNU-stack
                0x00000000        0x0 libc_pic.a(lchmod.pico)
 .note.GNU-stack
                0x00000000        0x0 libc_pic.a(lchflags.pico)
 .note.GNU-stack
                0x00000000        0x0 libc_pic.a(uuid_is_nil.pico)
 .group         0x00000000        0x8 libc_pic.a(libunwind.pico)
 .group         0x00000000        0x8 libc_pic.a(libunwind.pico)
 .group         0x00000000        0x8 libc_pic.a(libunwind.pico)
 .group         0x00000000        0x8 libc_pic.a(libunwind.pico)
 .group         0x00000000        0x8 libc_pic.a(libunwind.pico)
 .group         0x00000000        0x8 libc_pic.a(libunwind.pico)
 .group         0x00000000        0x8 libc_pic.a(libunwind.pico)
 .group         0x00000000        0x8 libc_pic.a(libunwind.pico)
 .group         0x00000000        0x8 libc_pic.a(libunwind.pico)
 .group         0x00000000        0x8 libc_pic.a(libunwind.pico)
 .group         0x00000000        0x8 libc_pic.a(libunwind.pico)
 .group         0x00000000        0x8 libc_pic.a(libunwind.pico)
 .group         0x00000000        0x8 libc_pic.a(libunwind.pico)
 .group         0x00000000        0x8 libc_pic.a(libunwind.pico)
 .group         0x00000000        0x8 libc_pic.a(libunwind.pico)
 .group         0x00000000        0x8 libc_pic.a(libunwind.pico)
 .group         0x00000000        0x8 libc_pic.a(libunwind.pico)
 .note.GNU-stack
                0x00000000        0x0 libc_pic.a(libunwind.pico)
 .note.GNU-stack
                0x00000000        0x0 libc_pic.a(setrlimit.pico)
 .note.GNU-stack
                0x00000000        0x0 libc_pic.a(vfork.pico)
 .note.GNU-stack
                0x00000000        0x0 libc_pic.a(lutimes.pico)
 .note.GNU-stack
                0x00000000        0x0 libc_pic.a(futimes.pico)
 .note.GNU-stack
                0x00000000        0x0 libc_pic.a(utimes.pico)
 .note.GNU-stack
                0x00000000        0x0 libc_pic.a(utimensat.pico)
 .note.GNU-stack
                0x00000000        0x0 libc_pic.a(umask.pico)
 .note.GNU-stack
                0x00000000        0x0 libc_pic.a(socketpair.pico)
 .note.GNU-stack
                0x00000000        0x0 libc_pic.a(sigsuspend.pico)
 .note.GNU-stack
                0x00000000        0x0 libc_pic.a(shmctl.pico)
 .note.GNU-stack
                0x00000000        0x0 libc_pic.a(settimeofday.pico)
 .note.GNU-stack
                0x00000000        0x0 libc_pic.a(setgroups.pico)
 .note.GNU-stack
                0x00000000        0x0 libc_pic.a(rmdir.pico)
 .note.GNU-stack
                0x00000000        0x0 libc_pic.a(posix_spawn.pico)
 .note.GNU-stack
                0x00000000        0x0 libc_pic.a(poll.pico)
 .note.GNU-stack
                0x00000000        0x0 libc_pic.a(pipe.pico)
 .note.GNU-stack
                0x00000000        0x0 libc_pic.a(minix_rs.pico)
 .note.GNU-stack
                0x00000000        0x0 libc_pic.a(listen.pico)
 .note.GNU-stack
                0x00000000        0x0 libc_pic.a(getvfsstat.pico)
 .note.GNU-stack
                0x00000000        0x0 libc_pic.a(getsockopt.pico)
 .note.GNU-stack
                0x00000000        0x0 libc_pic.a(priority.pico)
 .note.GNU-stack
                0x00000000        0x0 libc_pic.a(__getlogin.pico)
 .note.GNU-stack
                0x00000000        0x0 libc_pic.a(setitimer.pico)
 .note.GNU-stack
                0x00000000        0x0 libc_pic.a(getitimer.pico)
 .note.GNU-stack
                0x00000000        0x0 libc_pic.a(getegid.pico)
 .note.GNU-stack
                0x00000000        0x0 libc_pic.a(fstatvfs.pico)
 .note.GNU-stack
                0x00000000        0x0 libc_pic.a(dup2.pico)
 .note.GNU-stack
                0x00000000        0x0 libc_pic.a(clock_settime.pico)
 .note.GNU-stack
                0x00000000        0x0 libc_pic.a(clock_getres.pico)
 .note.GNU-stack
                0x00000000        0x0 libc_pic.a(chown.pico)
 .note.GNU-stack
                0x00000000        0x0 libc_pic.a(chmod.pico)
 .note.GNU-stack
                0x00000000        0x0 libc_pic.a(adjtime.pico)
 .note.GNU-stack
                0x00000000        0x0 libc_pic.a(accept.pico)
 .note.GNU-stack
                0x00000000        0x0 libc_pic.a(tcsetattr.pico)
 .note.GNU-stack
                0x00000000        0x0 libc_pic.a(wmemset.pico)
 .note.GNU-stack
                0x00000000        0x0 libc_pic.a(wmemcpy.pico)
 .note.GNU-stack
                0x00000000        0x0 libc_pic.a(wcscpy.pico)
 .note.GNU-stack
                0x00000000        0x0 libc_pic.a(wcscmp.pico)
 .note.GNU-stack
                0x00000000        0x0 libc_pic.a(strsep.pico)
 .note.GNU-stack
                0x00000000        0x0 libc_pic.a(strncat.pico)
 .note.GNU-stack
                0x00000000        0x0 libc_pic.a(stresep.pico)
 .note.GNU-stack
                0x00000000        0x0 libc_pic.a(__strsignal.pico)
 .note.GNU-stack
                0x00000000        0x0 libc_pic.a(strtok_r.pico)
 .note.GNU-stack
                0x00000000        0x0 libc_pic.a(stpncpy.pico)
 .note.GNU-stack
                0x00000000        0x0 libc_pic.a(stderr.pico)
 .note.GNU-stack
                0x00000000        0x0 libc_pic.a(erand48_ieee754.pico)
 .note.GNU-stack
                0x00000000        0x0 libc_pic.a(strtoll.pico)
 .note.GNU-stack
                0x00000000        0x0 libc_pic.a(setenv.pico)
 .note.GNU-stack
                0x00000000        0x0 libc_pic.a(random.pico)
 .note.GNU-stack
                0x00000000        0x0 libc_pic.a(_rand48.pico)
 .gnu.warning.mktemp
                0x00000000        0x0 libc_pic.a(mktemp.pico)
 .note.GNU-stack
                0x00000000        0x0 libc_pic.a(mktemp.pico)
 .gnu.warning.gets
                0x00000000        0x0 libc_pic.a(gets.pico)
 .note.GNU-stack
                0x00000000        0x0 libc_pic.a(gets.pico)
 .note.GNU-stack
                0x00000000        0x0 libc_pic.a(vswscanf.pico)
 .note.GNU-stack
                0x00000000        0x0 libc_pic.a(vswprintf.pico)
 .note.GNU-stack
                0x00000000        0x0 libc_pic.a(vfwscanf.pico)
 .note.GNU-stack
                0x00000000        0x0 libc_pic.a(vfwprintf.pico)
 .note.GNU-stack
                0x00000000        0x0 libc_pic.a(vdprintf.pico)
 .note.GNU-stack
                0x00000000        0x0 libc_pic.a(ungetwc.pico)
 .note.GNU-stack
                0x00000000        0x0 libc_pic.a(sscanf.pico)
 .note.GNU-stack
                0x00000000        0x0 libc_pic.a(setvbuf.pico)
 .note.GNU-stack
                0x00000000        0x0 libc_pic.a(perror.pico)
 .note.GNU-stack
                0x00000000        0x0 libc_pic.a(gettemp.pico)
 .note.GNU-stack
                0x00000000        0x0 libc_pic.a(ftello.pico)
 .note.GNU-stack
                0x00000000        0x0 libc_pic.a(ftell.pico)
 .note.GNU-stack
                0x00000000        0x0 libc_pic.a(fputwc.pico)
 .note.GNU-stack
                0x00000000        0x0 libc_pic.a(fgetwc.pico)
 .note.GNU-stack
                0x00000000        0x0 libc_pic.a(regfree.pico)
 .note.GNU-stack
                0x00000000        0x0 libc_pic.a(getprotobynumber_r.pico)
 .note.GNU-stack
                0x00000000        0x0 libc_pic.a(getprotobyname_r.pico)
 .note.GNU-stack
                0x00000000        0x0 libc_pic.a(getnetent.pico)
 .note.GNU-stack
                0x00000000        0x0 libc_pic.a(stack_protector.pico)
 .note.GNU-stack
                0x00000000        0x0 libc_pic.a(wcstold.pico)
 .note.GNU-stack
                0x00000000        0x0 libc_pic.a(wcstof.pico)
 .note.GNU-stack
                0x00000000        0x0 libc_pic.a(wcstod.pico)
 .note.GNU-stack
                0x00000000        0x0 libc_pic.a(wcstoumax.pico)
 .note.GNU-stack
                0x00000000        0x0 libc_pic.a(wcstoimax.pico)
 .note.GNU-stack
                0x00000000        0x0 libc_pic.a(inet_network.pico)
 .note.GNU-stack
                0x00000000        0x0 libc_pic.a(verrx.pico)
 .note.GNU-stack
                0x00000000        0x0 libc_pic.a(verr.pico)
 .note.GNU-stack
                0x00000000        0x0 libc_pic.a(warn.pico)
 .note.GNU-stack
                0x00000000        0x0 libc_pic.a(wait3.pico)
 .note.GNU-stack
                0x00000000        0x0 libc_pic.a(utmpx.pico)
 .note.GNU-stack
                0x00000000        0x0 libc_pic.a(utmp.pico)
 .note.GNU-stack
                0x00000000        0x0 libc_pic.a(unvis.pico)
 .note.GNU-stack
                0x00000000        0x0 libc_pic.a(times.pico)
 .note.GNU-stack
                0x00000000        0x0 libc_pic.a(siglist.pico)
 .note.GNU-stack
                0x00000000        0x0 libc_pic.a(pwcache.pico)
 .note.GNU-stack
                0x00000000        0x0 libc_pic.a(nlist_elf32.pico)
 .note.GNU-stack
                0x00000000        0x0 libc_pic.a(nlist_aout.pico)
 .note.GNU-stack
                0x00000000        0x0 libc_pic.a(lockf.pico)
 .note.GNU-stack
                0x00000000        0x0 libc_pic.a(getpwent.pico)
 .note.GNU-stack
                0x00000000        0x0 libc_pic.a(getnetgrent.pico)
 .note.GNU-stack
                0x00000000        0x0 libc_pic.a(getgroupmembership.pico)
 .note.GNU-stack
                0x00000000        0x0 libc_pic.a(getgrent.pico)
 .note.GNU-stack
                0x00000000        0x0 libc_pic.a(getcwd.pico)
 .note.GNU-stack
                0x00000000        0x0 libc_pic.a(execvp.pico)
 .note.GNU-stack
                0x00000000        0x0 libc_pic.a(execl.pico)
 .note.GNU-stack
                0x00000000        0x0 libc_pic.a(devname.pico)
 .note.GNU-stack
                0x00000000        0x0 libc_pic.a(arc4random.pico)
 .note.GNU-stack
                0x00000000        0x0 libc_pic.a(InstrProfilingPlatformOther.pico)
 .note.GNU-stack
                0x00000000        0x0 libc_pic.a(citrus_mapper.pico)
 .note.GNU-stack
                0x00000000        0x0 libc_pic.a(citrus_hash.pico)
 .gnu.warning.gettimeofday
                0x00000000        0x0 libc_pic.a(compat_gettimeofday.pico)
 .note.GNU-stack
                0x00000000        0x0 libc_pic.a(compat_gettimeofday.pico)
 .gnu.warning.getrusage
                0x00000000        0x0 libc_pic.a(compat_getrusage.pico)
 .note.GNU-stack
                0x00000000        0x0 libc_pic.a(compat_getrusage.pico)
 .gnu.warning.stat
                0x00000000        0x0 libc_pic.a(compat_stat.pico)
 .gnu.warning.fstat
                0x00000000        0x0 libc_pic.a(compat_stat.pico)
 .gnu.warning.lstat
                0x00000000        0x0 libc_pic.a(compat_stat.pico)
 .note.GNU-stack
                0x00000000        0x0 libc_pic.a(compat_stat.pico)
 .gnu.warning.readdir
                0x00000000        0x0 libc_pic.a(compat_readdir.pico)
 .gnu.warning.readdir_r
                0x00000000        0x0 libc_pic.a(compat_readdir.pico)
 .note.GNU-stack
                0x00000000        0x0 libc_pic.a(compat_readdir.pico)
 .gnu.warning.opendir
                0x00000000        0x0 libc_pic.a(compat_opendir.pico)
 .gnu.warning.__opendir2
                0x00000000        0x0 libc_pic.a(compat_opendir.pico)
 .note.GNU-stack
                0x00000000        0x0 libc_pic.a(compat_opendir.pico)
 .note.GNU-stack
                0x00000000        0x0 libc_pic.a(setpgid.pico)
 .note.GNU-stack
                0x00000000        0x0 libc_pic.a(getrusage.pico)
 .note.GNU-stack
                0x00000000        0x0 libc_pic.a(__getcwd.pico)
 .note.GNU-stack
                0x00000000        0x0 libc_pic.a(environ.pico)
 .note.GNU-stack
                0x00000000        0x0 libc_pic.a(setuid.pico)
 .note.GNU-stack
                0x00000000        0x0 libc_pic.a(setgid.pico)
 .note.GNU-stack
                0x00000000        0x0 libc_pic.a(setsid.pico)
 .note.GNU-stack
                0x00000000        0x0 libc_pic.a(mkdir.pico)
 .note.GNU-stack
                0x00000000        0x0 libc_pic.a(geteuid.pico)
 .note.GNU-stack
                0x00000000        0x0 libc_pic.a(fork.pico)
 .note.GNU-stack
                0x00000000        0x0 libc_pic.a(execve.pico)
 .note.GNU-stack
                0x00000000        0x0 libc_pic.a(wmemchr.pico)
 .note.GNU-stack
                0x00000000        0x0 libc_pic.a(explicit_memset.pico)
 .note.GNU-stack
                0x00000000        0x0 libc_pic.a(strstr.pico)
 .note.GNU-stack
                0x00000000        0x0 libc_pic.a(vsscanf.pico)
 .note.GNU-stack
                0x00000000        0x0 libc_pic.a(vfscanf.pico)
 .note.GNU-stack
                0x00000000        0x0 libc_pic.a(ungetc.pico)
 .note.GNU-stack
                0x00000000        0x0 libc_pic.a(getprotoent_r.pico)
 .note.GNU-stack
                0x00000000        0x0 libc_pic.a(sha2.pico)
 .note.GNU-stack
                0x00000000        0x0 libc_pic.a(bswap64.pico)
 .note.GNU-stack
                0x00000000        0x0 libc_pic.a(verrc.pico)
 .note.GNU-stack
                0x00000000        0x0 libc_pic.a(vwarn.pico)
 .note.GNU-stack
                0x00000000        0x0 libc_pic.a(warnx.pico)
 .note.GNU-stack
                0x00000000        0x0 libc_pic.a(waitpid.pico)
 .note.GNU-stack
                0x00000000        0x0 libc_pic.a(vis.pico)
 .note.GNU-stack
                0x00000000        0x0 libc_pic.a(stringlist.pico)
 .note.GNU-stack
                0x00000000        0x0 libc_pic.a(sleep.pico)
 .note.GNU-stack
                0x00000000        0x0 libc_pic.a(rewinddir.pico)
 .note.GNU-stack
                0x00000000        0x0 libc_pic.a(getdevmajor.pico)
 .note.GNU-stack
                0x00000000        0x0 libc_pic.a(fts.pico)
 .note.GNU-stack
                0x00000000        0x0 libc_pic.a(closedir.pico)
 .note.GNU-stack
                0x00000000        0x0 libc_pic.a(strtod.pico)
 .note.GNU-stack
                0x00000000        0x0 libc_pic.a(strtold_px.pico)
 .note.GNU-stack
                0x00000000        0x0 libc_pic.a(strtof.pico)
 .note.GNU-stack
                0x00000000        0x0 libc_pic.a(citrus_module.pico)
 .note.GNU-stack
                0x00000000        0x0 libc_pic.a(stack_utils.pico)
 .note.GNU-stack
                0x00000000        0x0 libc_pic.a(kernel_utils.pico)
 .note.GNU-stack
                0x00000000        0x0 libc_pic.a(wait4.pico)
 .note.GNU-stack
                0x00000000        0x0 libc_pic.a(chdir.pico)
 .note.GNU-stack
                0x00000000        0x0 libc_pic.a(wcslen.pico)
 .note.GNU-stack
                0x00000000        0x0 libc_pic.a(wcschr.pico)
 .note.GNU-stack
                0x00000000        0x0 libc_pic.a(strcoll.pico)
 .note.GNU-stack
                0x00000000        0x0 libc_pic.a(strtoumax.pico)
 .note.GNU-stack
                0x00000000        0x0 libc_pic.a(reallocarr.pico)
 .note.GNU-stack
                0x00000000        0x0 libc_pic.a(iswctype_mb.pico)
 .note.GNU-stack
                0x00000000        0x0 libc_pic.a(multibyte_c90.pico)
 .note.GNU-stack
                0x00000000        0x0 libc_pic.a(vwarnc.pico)
 .note.GNU-stack
                0x00000000        0x0 libc_pic.a(vwarnx.pico)
 .note.GNU-stack
                0x00000000        0x0 libc_pic.a(sysctlbyname.pico)
 .note.GNU-stack
                0x00000000        0x0 libc_pic.a(opendir.pico)
 .note.GNU-stack
                0x00000000        0x0 libc_pic.a(initdir.pico)
 .note.GNU-stack
                0x00000000        0x0 libc_pic.a(alphasort.pico)
 .note.GNU-stack
                0x00000000        0x0 libc_pic.a(strtord.pico)
 .note.GNU-stack
                0x00000000        0x0 libc_pic.a(ulp.pico)
 .note.GNU-stack
                0x00000000        0x0 libc_pic.a(strtopx.pico)
 .note.GNU-stack
                0x00000000        0x0 libc_pic.a(merge.pico)
 .note.GNU-stack
                0x00000000        0x0 libc_pic.a(telldir.pico)
 .note.GNU-stack
                0x00000000        0x0 libc_pic.a(readdir.pico)
 .note.GNU-stack
                0x00000000        0x0 libc_pic.a(getdents.pico)
 .note.GNU-stack
                0x00000000        0x0 libc_pic.a(_ucontext.pico)
 .note.GNU-stack
                0x00000000        0x0 libc_pic.a(_mcontext.pico)
 .note.GNU-stack
                0x00000000        0x0 libc_pic.a(socket.pico)
 .note.GNU-stack
                0x00000000        0x0 libc_pic.a(bind.pico)
 .note.GNU-stack
                0x00000000        0x0 libc_pic.a(mknod.pico)
 .note.GNU-stack
                0x00000000        0x0 libc_pic.a(vectorio.pico)
 .note.GNU-stack
                0x00000000        0x0 libc_pic.a(sendto.pico)
 .note.GNU-stack
                0x00000000        0x0 libc_pic.a(ioctl.pico)
 .note.GNU-stack
                0x00000000        0x0 libc_pic.a(strftime.pico)
 .note.GNU-stack
                0x00000000        0x0 libc_pic.a(malloc.pico)
 .note.GNU-stack
                0x00000000        0x0 libc_pic.a(readlink.pico)
 .note.GNU-stack
                0x00000000        0x0 libc_pic.a(getuid.pico)
 .note.GNU-stack
                0x00000000        0x0 libc_pic.a(getgid.pico)
 .note.GNU-stack
                0x00000000        0x0 libc_pic.a(sbrk.pico)
 .note.GNU-stack
                0x00000000        0x0 libc_pic.a(brk.pico)
 .note.GNU-stack
                0x00000000        0x0 libc_pic.a(wsetup.pico)
 .note.GNU-stack
                0x00000000        0x0 libc_pic.a(fwalk.pico)
 .note.GNU-stack
                0x00000000        0x0 libc_pic.a(res_send.pico)
 .note.GNU-stack
                0x00000000        0x0 libc_pic.a(recvfrom.pico)
 .note.GNU-stack
                0x00000000        0x0 libc_pic.a(getpeername.pico)
 .note.GNU-stack
                0x00000000        0x0 libc_pic.a(getnameinfo.pico)
 .note.GNU-stack
                0x00000000        0x0 libc_pic.a(getservbyport_r.pico)
 .note.GNU-stack
                0x00000000        0x0 libc_pic.a(ev_streams.pico)
 .note.GNU-stack
                0x00000000        0x0 libc_pic.a(ev_timers.pico)
 .note.GNU-stack
                0x00000000        0x0 libc_pic.a(assert.pico)
 .note.GNU-stack
                0x00000000        0x0 libc_pic.a(clock_gettime.pico)
 .note.GNU-stack
                0x00000000        0x0 libc_pic.a(if_indextoname.pico)
 .note.GNU-stack
                0x00000000        0x0 libc_pic.a(res_query.pico)
 .note.GNU-stack
                0x00000000        0x0 libc_pic.a(res_mkquery.pico)
 .note.GNU-stack
                0x00000000        0x0 libc_pic.a(res_init.pico)
 .note.GNU-stack
                0x00000000        0x0 libc_pic.a(puts.pico)
 .note.GNU-stack
                0x00000000        0x0 libc_pic.a(getaddrinfo.pico)
 .note.GNU-stack
                0x00000000        0x0 libc_pic.a(getservbyname_r.pico)
 .note.GNU-stack
                0x00000000        0x0 libc_pic.a(md5c.pico)
 .note.GNU-stack
                0x00000000        0x0 libc_pic.a(inet_addr.pico)
 .note.GNU-stack
                0x00000000        0x0 libc_pic.a(vasprintf.pico)
 .note.GNU-stack
                0x00000000        0x0 libc_pic.a(fgets.pico)
 .note.GNU-stack
                0x00000000        0x0 libc_pic.a(if_nametoindex.pico)
 .note.GNU-stack
                0x00000000        0x0 libc_pic.a(getservent_r.pico)
 .note.GNU-stack
                0x00000000        0x0 libc_pic.a(getifaddrs.pico)
 .note.GNU-stack
                0x00000000        0x0 libc_pic.a(cdbr.pico)
 .note.GNU-stack
                0x00000000        0x0 libc_pic.a(mi_vector_hash.pico)
 .note.GNU-stack
                0x00000000        0x0 libc_pic.a(atoi.pico)
 .note.GNU-stack
                0x00000000        0x0 libc_pic.a(res_debug.pico)
 .note.GNU-stack
                0x00000000        0x0 libc_pic.a(strerror.pico)
 .note.GNU-stack
                0x00000000        0x0 libc_pic.a(strtoul.pico)
 .note.GNU-stack
                0x00000000        0x0 libc_pic.a(fputs.pico)
 .note.GNU-stack
                0x00000000        0x0 libc_pic.a(fputc.pico)
 .note.GNU-stack
                0x00000000        0x0 libc_pic.a(ns_print.pico)
 .note.GNU-stack
                0x00000000        0x0 libc_pic.a(ns_parse.pico)
 .note.GNU-stack
                0x00000000        0x0 libc_pic.a(base64.pico)
 .note.GNU-stack
                0x00000000        0x0 libc_pic.a(nsap_addr.pico)
 .note.GNU-stack
                0x00000000        0x0 libc_pic.a(inet_ntop.pico)
 .note.GNU-stack
                0x00000000        0x0 libc_pic.a(mtctxres.pico)
 .note.GNU-stack
                0x00000000        0x0 libc_pic.a(ns_ttl.pico)
 .note.GNU-stack
                0x00000000        0x0 libc_pic.a(ns_samedomain.pico)
 .note.GNU-stack
                0x00000000        0x0 libc_pic.a(sethostent.pico)
 .note.GNU-stack
                0x00000000        0x0 libc_pic.a(rewind.pico)
 .note.GNU-stack
                0x00000000        0x0 libc_pic.a(fseek.pico)
 .note.GNU-stack
                0x00000000        0x0 libc_pic.a(res_data.pico)
 .note.GNU-stack
                0x00000000        0x0 libc_pic.a(h_errno.pico)
 .note.GNU-stack
                0x00000000        0x0 libc_pic.a(gethnamaddr.pico)
 .note.GNU-stack
                0x00000000        0x0 libc_pic.a(inet_pton.pico)
 .note.GNU-stack
                0x00000000        0x0 libc_pic.a(fseeko.pico)
 .note.GNU-stack
                0x00000000        0x0 libc_pic.a(fparseln.pico)
 .note.GNU-stack
                0x00000000        0x0 libc_pic.a(fgetln.pico)
 .note.GNU-stack
                0x00000000        0x0 libc_pic.a(res_compat.pico)
 .note.GNU-stack
                0x00000000        0x0 libc_pic.a(res_comp.pico)
 .note.GNU-stack
                0x00000000        0x0 libc_pic.a(ns_netint.pico)
 .note.GNU-stack
                0x00000000        0x0 libc_pic.a(ns_name.pico)
 .note.GNU-stack
                0x00000000        0x0 libc_pic.a(strncasecmp.pico)
 .note.GNU-stack
                0x00000000        0x0 libc_pic.a(strtol.pico)
 .note.GNU-stack
                0x00000000        0x0 libc_pic.a(vsprintf.pico)
 .note.GNU-stack
                0x00000000        0x0 libc_pic.a(fgetstr.pico)
 .note.GNU-stack
                0x00000000        0x0 libc_pic.a(getdelim.pico)
 .note.GNU-stack
                0x00000000        0x0 libc_pic.a(nsparser.pico)
 .note.GNU-stack
                0x00000000        0x0 libc_pic.a(nslexer.pico)
 .note.GNU-stack
                0x00000000        0x0 libc_pic.a(nsdispatch.pico)
 .note.GNU-stack
                0x00000000        0x0 libc_pic.a(syslog.pico)
 .note.GNU-stack
                0x00000000        0x0 libc_pic.a(getprogname.pico)
 .note.GNU-stack
                0x00000000        0x0 libc_pic.a(gethostname.pico)
 .note.GNU-stack
                0x00000000        0x0 libc_pic.a(connect.pico)
 .note.GNU-stack
                0x00000000        0x0 libc_pic.a(localtime.pico)
 .note.GNU-stack
                0x00000000        0x0 libc_pic.a(asctime.pico)
 .note.GNU-stack
                0x00000000        0x0 libc_pic.a(strerror_r.pico)
 .note.GNU-stack
                0x00000000        0x0 libc_pic.a(strcasecmp.pico)
 .note.GNU-stack
                0x00000000        0x0 libc_pic.a(exit.pico)
 .note.GNU-stack
                0x00000000        0x0 libc_pic.a(bsearch.pico)
 .note.GNU-stack
                0x00000000        0x0 libc_pic.a(atexit.pico)
 .note.GNU-stack
                0x00000000        0x0 libc_pic.a(snprintf_ss.pico)
 .note.GNU-stack
                0x00000000        0x0 libc_pic.a(putchar.pico)
 .note.GNU-stack
                0x00000000        0x0 libc_pic.a(printf.pico)
 .note.GNU-stack
                0x00000000        0x0 libc_pic.a(fread.pico)
 .note.GNU-stack
                0x00000000        0x0 libc_pic.a(fprintf.pico)
 .note.GNU-stack
                0x00000000        0x0 libc_pic.a(fopen.pico)
 .note.GNU-stack
                0x00000000        0x0 libc_pic.a(catopen.pico)
 .note.GNU-stack
                0x00000000        0x0 libc_pic.a(catgets.pico)
 .note.GNU-stack
                0x00000000        0x0 libc_pic.a(catclose.pico)
 .note.GNU-stack
                0x00000000        0x0 libc_pic.a(send.pico)
 .note.GNU-stack
                0x00000000        0x0 libc_pic.a(usleep.pico)
 .note.GNU-stack
                0x00000000        0x0 libc_pic.a(errlist.pico)
 .note.GNU-stack
                0x00000000        0x0 libc_pic.a(nanosleep.pico)
 .note.GNU-stack
                0x00000000        0x0 libc_pic.a(gettimeofday.pico)
 .note.GNU-stack
                0x00000000        0x0 libc_pic.a(access.pico)
 .note.GNU-stack
                0x00000000        0x0 libc_pic.a(wbuf.pico)
 .note.GNU-stack
                0x00000000        0x0 libc_pic.a(vsnprintf_ss.pico)
 .note.GNU-stack
                0x00000000        0x0 libc_pic.a(select.pico)
 .note.GNU-stack
                0x00000000        0x0 libc_pic.a(dummy_lc_collate.pico)
 .note.GNU-stack
                0x00000000        0x0 libc_pic.a(generic_lc_all.pico)
 .note.GNU-stack
                0x00000000        0x0 libc_pic.a(setlocale.pico)
 .note.GNU-stack
                0x00000000        0x0 libc_pic.a(citrus_lc_messages.pico)
 .note.GNU-stack
                0x00000000        0x0 libc_pic.a(citrus_lc_time.pico)
 .note.GNU-stack
                0x00000000        0x0 libc_pic.a(citrus_lc_numeric.pico)
 .note.GNU-stack
                0x00000000        0x0 libc_pic.a(citrus_lc_monetary.pico)
 .note.GNU-stack
                0x00000000        0x0 libc_pic.a(citrus_lc_ctype.pico)
 .note.GNU-stack
                0x00000000        0x0 libc_pic.a(citrus_lookup.pico)
 .note.GNU-stack
                0x00000000        0x0 libc_pic.a(citrus_db_hash.pico)
 .note.GNU-stack
                0x00000000        0x0 libc_pic.a(citrus_db.pico)
 .note.GNU-stack
                0x00000000        0x0 libc_pic.a(citrus_bcs_strtol.pico)
 .note.GNU-stack
                0x00000000        0x0 libc_pic.a(strndup.pico)
 .note.GNU-stack
                0x00000000        0x0 libc_pic.a(rune.pico)
 .note.GNU-stack
                0x00000000        0x0 libc_pic.a(_wctype.pico)
 .note.GNU-stack
                0x00000000        0x0 libc_pic.a(_wctrans.pico)
 .note.GNU-stack
                0x00000000        0x0 libc_pic.a(fix_grouping.pico)
 .note.GNU-stack
                0x00000000        0x0 libc_pic.a(__mb_cur_max.pico)
 .note.GNU-stack
                0x00000000        0x0 libc_pic.a(citrus_mmap.pico)
 .note.GNU-stack
                0x00000000        0x0 libc_pic.a(citrus_memstream.pico)
 .note.GNU-stack
                0x00000000        0x0 libc_pic.a(citrus_bcs.pico)
 .note.GNU-stack
                0x00000000        0x0 libc_pic.a(strtodg.pico)
 .note.GNU-stack
                0x00000000        0x0 libc_pic.a(sum.pico)
 .note.GNU-stack
                0x00000000        0x0 libc_pic.a(hexnan.pico)
 .note.GNU-stack
                0x00000000        0x0 libc_pic.a(gethex.pico)
 .note.GNU-stack
                0x00000000        0x0 libc_pic.a(smisc.pico)
 .note.GNU-stack
                0x00000000        0x0 libc_pic.a(hd_init.pico)
 .note.GNU-stack
                0x00000000        0x0 libc_pic.a(rec_put.pico)
 .note.GNU-stack
                0x00000000        0x0 libc_pic.a(rec_open.pico)
 .note.GNU-stack
                0x00000000        0x0 libc_pic.a(fdopen.pico)
 .note.GNU-stack
                0x00000000        0x0 libc_pic.a(rec_seq.pico)
 .note.GNU-stack
                0x00000000        0x0 libc_pic.a(rec_get.pico)
 .note.GNU-stack
                0x00000000        0x0 libc_pic.a(rec_delete.pico)
 .note.GNU-stack
                0x00000000        0x0 libc_pic.a(rec_close.pico)
 .note.GNU-stack
                0x00000000        0x0 libc_pic.a(mmap.pico)
 .note.GNU-stack
                0x00000000        0x0 libc_pic.a(ftruncate.pico)
 .note.GNU-stack
                0x00000000        0x0 libc_pic.a(rget.pico)
 .note.GNU-stack
                0x00000000        0x0 libc_pic.a(refill.pico)
 .note.GNU-stack
                0x00000000        0x0 libc_pic.a(makebuf.pico)
 .note.GNU-stack
                0x00000000        0x0 libc_pic.a(flags.pico)
 .note.GNU-stack
                0x00000000        0x0 libc_pic.a(fclose.pico)
 .note.GNU-stack
                0x00000000        0x0 libc_pic.a(isatty.pico)
 .note.GNU-stack
                0x00000000        0x0 libc_pic.a(rec_utils.pico)
 .note.GNU-stack
                0x00000000        0x0 libc_pic.a(rec_search.pico)
 .note.GNU-stack
                0x00000000        0x0 libc_pic.a(tcgetattr.pico)
 .note.GNU-stack
                0x00000000        0x0 libc_pic.a(strtoi.pico)
 .note.GNU-stack
                0x00000000        0x0 libc_pic.a(vsnprintf.pico)
 .note.GNU-stack
                0x00000000        0x0 libc_pic.a(vfprintf.pico)
 .note.GNU-stack
                0x00000000        0x0 libc_pic.a(multibyte_amd1.pico)
 .note.GNU-stack
                0x00000000        0x0 libc_pic.a(localeconv.pico)
 .note.GNU-stack
                0x00000000        0x0 libc_pic.a(hdtoa.pico)
 .note.GNU-stack
                0x00000000        0x0 libc_pic.a(ldtoa.pico)
 .note.GNU-stack
                0x00000000        0x0 libc_pic.a(dtoa.pico)
 .note.GNU-stack
                0x00000000        0x0 libc_pic.a(strdup.pico)
 .note.GNU-stack
                0x00000000        0x0 libc_pic.a(fpclassifyl.pico)
 .note.GNU-stack
                0x00000000        0x0 libc_pic.a(fpclassifyd_ieee754.pico)
 .note.GNU-stack
                0x00000000        0x0 libc_pic.a(gdtoa.pico)
 .note.GNU-stack
                0x00000000        0x0 libc_pic.a(gmisc.pico)
 .note.GNU-stack
                0x00000000        0x0 libc_pic.a(dmisc.pico)
 .note.GNU-stack
                0x00000000        0x0 libc_pic.a(misc.pico)
 .note.GNU-stack
                0x00000000        0x0 libc_pic.a(hash_page.pico)
 .note.GNU-stack
                0x00000000        0x0 libc_pic.a(hash_bigkey.pico)
 .note.GNU-stack
                0x00000000        0x0 libc_pic.a(db.pico)
 .note.GNU-stack
                0x00000000        0x0 libc_pic.a(hash.pico)
 .note.GNU-stack
                0x00000000        0x0 libc_pic.a(bt_open.pico)
 .note.GNU-stack
                0x00000000        0x0 libc_pic.a(bt_get.pico)
 .note.GNU-stack
                0x00000000        0x0 libc_pic.a(bt_conv.pico)
 .note.GNU-stack
                0x00000000        0x0 libc_pic.a(bt_close.pico)
 .note.GNU-stack
                0x00000000        0x0 libc_pic.a(hash_log2.pico)
 .note.GNU-stack
                0x00000000        0x0 libc_pic.a(hash_func.pico)
 .note.GNU-stack
                0x00000000        0x0 libc_pic.a(hash_buf.pico)
 .note.GNU-stack
                0x00000000        0x0 libc_pic.a(dbfile.pico)
 .note.GNU-stack
                0x00000000        0x0 libc_pic.a(bt_put.pico)
 .note.GNU-stack
                0x00000000        0x0 libc_pic.a(bt_delete.pico)
 .note.GNU-stack
                0x00000000        0x0 libc_pic.a(unlink.pico)
 .note.GNU-stack
                0x00000000        0x0 libc_pic.a(issetugid.pico)
 .note.GNU-stack
                0x00000000        0x0 libc_pic.a(fcntl.pico)
 .note.GNU-stack
                0x00000000        0x0 libc_pic.a(getenv.pico)
 .gnu.warning.__findenv
                0x00000000        0x0 libc_pic.a(_env.pico)
 .note.GNU-stack
                0x00000000        0x0 libc_pic.a(_env.pico)
 .note.GNU-stack
                0x00000000        0x0 libc_pic.a(rb.pico)
 .note.GNU-stack
                0x00000000        0x0 libc_pic.a(bt_split.pico)
 .note.GNU-stack
                0x00000000        0x0 libc_pic.a(bt_seq.pico)
 .note.GNU-stack
                0x00000000        0x0 libc_pic.a(bt_search.pico)
 .note.GNU-stack
                0x00000000        0x0 libc_pic.a(strcspn.pico)
 .note.GNU-stack
                0x00000000        0x0 libc_pic.a(bt_utils.pico)
 .note.GNU-stack
                0x00000000        0x0 libc_pic.a(bt_overflow.pico)
 .note.GNU-stack
                0x00000000        0x0 libc_pic.a(bt_page.pico)
 .note.GNU-stack
                0x00000000        0x0 libc_pic.a(mpool.pico)
 .note.GNU-stack
                0x00000000        0x0 libc_pic.a(pwrite.pico)
 .note.GNU-stack
                0x00000000        0x0 libc_pic.a(pread.pico)
 .note.GNU-stack
                0x00000000        0x0 libc_pic.a(fsync.pico)
 .note.GNU-stack
                0x00000000        0x0 libc_pic.a(abort.pico)
 .note.GNU-stack
                0x00000000        0x0 libc_pic.a(fwrite.pico)
 .note.GNU-stack
                0x00000000        0x0 libc_pic.a(fvwrite.pico)
 .note.GNU-stack
                0x00000000        0x0 libc_pic.a(findfp.pico)
 .note.GNU-stack
                0x00000000        0x0 libc_pic.a(fflush.pico)
 .note.GNU-stack
                0x00000000        0x0 libc_pic.a(sysconf.pico)
 .note.GNU-stack
                0x00000000        0x0 libc_pic.a(signal.pico)
 .note.GNU-stack
                0x00000000        0x0 libc_pic.a(raise.pico)
 .note.GNU-stack
                0x00000000        0x0 libc_pic.a(getpagesize.pico)
 .note.GNU-stack
                0x00000000        0x0 libc_pic.a(_exit.pico)
 .note.GNU-stack
                0x00000000        0x0 libc_pic.a(sigaction.pico)
 .note.GNU-stack
                0x00000000        0x0 libc_pic.a(pathconf.pico)
 .note.GNU-stack
                0x00000000        0x0 libc_pic.a(open.pico)
 .note.GNU-stack
                0x00000000        0x0 libc_pic.a(loadname.pico)
 .note.GNU-stack
                0x00000000        0x0 libc_pic.a(kill.pico)
 .note.GNU-stack
                0x00000000        0x0 libc_pic.a(getrlimit.pico)
 .note.GNU-stack
                0x00000000        0x0 libc_pic.a(getpid.pico)
 .note.GNU-stack
                0x00000000        0x0 libc_pic.a(fpathconf.pico)
 .note.GNU-stack
                0x00000000        0x0 libc_pic.a(stdio.pico)
 .note.GNU-stack
                0x00000000        0x0 libc_pic.a(sysctlgetmibinfo.pico)
 .note.GNU-stack
                0x00000000        0x0 libc_pic.a(sysctl.pico)
 .note.GNU-stack
                0x00000000        0x0 libc_pic.a(__sysctl.pico)
 .note.GNU-stack
                0x00000000        0x0 libc_pic.a(write.pico)
 .note.GNU-stack
                0x00000000        0x0 libc_pic.a(stat.pico)
 .note.GNU-stack
                0x00000000        0x0 libc_pic.a(sigreturn.pico)
 .note.GNU-stack
                0x00000000        0x0 libc_pic.a(read.pico)
 .note.GNU-stack
                0x00000000        0x0 libc_pic.a(lseek.pico)
 .note.GNU-stack
                0x00000000        0x0 libc_pic.a(close.pico)
 .note.GNU-stack
                0x00000000        0x0 libc_pic.a(strpbrk.pico)
 .note.GNU-stack
                0x00000000        0x0 libc_pic.a(strncpy.pico)
 .note.GNU-stack
                0x00000000        0x0 libc_pic.a(strlcpy.pico)
 .note.GNU-stack
                0x00000000        0x0 libc_pic.a(strlcat.pico)
 .note.GNU-stack
                0x00000000        0x0 libc_pic.a(strtoimax.pico)
 .note.GNU-stack
                0x00000000        0x0 libc_pic.a(qsort.pico)
 .note.GNU-stack
                0x00000000        0x0 libc_pic.a(global_locale.pico)
 .note.GNU-stack
                0x00000000        0x0 libc_pic.a(isctype.pico)
 .note.GNU-stack
                0x00000000        0x0 libc_pic.a(sigprocmask.pico)
 .note.GNU-stack
                0x00000000        0x0 libc_pic.a(runetable.pico)
 .note.GNU-stack
                0x00000000        0x0 libc_pic.a(toupper_.pico)
 .note.GNU-stack
                0x00000000        0x0 libc_pic.a(tolower_.pico)
 .note.GNU-stack
                0x00000000        0x0 libc_pic.a(ctype_.pico)
 .note.GNU-stack
                0x00000000        0x0 libc_pic.a(citrus_ctype.pico)
 .note.GNU-stack
                0x00000000        0x0 libc_pic.a(syscall.pico)
 .note.GNU-stack
                0x00000000        0x0 libc_pic.a(_errno.pico)
 .note.GNU-stack
                0x00000000        0x0 libc_pic.a(citrus_none.pico)
 .note.GNU-stack
                0x00000000        0x0 libc_pic.a(init.pico)

Memory Configuration

Name             Origin             Length             Attributes
*default*        0x00000000         0xffffffff

Linker script and memory map

LOAD /usr/lib/crti.o
LOAD /usr/lib/crtbeginS.o
LOAD libc_pic.a
LOAD /usr/lib/crtendS.o
LOAD /usr/lib/crtn.o
                0x000000f4                . = (0x0 + SIZEOF_HEADERS)

.note.gnu.build-id
 *(.note.gnu.build-id)

.hash           0x000000f4     0x4d1c
 *(.hash)
 .hash          0x000000f4     0x4d1c /usr/lib/crti.o

.gnu.hash
 *(.gnu.hash)

.dynsym         0x00004e10     0xb400
 *(.dynsym)
 .dynsym        0x00004e10     0xb400 /usr/lib/crti.o

.dynstr         0x00010210     0x657d
 *(.dynstr)
 .dynstr        0x00010210     0x657d /usr/lib/crti.o

.gnu.version    0x0001678e        0x0
 *(.gnu.version)
 .gnu.version   0x00000000        0x0 /usr/lib/crti.o

.gnu.version_d  0x00016790        0x0
 *(.gnu.version_d)
 .gnu.version_d
                0x00000000        0x0 /usr/lib/crti.o

.gnu.version_r  0x00016790        0x0
 *(.gnu.version_r)
 .gnu.version_r
                0x00000000        0x0 /usr/lib/crti.o

.rel.dyn        0x00016790     0x33a0
 *(.rel.init)
 *(.rel.text .rel.text.* .rel.gnu.linkonce.t.*)
 .rel.text      0x00000000        0x0 /usr/lib/crti.o
 .rel.text._ZN7_Unwind10CFI_ParserINS_17LocalAddressSpaceENS_13Registers_x86EE11findPCRangeERS1_jRjS5_
                0x00000000        0x0 /usr/lib/crti.o
 .rel.text._ZN7_Unwind12UnwindCursorINS_17LocalAddressSpaceENS_13Registers_x86EE24setInfoBasedOnIPRegisterEb
                0x00000000        0x0 /usr/lib/crti.o
 .rel.text._ZN7_Unwind17DwarfInstructionsINS_17LocalAddressSpaceENS_13Registers_x86EE13stepWithDwarfERS1_jjRS2_PNS_15unw_proc_info_tE
                0x00000000        0x0 /usr/lib/crti.o
 .rel.text._ZN7_Unwind10CFI_ParserINS_17LocalAddressSpaceENS_13Registers_x86EE9decodeFDEERS1_jPNS3_8FDE_InfoEPNS3_8CIE_InfoEPNS_15unw_proc_info_tE
                0x00000000        0x0 /usr/lib/crti.o
 .rel.text._ZN7_Unwind17DwarfInstructionsINS_17LocalAddressSpaceENS_13Registers_x86EE16getSavedRegisterERS1_RKS2_jRKNS_10CFI_ParserIS1_S2_E16RegisterLocationE
                0x00000000        0x0 /usr/lib/crti.o
 .rel.text._ZN7_Unwind17DwarfInstructionsINS_17LocalAddressSpaceENS_13Registers_x86EE18evaluateExpressionEjRS1_RKS2_j
                0x00000000        0x0 /usr/lib/crti.o
 .rel.text._ZN7_Unwind10CFI_ParserINS_17LocalAddressSpaceENS_13Registers_x86EE17parseInstructionsERS1_jjRKNS3_8CIE_InfoEjRPNS3_20PrologInfoStackEntryEPNS3_10PrologInfoEPNS_15unw_proc_info_tE
                0x00000000        0x0 /usr/lib/crti.o
 .rel.text._ZN7_Unwind17LocalAddressSpace11getEncodedPERjjhPKNS_15unw_proc_info_tE
                0x00000000        0x0 /usr/lib/crti.o
 .rel.text._ZN7_Unwind10CFI_ParserINS_17LocalAddressSpaceENS_13Registers_x86EE8parseCIEERS1_jPNS3_8CIE_InfoE
                0x00000000        0x0 /usr/lib/crti.o
 .rel.text._ZN7_Unwind17LocalAddressSpace6addDSOEjj
                0x00000000        0x0 /usr/lib/crti.o
 .rel.text._ZN7_Unwind12UnwindCursorINS_17LocalAddressSpaceENS_13Registers_x86EE6jumptoEv
                0x00000000        0x0 /usr/lib/crti.o
 *(.rel.fini)
 *(.rel.rodata .rel.rodata.* .rel.gnu.linkonce.r.*)
 *(.rel.data.rel.ro .rel.data.rel.ro.* .rel.gnu.linkonce.d.rel.ro.*)
 .rel.data.rel.ro.local
                0x00016790     0x26c8 /usr/lib/crti.o
 .rel.data.rel.ro.local._ZZN7_Unwind17LocalAddressSpaceC1EPFvRS0_jRjS2_EE14segmentTreeOps
                0x00018e58       0x10 /usr/lib/crti.o
 .rel.data.rel.ro.local._ZZN7_Unwind17LocalAddressSpaceC1EPFvRS0_jRjS2_EE10dsoTreeOps
                0x00018e68       0x10 /usr/lib/crti.o
 .rel.data.rel.ro
                0x00018e78      0x288 /usr/lib/crti.o
 *(.rel.data .rel.data.* .rel.gnu.linkonce.d.*)
 .rel.data.rel  0x00019100      0x160 /usr/lib/crti.o
 .rel.data.rel.local
                0x00019260      0x2c8 /usr/lib/crti.o
 .rel.data      0x00019528        0x8 /usr/lib/crti.o
 *(.rel.tdata .rel.tdata.* .rel.gnu.linkonce.td.*)
 *(.rel.tbss .rel.tbss.* .rel.gnu.linkonce.tb.*)
 *(.rel.ctors)
 .rel.ctors     0x00019530       0x18 /usr/lib/crti.o
 *(.rel.dtors)
 *(.rel.got)
 .rel.got       0x00019548      0x5e8 /usr/lib/crti.o
 *(.rel.bss .rel.bss.* .rel.gnu.linkonce.b.*)
 *(.rel.ifunc)
 .rel.ifunc     0x00000000        0x0 /usr/lib/crti.o

.rel.plt        0x00019b30     0x19c0
 *(.rel.plt)
 .rel.plt       0x00019b30     0x19c0 /usr/lib/crti.o
 *(.rel.iplt)

.init           0x0001b4f0        0xa
 *(SORT(.init))
 .init          0x0001b4f0        0x3 /usr/lib/crti.o
                0x0001b4f0                _init
 .init          0x0001b4f3        0x5 /usr/lib/crtbeginS.o
 .init          0x0001b4f8        0x2 /usr/lib/crtn.o

.plt            0x0001b500     0x3390
 *(.plt)
 .plt           0x0001b500     0x3390 /usr/lib/crti.o
 *(.iplt)

.text           0x0001e890    0xc35ef
                0x0001e890                PROVIDE (__eprol, .)
 *(.text)
 .text          0x0001e890        0x0 /usr/lib/crti.o
 .text          0x0001e890       0xef /usr/lib/crtbeginS.o
 *fill*         0x0001e97f        0x1 
 .text          0x0001e980       0xe3 libc_pic.a(uuid_to_string.pico)
                0x0001e980                uuid_to_string
 *fill*         0x0001ea63        0xd 
 .text          0x0001ea70      0x159 libc_pic.a(uuid_stream.pico)
                0x0001ea70                uuid_enc_le
                0x0001eac0                uuid_dec_le
                0x0001eb10                uuid_enc_be
                0x0001eb70                uuid_dec_be
 *fill*         0x0001ebc9        0x7 
 .text          0x0001ebd0       0x23 libc_pic.a(uuid_hash.pico)
                0x0001ebd0                uuid_hash
 *fill*         0x0001ebf3        0xd 
 .text          0x0001ec00      0x147 libc_pic.a(uuid_from_string.pico)
                0x0001ec00                uuid_from_string
 *fill*         0x0001ed47        0x9 
 .text          0x0001ed50       0x70 libc_pic.a(uuid_equal.pico)
                0x0001ed50                uuid_equal
 .text          0x0001edc0       0x30 libc_pic.a(uuid_create_nil.pico)
                0x0001edc0                uuid_create_nil
                0x0001edc0                _uuid_create_nil
 .text          0x0001edf0      0x133 libc_pic.a(uuid_create.pico)
                0x0001edf0                uuidgen
                0x0001ee90                uuid_create
 *fill*         0x0001ef23        0xd 
 .text          0x0001ef30      0x15a libc_pic.a(uuid_compare.pico)
                0x0001ef30                uuid_compare
 *fill*         0x0001f08a        0x6 
 .text          0x0001f090      0x27f libc_pic.a(_cpufeature.pico)
                0x0001f090                _cpufeature
 *fill*         0x0001f30f        0x1 
 .text          0x0001f310       0x60 libc_pic.a(getprocessor.pico)
                0x0001f310                getprocessor
 .text          0x0001f370        0x3 libc_pic.a(get_bp.pico)
                0x0001f370                get_bp
 *fill*         0x0001f373        0xd 
 .text          0x0001f380       0x3f libc_pic.a(_cpuid.pico)
                0x0001f380                _cpuid
 *fill*         0x0001f3bf        0x1 
 .text          0x0001f3c0       0xe2 libc_pic.a(sprofile.pico)
                0x0001f3c0                sprofile
                0x0001f3c0                _sprofile
 *fill*         0x0001f4a2        0xe 
 .text          0x0001f4b0      0x103 libc_pic.a(sizeup.pico)
                0x0001f4b0                minix_sizeup
 *fill*         0x0001f5b3        0xd 
 .text          0x0001f5c0      0x105 libc_pic.a(futimens.pico)
                0x0001f5c0                futimens
 *fill*         0x0001f6c5        0xb 
 .text          0x0001f6d0       0xde libc_pic.a(truncate.pico)
                0x0001f6d0                truncate
 *fill*         0x0001f7ae        0x2 
 .text          0x0001f7b0       0xb8 libc_pic.a(sync.pico)
                0x0001f7b0                sync
 *fill*         0x0001f868        0x8 
 .text          0x0001f870       0xe4 libc_pic.a(symlink.pico)
                0x0001f870                symlink
 *fill*         0x0001f954        0xc 
 .text          0x0001f960      0x108 libc_pic.a(svrctl.pico)
                0x0001f960                svrctl
 *fill*         0x0001fa68        0x8 
 .text          0x0001fa70      0x1bf libc_pic.a(statvfs.pico)
                0x0001fa70                statvfs1
                0x0001fb50                _statvfs
                0x0001fb50                statvfs
 *fill*         0x0001fc2f        0x1 
 .text          0x0001fc30       0xe5 libc_pic.a(sigpending.pico)
                0x0001fc30                sigpending
                0x0001fc30                __sigpending14
 *fill*         0x0001fd15        0xb 
 .text          0x0001fd20      0x209 libc_pic.a(shutdown.pico)
                0x0001fd20                shutdown
 *fill*         0x0001ff29        0x7 
 .text          0x0001ff30       0xc8 libc_pic.a(stime.pico)
                0x0001ff30                stime
 *fill*         0x0001fff8        0x8 
 .text          0x00020000      0x104 libc_pic.a(shmget.pico)
                0x00020000                shmget
 *fill*         0x00020104        0xc 
 .text          0x00020110      0x1fe libc_pic.a(shmat.pico)
                0x00020110                shmat
                0x00020220                shmdt
 *fill*         0x0002030e        0x2 
 .text          0x00020310      0x3e2 libc_pic.a(sendmsg.pico)
                0x00020310                sendmsg
 *fill*         0x000206f2        0xe 
 .text          0x00020700      0x38c libc_pic.a(sem.pico)
                0x00020700                semget
                0x00020810                __semctl50
                0x00020990                semop
 *fill*         0x00020a8c        0x4 
 .text          0x00020a90       0xe4 libc_pic.a(rename.pico)
                0x00020a90                __posix_rename
                0x00020a90                rename
 *fill*         0x00020b74        0xc 
 .text          0x00020b80      0x4ab libc_pic.a(recvmsg.pico)
                0x00020b80                recvmsg
 *fill*         0x0002102b        0x5 
 .text          0x00021030       0xbf libc_pic.a(reboot.pico)
                0x00021030                reboot
 *fill*         0x000210ef        0x1 
 .text          0x000210f0       0xf9 libc_pic.a(ptrace.pico)
                0x000210f0                ptrace
 *fill*         0x000211e9        0x7 
 .text          0x000211f0      0x749 libc_pic.a(mount.pico)
                0x000211f0                minix_mount
                0x00021750                find_rslabel
                0x00021810                minix_umount
 *fill*         0x00021939        0x7 
 .text          0x00021940       0x40 libc_pic.a(mkfifo.pico)
                0x00021940                mkfifo
 .text          0x00021980       0xe4 libc_pic.a(link.pico)
                0x00021980                link
 *fill*         0x00021a64        0xc 
 .text          0x00021a70      0x34b libc_pic.a(setsockopt.pico)
                0x00021a70                setsockopt
 *fill*         0x00021dbb        0x5 
 .text          0x00021dc0      0x302 libc_pic.a(getsockname.pico)
                0x00021dc0                getsockname
 *fill*         0x000220c2        0xe 
 .text          0x000220d0       0xc7 libc_pic.a(getppid.pico)
                0x000220d0                getppid
 *fill*         0x00022197        0x9 
 .text          0x000221a0       0xb8 libc_pic.a(getpgrp.pico)
                0x000221a0                getpgrp
 *fill*         0x00022258        0x8 
 .text          0x00022260       0xc6 libc_pic.a(getgroups.pico)
                0x00022260                getgroups
 *fill*         0x00022326        0xa 
 .text          0x00022330       0xde libc_pic.a(gcov_flush_sys.pico)
                0x00022330                gcov_flush_svr
 *fill*         0x0002240e        0x2 
 .text          0x00022410       0x41 libc_pic.a(fstatfs.pico)
                0x00022410                fstatfs
 *fill*         0x00022451        0xf 
 .text          0x00022460       0xae libc_pic.a(flock.pico)
                0x00022460                flock
 *fill*         0x0002250e        0x2 
 .text          0x00022510       0x34 libc_pic.a(dup.pico)
                0x00022510                dup
 *fill*         0x00022544        0xc 
 .text          0x00022550       0xc9 libc_pic.a(chroot.pico)
                0x00022550                chroot
 *fill*         0x00022619        0x7 
 .text          0x00022620       0xcd libc_pic.a(fchown.pico)
                0x00022620                fchown
                0x00022620                __posix_fchown
 *fill*         0x000226ed        0x3 
 .text          0x000226f0       0xc6 libc_pic.a(fchmod.pico)
                0x000226f0                fchmod
 *fill*         0x000227b6        0xa 
 .text          0x000227c0       0xbf libc_pic.a(getsid.pico)
                0x000227c0                getsid
 *fill*         0x0002287f        0x1 
 .text          0x00022880       0x75 libc_pic.a(m_closefrom.pico)
                0x00022880                closefrom
 *fill*         0x000228f5        0xb 
 .text          0x00022900     0x1bf7 libc_pic.a(strptime.pico)
                0x00022900                strptime
                0x00022900                _strptime
                0x00022940                strptime_l
                0x00022940                _strptime_l
 *fill*         0x000244f7        0x9 
 .text          0x00024500      0x5dd libc_pic.a(getdate.pico)
                0x00024500                getdate
 *fill*         0x00024add        0x3 
 .text          0x00024ae0       0x8a libc_pic.a(difftime.pico)
                0x00024ae0                __difftime50
 *fill*         0x00024b6a        0x2 
 .text          0x00024b6c        0x0 libc_pic.a(thread-stub-init.pico)
 .text          0x00024b6c        0x0 libc_pic.a(thread-stub.pico)
 .text          0x00024b6c        0x0 libc_pic.a(__isthreaded.pico)
 *fill*         0x00024b6c        0x4 
 .text          0x00024b70       0x39 libc_pic.a(tcsetpgrp.pico)
                0x00024b70                _tcsetpgrp
                0x00024b70                tcsetpgrp
 *fill*         0x00024ba9        0x7 
 .text          0x00024bb0       0x77 libc_pic.a(tcsendbreak.pico)
                0x00024bb0                tcsendbreak
                0x00024bb0                _tcsendbreak
 *fill*         0x00024c27        0x9 
 .text          0x00024c30       0x52 libc_pic.a(tcgetpgrp.pico)
                0x00024c30                _tcgetpgrp
                0x00024c30                tcgetpgrp
 *fill*         0x00024c82        0xe 
 .text          0x00024c90       0x70 libc_pic.a(tcflush.pico)
                0x00024c90                tcflush
                0x00024c90                _tcflush
 .text          0x00024d00       0xdb libc_pic.a(tcflow.pico)
                0x00024d00                _tcflow
                0x00024d00                tcflow
 *fill*         0x00024ddb        0x5 
 .text          0x00024de0       0x34 libc_pic.a(tcdrain.pico)
                0x00024de0                tcdrain
                0x00024de0                _tcdrain
 *fill*         0x00024e14        0xc 
 .text          0x00024e20       0x13 libc_pic.a(cfsetspeed.pico)
                0x00024e20                _cfsetspeed
                0x00024e20                cfsetspeed
 *fill*         0x00024e33        0xd 
 .text          0x00024e40       0x10 libc_pic.a(cfsetospeed.pico)
                0x00024e40                cfsetospeed
                0x00024e40                _cfsetospeed
 .text          0x00024e50       0x10 libc_pic.a(cfsetispeed.pico)
                0x00024e50                cfsetispeed
                0x00024e50                _cfsetispeed
 .text          0x00024e60       0x2a libc_pic.a(cfmakeraw.pico)
                0x00024e60                cfmakeraw
                0x00024e60                _cfmakeraw
 *fill*         0x00024e8a        0x6 
 .text          0x00024e90        0xb libc_pic.a(cfgetospeed.pico)
                0x00024e90                cfgetospeed
                0x00024e90                _cfgetospeed
 *fill*         0x00024e9b        0x5 
 .text          0x00024ea0        0xb libc_pic.a(cfgetispeed.pico)
                0x00024ea0                cfgetispeed
                0x00024ea0                _cfgetispeed
 *fill*         0x00024eab        0x5 
 .text          0x00024eb0       0x86 libc_pic.a(swab.pico)
                0x00024eb0                swab
 *fill*         0x00024f36        0xa 
 .text          0x00024f40       0x13 libc_pic.a(ffs.pico)
                0x00024f40                ffs
 *fill*         0x00024f53        0xd 
 .text          0x00024f60       0x33 libc_pic.a(bzero.pico)
                0x00024f60                bzero
 *fill*         0x00024f93        0xd 
 .text          0x00024fa0       0x79 libc_pic.a(bcopy.pico)
                0x00024fa0                bcopy
 *fill*         0x00025019        0x7 
 .text          0x00025020       0x26 libc_pic.a(bcmp.pico)
                0x00025020                bcmp
 *fill*         0x00025046        0xa 
 .text          0x00025050       0x39 libc_pic.a(wmemmove.pico)
                0x00025050                wmemmove
 *fill*         0x00025089        0x7 
 .text          0x00025090       0x40 libc_pic.a(wmemcmp.pico)
                0x00025090                wmemcmp
 .text          0x000250d0       0x8f libc_pic.a(wcswcs.pico)
                0x000250d0                wcswcs
 *fill*         0x0002515f        0x1 
 .text          0x00025160       0x98 libc_pic.a(wcstok.pico)
                0x00025160                wcstok
 *fill*         0x000251f8        0x8 
 .text          0x00025200       0x8f libc_pic.a(wcsstr.pico)
                0x00025200                wcsstr
 *fill*         0x0002528f        0x1 
 .text          0x00025290       0x5f libc_pic.a(wcsspn.pico)
                0x00025290                wcsspn
 *fill*         0x000252ef        0x1 
 .text          0x000252f0       0x49 libc_pic.a(wcsrchr.pico)
                0x000252f0                wcsrchr
 *fill*         0x00025339        0x7 
 .text          0x00025340      0x153 libc_pic.a(wcspbrk.pico)
                0x00025340                wcspbrk
 *fill*         0x00025493        0xd 
 .text          0x000254a0       0x64 libc_pic.a(wcsncpy.pico)
                0x000254a0                wcsncpy
 *fill*         0x00025504        0xc 
 .text          0x00025510       0x3b libc_pic.a(wcsncmp.pico)
                0x00025510                wcsncmp
 *fill*         0x0002554b        0x5 
 .text          0x00025550      0x114 libc_pic.a(wcsncasecmp.pico)
                0x00025550                wcsncasecmp_l
                0x00025550                _wcsncasecmp_l
                0x000255e0                _wcsncasecmp
                0x000255e0                wcsncasecmp
 *fill*         0x00025664        0xc 
 .text          0x00025670       0x52 libc_pic.a(wcsdup.pico)
                0x00025670                wcsdup
                0x00025670                _wcsdup
 *fill*         0x000256c2        0xe 
 .text          0x000256d0      0x14b libc_pic.a(wcscasecmp.pico)
                0x000256d0                _wcscasecmp_l
                0x000256d0                wcscasecmp_l
                0x00025770                _wcscasecmp
                0x00025770                wcscasecmp
 *fill*         0x0002581b        0x5 
 .text          0x00025820       0x5e libc_pic.a(wcsncat.pico)
                0x00025820                wcsncat
 *fill*         0x0002587e        0x2 
 .text          0x00025880       0x62 libc_pic.a(wcslcpy.pico)
                0x00025880                wcslcpy
 *fill*         0x000258e2        0xe 
 .text          0x000258f0       0xb8 libc_pic.a(wcslcat.pico)
                0x000258f0                wcslcat
 *fill*         0x000259a8        0x8 
 .text          0x000259b0      0x180 libc_pic.a(wcscspn.pico)
                0x000259b0                wcscspn
 .text          0x00025b30       0x47 libc_pic.a(wcscat.pico)
                0x00025b30                wcscat
 *fill*         0x00025b77        0x9 
 .text          0x00025b80       0x35 libc_pic.a(popcount64.pico)
                0x00025b80                popcountti2
                0x00025b80                popcount64
                0x00025b80                popcountll
 *fill*         0x00025bb5        0xb 
 .text          0x00025bc0       0x3c libc_pic.a(popcount32.pico)
                0x00025bc0                popcount32
                0x00025bc0                popcountl
                0x00025bc0                popcount
 *fill*         0x00025bfc        0x4 
 .text          0x00025c00       0x79 libc_pic.a(memmem.pico)
                0x00025c00                memmem
 *fill*         0x00025c79        0x7 
 .text          0x00025c80       0x38 libc_pic.a(memccpy.pico)
                0x00025c80                memccpy
 *fill*         0x00025cb8        0x8 
 .text          0x00025cc0       0x3f libc_pic.a(consttime_memequal.pico)
                0x00025cc0                _consttime_memequal
                0x00025cc0                consttime_memequal
 *fill*         0x00025cff        0x1 
 .text          0x00025d00       0xaf libc_pic.a(strnstr.pico)
                0x00025d00                strnstr
 *fill*         0x00025daf        0x1 
 .text          0x00025db0       0xec libc_pic.a(strspn.pico)
                0x00025db0                strspn
 *fill*         0x00025e9c        0x4 
 .text          0x00025ea0       0x37 libc_pic.a(memrchr.pico)
                0x00025ea0                memrchr
 *fill*         0x00025ed7        0x9 
 .text          0x00025ee0       0xbb libc_pic.a(strxfrm.pico)
                0x00025ee0                _strxfrm_l
                0x00025ee0                strxfrm_l
                0x00025f40                strxfrm
 *fill*         0x00025f9b        0x5 
 .text          0x00025fa0       0x35 libc_pic.a(strtok.pico)
                0x00025fa0                strtok
 *fill*         0x00025fd5        0xb 
 .text          0x00025fe0       0x36 libc_pic.a(strsignal.pico)
                0x00025fe0                _strsignal
                0x00025fe0                strsignal
 *fill*         0x00026016        0xa 
 .text          0x00026020      0x1fa libc_pic.a(strmode.pico)
                0x00026020                strmode
 *fill*         0x0002621a        0x6 
 .text          0x00026220       0x1d libc_pic.a(strnlen.pico)
                0x00026220                strnlen
 *fill*         0x0002623d        0x3 
 .text          0x00026240       0xa3 libc_pic.a(strcasestr.pico)
                0x00026240                strcasestr
 *fill*         0x000262e3        0xd 
 .text          0x000262f0       0x2d libc_pic.a(stpcpy.pico)
                0x000262f0                stpcpy
 *fill*         0x0002631d        0x3 
 .text          0x00026320      0x354 libc_pic.a(bm.pico)
                0x00026320                _bm_comp
                0x00026320                bm_comp
                0x000264d0                _bm_free
                0x000264d0                bm_free
                0x00026510                bm_exec
                0x00026510                _bm_exec
 *fill*         0x00026674        0xc 
 .text          0x00026680       0x14 libc_pic.a(llabs.pico)
                0x00026680                imaxabs
                0x00026680                _llabs
                0x00026680                llabs
 *fill*         0x00026694        0xc 
 .text          0x000266a0       0x1b libc_pic.a(ldiv.pico)
                0x000266a0                ldiv
 *fill*         0x000266bb        0x5 
 .text          0x000266c0        0xb libc_pic.a(labs.pico)
                0x000266c0                labs
 *fill*         0x000266cb        0x5 
 .text          0x000266d0       0x1b libc_pic.a(div.pico)
                0x000266d0                div
 *fill*         0x000266eb        0x5 
 .text          0x000266f0        0xb libc_pic.a(abs.pico)
                0x000266f0                abs
 *fill*         0x000266fb        0x5 
 .text          0x00026700      0x16d libc_pic.a(mtab.pico)
                0x00026700                load_mtab
                0x000267e0                get_mtab_entry
 *fill*         0x0002686d        0x3 
 .text          0x00026870      0xe33 libc_pic.a(configfile.pico)
                0x00026870                config_delete
                0x00026930                config_read
                0x00026ce0                config_renewed
                0x00026d00                config_length
 *fill*         0x000276a3        0xd 
 .text          0x000276b0      0xd84 libc_pic.a(strfmon.pico)
                0x000276b0                strfmon
 *fill*         0x00028434        0xc 
 .text          0x00028440      0x117 libc_pic.a(unsetenv.pico)
                0x00028440                __unsetenv13
 *fill*         0x00028557        0x9 
 .text          0x00028560       0xea libc_pic.a(twalk.pico)
                0x00028560                twalk
 *fill*         0x0002864a        0x6 
 .text          0x00028650       0x93 libc_pic.a(tsearch.pico)
                0x00028650                tsearch
 *fill*         0x000286e3        0xd 
 .text          0x000286f0       0x67 libc_pic.a(tfind.pico)
                0x000286f0                tfind
 *fill*         0x00028757        0x9 
 .text          0x00028760       0xcc libc_pic.a(tdelete.pico)
                0x00028760                tdelete
 *fill*         0x0002882c        0x4 
 .text          0x00028830      0x31f libc_pic.a(system.pico)
                0x00028830                system
 *fill*         0x00028b4f        0x1 
 .text          0x00028b50      0x2f3 libc_pic.a(strtouq.pico)
                0x00028b50                strtouq
                0x00028e10                strtouq_l
 *fill*         0x00028e43        0xd 
 .text          0x00028e50      0x2f3 libc_pic.a(strtoull.pico)
                0x00028e50                _strtoull
                0x00028e50                strtoull
                0x00029110                strtoull_l
                0x00029110                _strtoull_l
 *fill*         0x00029143        0xd 
 .text          0x00029150      0x393 libc_pic.a(strtoq.pico)
                0x00029150                strtoq
                0x000294b0                strtoq_l
 *fill*         0x000294e3        0xd 
 .text          0x000294f0       0xa4 libc_pic.a(strtonum.pico)
                0x000294f0                strtonum
 *fill*         0x00029594        0xc 
 .text          0x000295a0      0x1b8 libc_pic.a(strtou.pico)
                0x000295a0                strtou
                0x000295a0                _strtou
                0x00029700                strtou_l
                0x00029700                _strtou_l
 *fill*         0x00029758        0x8 
 .text          0x00029760      0x3d1 libc_pic.a(strsuftoll.pico)
                0x00029760                strsuftoll
                0x00029760                _strsuftoll
                0x000297f0                _strsuftollx
                0x000297f0                strsuftollx
 *fill*         0x00029b31        0xf 
 .text          0x00029b40       0x4c libc_pic.a(srand48.pico)
                0x00029b40                srand48
                0x00029b40                _srand48
 *fill*         0x00029b8c        0x4 
 .text          0x00029b90       0x7c libc_pic.a(seed48.pico)
                0x00029b90                seed48
                0x00029b90                _seed48
 *fill*         0x00029c0c        0x4 
 .text          0x00029c10       0x68 libc_pic.a(reallocarray.pico)
                0x00029c10                reallocarray
 *fill*         0x00029c78        0x8 
 .text          0x00029c80       0x1d libc_pic.a(remque.pico)
                0x00029c80                remque
 *fill*         0x00029c9d        0x3 
 .text          0x00029ca0       0x1a libc_pic.a(rand_r.pico)
                0x00029ca0                rand_r
 *fill*         0x00029cba        0x6 
 .text          0x00029cc0       0x4a libc_pic.a(rand.pico)
                0x00029cc0                rand
                0x00029cf0                srand
 *fill*         0x00029d0a        0x6 
 .text          0x00029d10      0xb79 libc_pic.a(radixsort.pico)
                0x00029d10                _radixsort
                0x00029d10                radixsort
                0x0002a240                _sradixsort
                0x0002a240                sradixsort
 *fill*         0x0002a889        0x7 
 .text          0x0002a890       0x81 libc_pic.a(quick_exit.pico)
                0x0002a890                at_quick_exit
                0x0002a8e0                quick_exit
 *fill*         0x0002a911        0xf 
 .text          0x0002a920      0x11d libc_pic.a(pty.pico)
                0x0002a920                grantpt
                0x0002a960                unlockpt
                0x0002a970                ptsname
                0x0002a9c0                ptsname_r
 *fill*         0x0002aa3d        0x3 
 .text          0x0002aa40       0x2e libc_pic.a(posix_openpt.pico)
                0x0002aa40                posix_openpt
 *fill*         0x0002aa6e        0x2 
 .text          0x0002aa70       0x91 libc_pic.a(qdiv.pico)
                0x0002aa70                _qdiv
                0x0002aa70                qdiv
 *fill*         0x0002ab01        0xf 
 .text          0x0002ab10       0x18 libc_pic.a(qabs.pico)
                0x0002ab10                qabs
                0x0002ab10                _qabs
 *fill*         0x0002ab28        0x8 
 .text          0x0002ab30       0x87 libc_pic.a(putenv.pico)
                0x0002ab30                __putenv50
 *fill*         0x0002abb7        0x9 
 .text          0x0002abc0       0x33 libc_pic.a(nrand48.pico)
                0x0002abc0                nrand48
                0x0002abc0                _nrand48
 *fill*         0x0002abf3        0xd 
 .text          0x0002ac00       0x34 libc_pic.a(mrand48.pico)
                0x0002ac00                _mrand48
                0x0002ac00                mrand48
 *fill*         0x0002ac34        0xc 
 .text          0x0002ac40       0xd6 libc_pic.a(lsearch.pico)
                0x0002ac40                lsearch
                0x0002acc0                lfind
 *fill*         0x0002ad16        0xa 
 .text          0x0002ad20       0x36 libc_pic.a(lrand48.pico)
                0x0002ad20                _lrand48
                0x0002ad20                lrand48
 *fill*         0x0002ad56        0xa 
 .text          0x0002ad60       0x5c libc_pic.a(lcong48.pico)
                0x0002ad60                lcong48
                0x0002ad60                _lcong48
 *fill*         0x0002adbc        0x4 
 .text          0x0002adc0       0x91 libc_pic.a(lldiv.pico)
                0x0002adc0                _lldiv
                0x0002adc0                lldiv
 *fill*         0x0002ae51        0xf 
 .text          0x0002ae60       0xcc libc_pic.a(l64a.pico)
                0x0002ae60                l64a
                0x0002ae60                _l64a
                0x0002aed0                _l64a_r
                0x0002aed0                l64a_r
 *fill*         0x0002af2c        0x4 
 .text          0x0002af30       0x31 libc_pic.a(jrand48.pico)
                0x0002af30                _jrand48
                0x0002af30                jrand48
 *fill*         0x0002af61        0xf 
 .text          0x0002af70       0x29 libc_pic.a(insque.pico)
                0x0002af70                insque
 *fill*         0x0002af99        0x7 
 .text          0x0002afa0       0x91 libc_pic.a(imaxdiv.pico)
                0x0002afa0                _imaxdiv
                0x0002afa0                imaxdiv
 *fill*         0x0002b031        0xf 
 .text          0x0002b040      0x2e3 libc_pic.a(heapsort.pico)
                0x0002b040                heapsort
                0x0002b040                _heapsort
 *fill*         0x0002b323        0xd 
 .text          0x0002b330      0x4e6 libc_pic.a(hcreate.pico)
                0x0002b330                hcreate
                0x0002b400                hcreate_r
                0x0002b4b0                hdestroy1
                0x0002b560                hdestroy1_r
                0x0002b610                hdestroy
                0x0002b680                hdestroy_r
                0x0002b6f0                hsearch
                0x0002b740                hsearch_r
 *fill*         0x0002b816        0xa 
 .text          0x0002b820      0x18d libc_pic.a(getsubopt.pico)
                0x0002b820                _getsubopt
                0x0002b820                getsubopt
 *fill*         0x0002b9ad        0x3 
 .text          0x0002b9b0      0x92f libc_pic.a(getopt_long.pico)
                0x0002b9b0                getopt_long
                0x0002b9b0                _getopt_long
 *fill*         0x0002c2df        0x1 
 .text          0x0002c2e0      0x260 libc_pic.a(getopt.pico)
                0x0002c2e0                getopt
                0x0002c2e0                _getopt
 .text          0x0002c540       0x25 libc_pic.a(drand48.pico)
                0x0002c540                _drand48
                0x0002c540                drand48
 *fill*         0x0002c565        0xb 
 .text          0x0002c570       0x34 libc_pic.a(atoll.pico)
                0x0002c570                _atoll
                0x0002c570                atoll
 *fill*         0x0002c5a4        0xc 
 .text          0x0002c5b0       0x34 libc_pic.a(atol.pico)
                0x0002c5b0                atol
 *fill*         0x0002c5e4        0xc 
 .text          0x0002c5f0       0x2c libc_pic.a(atof.pico)
                0x0002c5f0                atof
 *fill*         0x0002c61c        0x4 
 .text          0x0002c620       0x6d libc_pic.a(a64l.pico)
                0x0002c620                _a64l
                0x0002c620                a64l
 *fill*         0x0002c68d        0x3 
 .text          0x0002c690       0x64 libc_pic.a(tmpnam.pico)
                0x0002c690                tmpnam
 *fill*         0x0002c6f4        0xc 
 .text          0x0002c700      0x1b6 libc_pic.a(tempnam.pico)
                0x0002c700                tempnam
 *fill*         0x0002c8b6        0xa 
 .text          0x0002c8c0      0x474 libc_pic.a(open_wmemstream.pico)
                0x0002c8c0                open_wmemstream
 *fill*         0x0002cd34        0xc 
 .text          0x0002cd40      0x364 libc_pic.a(open_memstream.pico)
                0x0002cd40                open_memstream
 *fill*         0x0002d0a4        0xc 
 .text          0x0002d0b0      0x330 libc_pic.a(fmemopen.pico)
                0x0002d0b0                fmemopen
 .text          0x0002d3e0       0x7f libc_pic.a(wscanf.pico)
                0x0002d3e0                wscanf
                0x0002d420                wscanf_l
                0x0002d420                _wscanf_l
 *fill*         0x0002d45f        0x1 
 .text          0x0002d460       0x82 libc_pic.a(wprintf.pico)
                0x0002d460                wprintf
                0x0002d4a0                wprintf_l
                0x0002d4a0                _wprintf_l
 *fill*         0x0002d4e2        0xe 
 .text          0x0002d4f0       0x7c libc_pic.a(vwscanf.pico)
                0x0002d4f0                vwscanf
                0x0002d530                _vwscanf_l
                0x0002d530                vwscanf_l
 *fill*         0x0002d56c        0x4 
 .text          0x0002d570       0x78 libc_pic.a(vwprintf.pico)
                0x0002d570                _vwprintf_l
                0x0002d570                vwprintf_l
                0x0002d5b0                vwprintf
 *fill*         0x0002d5e8        0x8 
 .text          0x0002d5f0       0x7c libc_pic.a(vscanf.pico)
                0x0002d5f0                vscanf
                0x0002d630                _vscanf_l
                0x0002d630                vscanf_l
 *fill*         0x0002d66c        0x4 
 .text          0x0002d670       0x7f libc_pic.a(vprintf.pico)
                0x0002d670                vprintf
                0x0002d6b0                _vprintf_l
                0x0002d6b0                vprintf_l
 *fill*         0x0002d6ef        0x1 
 .text          0x0002d6f0      0x110 libc_pic.a(tmpfile.pico)
                0x0002d6f0                tmpfile
 .text          0x0002d800       0x7e libc_pic.a(swscanf.pico)
                0x0002d800                swscanf
                0x0002d840                swscanf_l
                0x0002d840                _swscanf_l
 *fill*         0x0002d87e        0x2 
 .text          0x0002d880       0x87 libc_pic.a(swprintf.pico)
                0x0002d880                swprintf
                0x0002d8c0                swprintf_l
                0x0002d8c0                _swprintf_l
 *fill*         0x0002d907        0x9 
 .text          0x0002d910       0x8c libc_pic.a(setbuffer.pico)
                0x0002d910                setbuffer
                0x0002d960                setlinebuf
 *fill*         0x0002d99c        0x4 
 .text          0x0002d9a0       0x41 libc_pic.a(setbuf.pico)
                0x0002d9a0                setbuf
 *fill*         0x0002d9e1        0xf 
 .text          0x0002d9f0       0x7f libc_pic.a(scanf.pico)
                0x0002d9f0                scanf
                0x0002da30                _scanf_l
                0x0002da30                scanf_l
 *fill*         0x0002da6f        0x1 
 .text          0x0002da70       0x61 libc_pic.a(remove.pico)
                0x0002da70                remove
 *fill*         0x0002dad1        0xf 
 .text          0x0002dae0       0x31 libc_pic.a(putwchar.pico)
                0x0002dae0                putwchar
 *fill*         0x0002db11        0xf 
 .text          0x0002db20       0x18 libc_pic.a(putwc.pico)
                0x0002db20                putwc
 *fill*         0x0002db38        0x8 
 .text          0x0002db40       0x5e libc_pic.a(putw.pico)
                0x0002db40                putw
 *fill*         0x0002db9e        0x2 
 .text          0x0002dba0       0x99 libc_pic.a(putc.pico)
                0x0002dba0                putc
                0x0002dbf0                putc_unlocked
 *fill*         0x0002dc39        0x7 
 .text          0x0002dc40       0x49 libc_pic.a(mkostemps.pico)
                0x0002dc40                mkostemps
 *fill*         0x0002dc89        0x7 
 .text          0x0002dc90       0x4a libc_pic.a(mkostemp.pico)
                0x0002dc90                mkostemp
 *fill*         0x0002dcda        0x6 
 .text          0x0002dce0       0x4a libc_pic.a(mkstemps.pico)
                0x0002dce0                mkstemps
 *fill*         0x0002dd2a        0x6 
 .text          0x0002dd30       0x4b libc_pic.a(mkstemp.pico)
                0x0002dd30                _mkstemp
                0x0002dd30                mkstemp
 *fill*         0x0002dd7b        0x5 
 .text          0x0002dd80       0x4c libc_pic.a(mkdtemp.pico)
                0x0002dd80                mkdtemp
 *fill*         0x0002ddcc        0x4 
 .text          0x0002ddd0       0x25 libc_pic.a(getwchar.pico)
                0x0002ddd0                getwchar
 *fill*         0x0002ddf5        0xb 
 .text          0x0002de00       0x18 libc_pic.a(getwc.pico)
                0x0002de00                getwc
 *fill*         0x0002de18        0x8 
 .text          0x0002de20       0x4a libc_pic.a(getw.pico)
                0x0002de20                getw
 *fill*         0x0002de6a        0x6 
 .text          0x0002de70       0x3a libc_pic.a(getline.pico)
                0x0002de70                _getline
                0x0002de70                getline
 *fill*         0x0002deaa        0x6 
 .text          0x0002deb0       0x7e libc_pic.a(getchar.pico)
                0x0002deb0                getchar
                0x0002def0                getchar_unlocked
 *fill*         0x0002df2e        0x2 
 .text          0x0002df30       0x77 libc_pic.a(getc.pico)
                0x0002df30                getc
                0x0002df70                getc_unlocked
 *fill*         0x0002dfa7        0x9 
 .text          0x0002dfb0       0x7e libc_pic.a(fwscanf.pico)
                0x0002dfb0                fwscanf
                0x0002dff0                fwscanf_l
                0x0002dff0                _fwscanf_l
 *fill*         0x0002e02e        0x2 
 .text          0x0002e030       0x7e libc_pic.a(fwprintf.pico)
                0x0002e030                fwprintf
                0x0002e070                _fwprintf_l
                0x0002e070                fwprintf_l
 *fill*         0x0002e0ae        0x2 
 .text          0x0002e0b0       0x39 libc_pic.a(fwide.pico)
                0x0002e0b0                fwide
 *fill*         0x0002e0e9        0x7 
 .text          0x0002e0f0      0x2b0 libc_pic.a(funopen.pico)
                0x0002e0f0                funopen2
                0x0002e170                funopen
 .text          0x0002e3a0       0x88 libc_pic.a(fsetpos.pico)
                0x0002e3a0                __fsetpos50
 *fill*         0x0002e428        0x8 
 .text          0x0002e430       0x7e libc_pic.a(fscanf.pico)
                0x0002e430                fscanf
                0x0002e470                _fscanf_l
                0x0002e470                fscanf_l
 *fill*         0x0002e4ae        0x2 
 .text          0x0002e4b0      0x320 libc_pic.a(freopen.pico)
                0x0002e4b0                freopen
 .text          0x0002e7d0       0x6b libc_pic.a(fputws.pico)
                0x0002e7d0                fputws
 *fill*         0x0002e83b        0x5 
 .text          0x0002e840       0x90 libc_pic.a(fpurge.pico)
                0x0002e840                fpurge
 .text          0x0002e8d0       0x25 libc_pic.a(flockfile.pico)
                0x0002e8d0                _flockfile
                0x0002e8d0                flockfile
                0x0002e8e0                _ftrylockfile
                0x0002e8e0                ftrylockfile
                0x0002e8f0                _funlockfile
                0x0002e8f0                funlockfile
 *fill*         0x0002e8f5        0xb 
 .text          0x0002e900       0x1b libc_pic.a(fileno.pico)
                0x0002e900                _fileno
                0x0002e900                fileno
 *fill*         0x0002e91b        0x5 
 .text          0x0002e920       0xa4 libc_pic.a(fgetws.pico)
                0x0002e920                fgetws
 *fill*         0x0002e9c4        0xc 
 .text          0x0002e9d0       0xe9 libc_pic.a(fgetwln.pico)
                0x0002e9d0                fgetwln
                0x0002e9d0                _fgetwln
 *fill*         0x0002eab9        0x7 
 .text          0x0002eac0       0x78 libc_pic.a(fgetpos.pico)
                0x0002eac0                __fgetpos50
 *fill*         0x0002eb38        0x8 
 .text          0x0002eb40       0x37 libc_pic.a(fgetc.pico)
                0x0002eb40                fgetc
 *fill*         0x0002eb77        0x9 
 .text          0x0002eb80       0x12 libc_pic.a(ferror.pico)
                0x0002eb80                ferror
 *fill*         0x0002eb92        0xe 
 .text          0x0002eba0       0x12 libc_pic.a(feof.pico)
                0x0002eba0                feof
 *fill*         0x0002ebb2        0xe 
 .text          0x0002ebc0       0x7e libc_pic.a(dprintf.pico)
                0x0002ebc0                dprintf
                0x0002ec00                _dprintf_l
                0x0002ec00                dprintf_l
 *fill*         0x0002ec3e        0x2 
 .text          0x0002ec40        0xc libc_pic.a(clrerr.pico)
                0x0002ec40                clearerr
 *fill*         0x0002ec4c        0x4 
 .text          0x0002ec50       0x5c libc_pic.a(vsprintf_chk.pico)
                0x0002ec50                __vsprintf_chk
 *fill*         0x0002ecac        0x4 
 .text          0x0002ecb0       0x45 libc_pic.a(vsnprintf_chk.pico)
                0x0002ecb0                __vsnprintf_chk
 *fill*         0x0002ecf5        0xb 
 .text          0x0002ed00       0x44 libc_pic.a(strncpy_chk.pico)
                0x0002ed00                __strncpy_chk
 *fill*         0x0002ed44        0xc 
 .text          0x0002ed50       0x88 libc_pic.a(strncat_chk.pico)
                0x0002ed50                __strncat_chk
 *fill*         0x0002edd8        0x8 
 .text          0x0002ede0       0x5e libc_pic.a(strcpy_chk.pico)
                0x0002ede0                __strcpy_chk
 *fill*         0x0002ee3e        0x2 
 .text          0x0002ee40       0x7e libc_pic.a(strcat_chk.pico)
                0x0002ee40                __strcat_chk
 *fill*         0x0002eebe        0x2 
 .text          0x0002eec0       0x44 libc_pic.a(stpncpy_chk.pico)
                0x0002eec0                __stpncpy_chk
 *fill*         0x0002ef04        0xc 
 .text          0x0002ef10       0x5e libc_pic.a(stpcpy_chk.pico)
                0x0002ef10                __stpcpy_chk
 *fill*         0x0002ef6e        0x2 
 .text          0x0002ef70       0x5f libc_pic.a(sprintf_chk.pico)
                0x0002ef70                __sprintf_chk
 *fill*         0x0002efcf        0x1 
 .text          0x0002efd0       0x48 libc_pic.a(snprintf_chk.pico)
                0x0002efd0                __snprintf_chk
 *fill*         0x0002f018        0x8 
 .text          0x0002f020       0x40 libc_pic.a(memset_chk.pico)
                0x0002f020                __memset_chk
 .text          0x0002f060       0x40 libc_pic.a(memmove_chk.pico)
                0x0002f060                __memmove_chk
 .text          0x0002f0a0       0x56 libc_pic.a(memcpy_chk.pico)
                0x0002f0a0                __memcpy_chk
 *fill*         0x0002f0f6        0xa 
 .text          0x0002f100       0x4c libc_pic.a(fgets_chk.pico)
                0x0002f100                __fgets_chk
 *fill*         0x0002f14c        0x4 
 .text          0x0002f150       0xb9 libc_pic.a(gets_chk.pico)
                0x0002f150                __gets_chk
 *fill*         0x0002f209        0x7 
 .text          0x0002f210       0x55 libc_pic.a(res_state.pico)
                0x0002f210                __res_get_state_nothread
                0x0002f210                __res_get_state
                0x0002f210                __res_state
                0x0002f260                __res_put_state_nothread
                0x0002f260                __res_put_state
 *fill*         0x0002f265        0xb 
 .text          0x0002f270      0x16b libc_pic.a(herror.pico)
                0x0002f270                _herror
                0x0002f270                herror
                0x0002f3a0                hstrerror
 *fill*         0x0002f3db        0x5 
 .text          0x0002f3e0     0x3624 libc_pic.a(regexec.pico)
                0x0002f3e0                _regexec
                0x0002f3e0                regexec
 *fill*         0x00032a04        0xc 
 .text          0x00032a10      0x31c libc_pic.a(regerror.pico)
                0x00032a10                regerror
                0x00032a10                _regerror
 *fill*         0x00032d2c        0x4 
 .text          0x00032d30     0x43ce libc_pic.a(regcomp.pico)
                0x00032d30                _regcomp
                0x00032d30                regcomp
 *fill*         0x000370fe        0x2 
 .text          0x00037100      0x168 libc_pic.a(if_nameindex.pico)
                0x00037100                if_nameindex
                0x00037100                _if_nameindex
                0x00037250                _if_freenameindex
                0x00037250                if_freenameindex
 *fill*         0x00037268        0x8 
 .text          0x00037270       0xf1 libc_pic.a(inet6_scopeid.pico)
                0x00037270                inet6_getscopeid
                0x000372f0                inet6_putscopeid
 *fill*         0x00037361        0x3 
 .text          0x00037364        0x0 libc_pic.a(vars6.pico)
 *fill*         0x00037364        0xc 
 .text          0x00037370      0x3fb libc_pic.a(rthdr.pico)
                0x00037370                inet6_rthdr_space
                0x00037370                _inet6_rthdr_space
                0x000373a0                inet6_rthdr_init
                0x000373a0                _inet6_rthdr_init
                0x000373e0                inet6_rthdr_add
                0x000373e0                _inet6_rthdr_add
                0x00037450                inet6_rthdr_lasthop
                0x00037450                _inet6_rthdr_lasthop
                0x00037480                inet6_rthdr_segments
                0x00037480                _inet6_rthdr_segments
                0x000374b0                inet6_rthdr_getaddr
                0x000374b0                _inet6_rthdr_getaddr
                0x000374f0                _inet6_rthdr_getflags
                0x000374f0                inet6_rthdr_getflags
                0x00037530                _inet6_rth_space
                0x00037530                inet6_rth_space
                0x00037550                inet6_rth_init
                0x00037550                _inet6_rth_init
                0x000375c0                _inet6_rth_add
                0x000375c0                inet6_rth_add
                0x00037610                _inet6_rth_reverse
                0x00037610                inet6_rth_reverse
                0x000376f0                _inet6_rth_segments
                0x000376f0                inet6_rth_segments
                0x00037730                _inet6_rth_getaddr
                0x00037730                inet6_rth_getaddr
 *fill*         0x0003776b        0x5 
 .text          0x00037770      0x85f libc_pic.a(ip6opt.pico)
                0x00037770                inet6_option_space
                0x00037770                _inet6_option_space
                0x00037790                _inet6_option_init
                0x00037790                inet6_option_init
                0x000377c0                inet6_option_append
                0x000377c0                _inet6_option_append
                0x00037930                inet6_option_alloc
                0x00037930                _inet6_option_alloc
                0x00037a80                _inet6_option_next
                0x00037a80                inet6_option_next
                0x00037b40                inet6_option_find
                0x00037b40                _inet6_option_find
                0x00037c10                _inet6_opt_init
                0x00037c10                inet6_opt_init
                0x00037c50                _inet6_opt_append
                0x00037c50                inet6_opt_append
                0x00037d60                _inet6_opt_finish
                0x00037d60                inet6_opt_finish
                0x00037df0                _inet6_opt_set_val
                0x00037df0                inet6_opt_set_val
                0x00037e30                inet6_opt_next
                0x00037e30                _inet6_opt_next
                0x00037ef0                _inet6_opt_find
                0x00037ef0                inet6_opt_find
                0x00037f90                _inet6_opt_get_val
                0x00037f90                inet6_opt_get_val
 *fill*         0x00037fcf        0x1 
 .text          0x00037fd0       0x3b libc_pic.a(sockatmark.pico)
                0x00037fd0                sockatmark
 *fill*         0x0003800b        0x5 
 .text          0x00038010       0x4b libc_pic.a(recv.pico)
                0x00038010                recv
 *fill*         0x0003805b        0x5 
 .text          0x00038060     0x1dee libc_pic.a(rcmd.pico)
                0x00038060                rcmd
                0x000380c0                rcmd_af
                0x00038d50                orcmd
                0x00038db0                orcmd_af
                0x00038f10                rresvport
                0x00038f50                rresvport_af
                0x00038f90                rresvport_af_addr
                0x000390c0                ruserok
                0x000391c0                iruserok_sa
                0x00039460                iruserok
                0x000394e0                __ivaliduser_sa
                0x00039a00                __ivaliduser
 *fill*         0x00039e4e        0x2 
 .text          0x00039e50      0x2a2 libc_pic.a(linkaddr.pico)
                0x00039e50                link_addr
                0x0003a000                link_ntoa
 *fill*         0x0003a0f2        0xe 
 .text          0x0003a100      0x1f7 libc_pic.a(iso_addr.pico)
                0x0003a100                iso_addr
                0x0003a270                iso_ntoa
 *fill*         0x0003a2f7        0x9 
 .text          0x0003a300       0x8e libc_pic.a(getservent.pico)
                0x0003a300                setservent
                0x0003a300                _setservent
                0x0003a330                _endservent
                0x0003a330                endservent
                0x0003a360                getservent
                0x0003a360                _getservent
 *fill*         0x0003a38e        0x2 
 .text          0x0003a390       0x3c libc_pic.a(getservbyport.pico)
                0x0003a390                _getservbyport
                0x0003a390                getservbyport
 *fill*         0x0003a3cc        0x4 
 .text          0x0003a3d0       0x3c libc_pic.a(getservbyname.pico)
                0x0003a3d0                _getservbyname
                0x0003a3d0                getservbyname
 *fill*         0x0003a40c        0x4 
 .text          0x0003a410       0x8e libc_pic.a(getprotoent.pico)
                0x0003a410                setprotoent
                0x0003a410                _setprotoent
                0x0003a440                endprotoent
                0x0003a440                _endprotoent
                0x0003a470                getprotoent
                0x0003a470                _getprotoent
 *fill*         0x0003a49e        0x2 
 .text          0x0003a4a0       0x35 libc_pic.a(getprotobynumber.pico)
                0x0003a4a0                getprotobynumber
                0x0003a4a0                _getprotobynumber
 *fill*         0x0003a4d5        0xb 
 .text          0x0003a4e0       0x35 libc_pic.a(getprotobyname.pico)
                0x0003a4e0                getprotobyname
                0x0003a4e0                _getprotobyname
 *fill*         0x0003a515        0xb 
 .text          0x0003a520       0x76 libc_pic.a(getpeereid.pico)
                0x0003a520                getpeereid
 *fill*         0x0003a596        0xa 
 .text          0x0003a5a0      0xa05 libc_pic.a(getnetnamadr.pico)
                0x0003a5a0                _getnetbyaddr
                0x0003a5a0                getnetbyaddr
                0x0003a8e0                _getnetbyname
                0x0003a8e0                getnetbyname
 *fill*         0x0003afa5        0xb 
 .text          0x0003afb0      0x4de libc_pic.a(ethers.pico)
                0x0003afb0                _ether_ntoa
                0x0003afb0                ether_ntoa
                0x0003b030                _ether_aton
                0x0003b030                ether_aton
                0x0003b0e0                _ether_ntohost
                0x0003b0e0                ether_ntohost
                0x0003b250                ether_line
                0x0003b250                _ether_line
                0x0003b300                _ether_hostton
                0x0003b300                ether_hostton
 *fill*         0x0003b48e        0x2 
 .text          0x0003b490       0x17 libc_pic.a(initfini.pico)
                0x0003b490                _dlauxinfo
                0x0003b490                ___dlauxinfo
 *fill*         0x0003b4a7        0x9 
 .text          0x0003b4b0      0x286 libc_pic.a(md5hl.pico)
                0x0003b4b0                MD5End
                0x0003b4b0                _MD5End
                0x0003b540                _MD5File
                0x0003b540                MD5File
                0x0003b690                MD5Data
                0x0003b690                _MD5Data
 *fill*         0x0003b736        0xa 
 .text          0x0003b740      0x286 libc_pic.a(md4hl.pico)
                0x0003b740                MD4End
                0x0003b740                _MD4End
                0x0003b7d0                MD4File
                0x0003b7d0                _MD4File
                0x0003b920                _MD4Data
                0x0003b920                MD4Data
 *fill*         0x0003b9c6        0xa 
 .text          0x0003b9d0      0x804 libc_pic.a(md4c.pico)
                0x0003b9d0                MD4Init
                0x0003b9d0                _MD4Init
                0x0003ba10                MD4Update
                0x0003ba10                _MD4Update
                0x0003bb10                MD4Transform
                0x0003c020                _MD4Final
                0x0003c020                MD4Final
 *fill*         0x0003c1d4        0xc 
 .text          0x0003c1e0      0x1ab libc_pic.a(wcsftime.pico)
                0x0003c1e0                wcsftime
                0x0003c230                wcsftime_l
                0x0003c230                _wcsftime_l
 *fill*         0x0003c38b        0x5 
 .text          0x0003c390       0x80 libc_pic.a(wcsxfrm.pico)
                0x0003c390                wcsxfrm_l
                0x0003c3d0                wcsxfrm
 .text          0x0003c410       0x38 libc_pic.a(wcscoll.pico)
                0x0003c410                wcscoll_l
                0x0003c430                wcscoll
 *fill*         0x0003c448        0x8 
 .text          0x0003c450      0x2f3 libc_pic.a(wcstoull.pico)
                0x0003c450                wcstoull
                0x0003c710                wcstoull_l
 *fill*         0x0003c743        0xd 
 .text          0x0003c750      0x223 libc_pic.a(wcstoul.pico)
                0x0003c750                wcstoul
                0x0003c940                wcstoul_l
 *fill*         0x0003c973        0xd 
 .text          0x0003c980      0x373 libc_pic.a(wcstoll.pico)
                0x0003c980                wcstoll
                0x0003ccc0                wcstoll_l
 *fill*         0x0003ccf3        0xd 
 .text          0x0003cd00      0x273 libc_pic.a(wcstol.pico)
                0x0003cd00                wcstol
                0x0003cf40                wcstol_l
 *fill*         0x0003cf73        0xd 
 .text          0x0003cf80       0x9c libc_pic.a(nl_langinfo.pico)
                0x0003cf80                nl_langinfo
                0x0003cfd0                _nl_langinfo_l
                0x0003cfd0                nl_langinfo_l
 *fill*         0x0003d01c        0x4 
 .text          0x0003d020      0x2cd libc_pic.a(newlocale.pico)
                0x0003d020                _newlocale
                0x0003d020                newlocale
 *fill*         0x0003d2ed        0x3 
 .text          0x0003d2f0       0x18 libc_pic.a(freelocale.pico)
                0x0003d2f0                _freelocale
                0x0003d2f0                freelocale
 *fill*         0x0003d308        0x8 
 .text          0x0003d310       0x46 libc_pic.a(duplocale.pico)
                0x0003d310                duplocale
                0x0003d310                _duplocale
 *fill*         0x0003d356        0xa 
 .text          0x0003d360       0xf4 libc_pic.a(assertions.pico)
                0x0003d400                set_assertion_failure_callback
                0x0003d430                assertion_type_to_text
 *fill*         0x0003d454        0xc 
 .text          0x0003d460       0x67 libc_pic.a(inet_ntoa.pico)
                0x0003d460                _inet_ntoa
                0x0003d460                inet_ntoa
 *fill*         0x0003d4c7        0x9 
 .text          0x0003d4d0       0x2b libc_pic.a(inet_netof.pico)
                0x0003d4d0                _inet_netof
                0x0003d4d0                inet_netof
 *fill*         0x0003d4fb        0x5 
 .text          0x0003d500       0xe4 libc_pic.a(inet_neta.pico)
                0x0003d500                _inet_neta
                0x0003d500                inet_neta
 *fill*         0x0003d5e4        0xc 
 .text          0x0003d5f0      0x8f6 libc_pic.a(inet_net_pton.pico)
                0x0003d5f0                inet_net_pton
                0x0003d5f0                _inet_net_pton
 *fill*         0x0003dee6        0xa 
 .text          0x0003def0      0x50f libc_pic.a(inet_net_ntop.pico)
                0x0003def0                _inet_net_ntop
                0x0003def0                inet_net_ntop
 *fill*         0x0003e3ff        0x1 
 .text          0x0003e400       0x4b libc_pic.a(inet_makeaddr.pico)
                0x0003e400                inet_makeaddr
                0x0003e400                _inet_makeaddr
 *fill*         0x0003e44b        0x5 
 .text          0x0003e450       0x2d libc_pic.a(inet_lnaof.pico)
                0x0003e450                _inet_lnaof
                0x0003e450                inet_lnaof
 *fill*         0x0003e47d        0x3 
 .text          0x0003e480      0x546 libc_pic.a(inet_cidr_pton.pico)
                0x0003e480                inet_cidr_pton
                0x0003e480                _inet_cidr_pton
 *fill*         0x0003e9c6        0xa 
 .text          0x0003e9d0      0x63f libc_pic.a(inet_cidr_ntop.pico)
                0x0003e9d0                _inet_cidr_ntop
                0x0003e9d0                inet_cidr_ntop
 *fill*         0x0003f00f        0x1 
 .text          0x0003f010      0x238 libc_pic.a(iconv.pico)
                0x0003f010                _iconv_open
                0x0003f010                iconv_open
                0x0003f070                _iconv_close
                0x0003f070                iconv_close
                0x0003f0b0                _iconv
                0x0003f0b0                iconv
                0x0003f140                __iconv
                0x0003f1e0                __iconv_get_list
                0x0003f230                __iconv_free_list
 *fill*         0x0003f248        0x8 
 .text          0x0003f250       0xab libc_pic.a(murmurhash.pico)
                0x0003f250                _murmurhash2
                0x0003f250                murmurhash2
 *fill*         0x0003f2fb        0x5 
 .text          0x0003f300      0x3bc libc_pic.a(sha512hl.pico)
                0x0003f300                SHA512_End
                0x0003f300                _SHA512_End
                0x0003f390                _SHA512_FileChunk
                0x0003f390                SHA512_FileChunk
                0x0003f5c0                _SHA512_File
                0x0003f5c0                SHA512_File
                0x0003f610                SHA512_Data
                0x0003f610                _SHA512_Data
 *fill*         0x0003f6bc        0x4 
 .text          0x0003f6c0      0x3b9 libc_pic.a(sha384hl.pico)
                0x0003f6c0                SHA384_End
                0x0003f6c0                _SHA384_End
                0x0003f750                _SHA384_FileChunk
                0x0003f750                SHA384_FileChunk
                0x0003f980                _SHA384_File
                0x0003f980                SHA384_File
                0x0003f9d0                SHA384_Data
                0x0003f9d0                _SHA384_Data
 *fill*         0x0003fa79        0x7 
 .text          0x0003fa80      0x3b6 libc_pic.a(sha256hl.pico)
                0x0003fa80                SHA256_End
                0x0003fa80                _SHA256_End
                0x0003fb10                _SHA256_FileChunk
                0x0003fb10                SHA256_FileChunk
                0x0003fd40                SHA256_File
                0x0003fd40                _SHA256_File
                0x0003fd90                SHA256_Data
                0x0003fd90                _SHA256_Data
 *fill*         0x0003fe36        0xa 
 .text          0x0003fe40      0x3b6 libc_pic.a(sha224hl.pico)
                0x0003fe40                SHA224_End
                0x0003fe40                _SHA224_End
                0x0003fed0                SHA224_FileChunk
                0x0003fed0                _SHA224_FileChunk
                0x00040100                SHA224_File
                0x00040100                _SHA224_File
                0x00040150                SHA224_Data
                0x00040150                _SHA224_Data
 *fill*         0x000401f6        0xa 
 .text          0x00040200      0x3b6 libc_pic.a(sha1hl.pico)
                0x00040200                _SHA1End
                0x00040200                SHA1End
                0x00040290                _SHA1FileChunk
                0x00040290                SHA1FileChunk
                0x000404c0                _SHA1File
                0x000404c0                SHA1File
                0x00040510                _SHA1Data
                0x00040510                SHA1Data
 *fill*         0x000405b6        0xa 
 .text          0x000405c0     0x13b5 libc_pic.a(sha1.pico)
                0x000405c0                _SHA1Transform
                0x000405c0                SHA1Transform
                0x00041580                _SHA1Init
                0x00041580                SHA1Init
                0x000415c0                SHA1Update
                0x000415c0                _SHA1Update
                0x000416c0                SHA1Final
                0x000416c0                _SHA1Final
 *fill*         0x00041975        0xb 
 .text          0x00041980      0x3b6 libc_pic.a(rmd160hl.pico)
                0x00041980                RMD160End
                0x00041980                _RMD160End
                0x00041a10                RMD160FileChunk
                0x00041a10                _RMD160FileChunk
                0x00041c40                _RMD160File
                0x00041c40                RMD160File
                0x00041c90                RMD160Data
                0x00041c90                _RMD160Data
 *fill*         0x00041d36        0xa 
 .text          0x00041d40     0x1681 libc_pic.a(rmd160.pico)
                0x00041d40                RMD160Init
                0x00041d40                _RMD160Init
                0x00041d80                RMD160Update
                0x00041d80                _RMD160Update
                0x00041e70                RMD160Transform
                0x00041e70                _RMD160Transform
                0x00043120                RMD160Final
                0x00043120                _RMD160Final
 *fill*         0x000433c1        0xf 
 .text          0x000433d0      0x3b6 libc_pic.a(md2hl.pico)
                0x000433d0                MD2End
                0x000433d0                _MD2End
                0x00043460                _MD2FileChunk
                0x00043460                MD2FileChunk
                0x00043690                MD2File
                0x00043690                _MD2File
                0x000436e0                _MD2Data
                0x000436e0                MD2Data
 *fill*         0x00043786        0xa 
 .text          0x00043790      0x305 libc_pic.a(md2.pico)
                0x00043790                _MD2Init
                0x00043790                MD2Init
                0x00043810                MD2Update
                0x00043810                _MD2Update
                0x00043920                _MD2Transform
                0x00043920                MD2Transform
                0x000439b0                _MD2Final
                0x000439b0                MD2Final
 *fill*         0x00043a95        0xb 
 .text          0x00043aa0       0x57 libc_pic.a(fixunsdfsi.pico)
                0x00043aa0                __fixunsdfsi
 *fill*         0x00043af7        0x9 
 .text          0x00043b00        0xd libc_pic.a(fixdfsi.pico)
                0x00043b00                __fixdfsi
 *fill*         0x00043b0d        0x3 
 .text          0x00043b10        0xc libc_pic.a(signbitl.pico)
                0x00043b10                __signbitl
 *fill*         0x00043b1c        0x4 
 .text          0x00043b20       0x35 libc_pic.a(isnanl.pico)
                0x00043b20                __isnanl
 *fill*         0x00043b55        0xb 
 .text          0x00043b60       0x2d libc_pic.a(isinfl.pico)
                0x00043b60                __isinfl
 *fill*         0x00043b8d        0x3 
 .text          0x00043b90       0x14 libc_pic.a(isfinitel.pico)
                0x00043b90                __isfinitel
 .text          0x00043ba4        0x0 libc_pic.a(infinityl.pico)
 .text          0x00043ba4        0x0 libc_pic.a(nanf.pico)
 *fill*         0x00043ba4        0xc 
 .text          0x00043bb0        0xb libc_pic.a(signbitd_ieee754.pico)
                0x00043bb0                __signbitd
 *fill*         0x00043bbb        0x5 
 .text          0x00043bc0        0xb libc_pic.a(signbitf_ieee754.pico)
                0x00043bc0                __signbitf
 *fill*         0x00043bcb        0x5 
 .text          0x00043bd0       0x15 libc_pic.a(isfinited_ieee754.pico)
                0x00043bd0                __isfinited
 *fill*         0x00043be5        0xb 
 .text          0x00043bf0       0x18 libc_pic.a(isfinitef_ieee754.pico)
                0x00043bf0                __isfinitef
 *fill*         0x00043c08        0x8 
 .text          0x00043c10       0x2c libc_pic.a(isnand_ieee754.pico)
                0x00043c10                isnan
                0x00043c10                __isnand
 *fill*         0x00043c3c        0x4 
 .text          0x00043c40       0x27 libc_pic.a(isnanf_ieee754.pico)
                0x00043c40                __isnanf
 *fill*         0x00043c67        0x9 
 .text          0x00043c70       0x23 libc_pic.a(isinfd_ieee754.pico)
                0x00043c70                isinf
                0x00043c70                __isinfd
 *fill*         0x00043c93        0xd 
 .text          0x00043ca0       0x27 libc_pic.a(isinff_ieee754.pico)
                0x00043ca0                __isinff
 *fill*         0x00043cc7        0x9 
 .text          0x00043cd0       0x42 libc_pic.a(fpclassifyf_ieee754.pico)
                0x00043cd0                __fpclassifyf
 *fill*         0x00043d12        0x2 
 .text          0x00043d14        0x0 libc_pic.a(infinity_ieee754.pico)
 .text          0x00043d14        0x0 libc_pic.a(infinityf_ieee754.pico)
 *fill*         0x00043d14        0xc 
 .text          0x00043d20       0x9a libc_pic.a(sigsetjmp.pico)
                0x00043d20                __sigsetjmp14
                0x00043d70                __siglongjmp14
 *fill*         0x00043dba        0x6 
 .text          0x00043dc0       0x42 libc_pic.a(_setjmp.pico)
                0x00043dc0                _setjmp
                0x00043de0                _longjmp
 *fill*         0x00043e02        0xe 
 .text          0x00043e10       0x84 libc_pic.a(setjmp.pico)
                0x00043e10                __setjmp14
                0x00043e50                __longjmp14
 *fill*         0x00043e94        0xc 
 .text          0x00043ea0       0x29 libc_pic.a(fpsetprec.pico)
                0x00043ea0                fpsetprec
                0x00043ea0                _fpsetprec
 *fill*         0x00043ec9        0x7 
 .text          0x00043ed0       0x13 libc_pic.a(fpgetprec.pico)
                0x00043ed0                fpgetprec
                0x00043ed0                _fpgetprec
 *fill*         0x00043ee3        0xd 
 .text          0x00043ef0       0x25 libc_pic.a(fpsetsticky.pico)
                0x00043ef0                fpsetsticky
                0x00043ef0                _fpsetsticky
 *fill*         0x00043f15        0xb 
 .text          0x00043f20       0x24 libc_pic.a(fpsetround.pico)
                0x00043f20                fpsetround
                0x00043f20                _fpsetround
 *fill*         0x00043f44        0xc 
 .text          0x00043f50       0x25 libc_pic.a(fpsetmask.pico)
                0x00043f50                _fpsetmask
                0x00043f50                fpsetmask
 *fill*         0x00043f75        0xb 
 .text          0x00043f80       0x10 libc_pic.a(fpgetsticky.pico)
                0x00043f80                _fpgetsticky
                0x00043f80                fpgetsticky
 .text          0x00043f90        0xe libc_pic.a(fpgetround.pico)
                0x00043f90                fpgetround
                0x00043f90                _fpgetround
 *fill*         0x00043f9e        0x2 
 .text          0x00043fa0       0x12 libc_pic.a(fpgetmask.pico)
                0x00043fa0                fpgetmask
                0x00043fa0                _fpgetmask
 *fill*         0x00043fb2        0xe 
 .text          0x00043fc0        0x7 libc_pic.a(fabs.pico)
                0x00043fc0                fabs
 *fill*         0x00043fc7        0x9 
 .text          0x00043fd0        0x7 libc_pic.a(byte_swap_4.pico)
                0x00043fd0                ntohl
                0x00043fd0                htonl
                0x00043fd0                __bswap32
 *fill*         0x00043fd7        0x9 
 .text          0x00043fe0        0x8 libc_pic.a(byte_swap_2.pico)
                0x00043fe0                ntohs
                0x00043fe0                htons
                0x00043fe0                __bswap16
 *fill*         0x00043fe8        0x8 
 .text          0x00043ff0       0x19 libc_pic.a(alloca.pico)
                0x00043ff0                alloca
 *fill*         0x00044009        0x7 
 .text          0x00044010      0x8bd libc_pic.a(wordexp.pico)
                0x00044010                wordexp
                0x00044880                wordfree
 *fill*         0x000448cd        0x3 
 .text          0x000448d0       0x35 libc_pic.a(warnc.pico)
                0x000448d0                _warnc
                0x000448d0                warnc
 *fill*         0x00044905        0xb 
 .text          0x00044910       0x3c libc_pic.a(wait.pico)
                0x00044910                wait
                0x00044910                _wait
 *fill*         0x0004494c        0x4 
 .text          0x00044950       0x38 libc_pic.a(valloc.pico)
                0x00044950                valloc
                0x00044950                _valloc
 *fill*         0x00044988        0x8 
 .text          0x00044990       0x7b libc_pic.a(utimens.pico)
                0x00044990                utimens
                0x000449d0                lutimens
 *fill*         0x00044a0b        0x5 
 .text          0x00044a10       0x67 libc_pic.a(utime.pico)
                0x00044a10                __utime50
 *fill*         0x00044a77        0x9 
 .text          0x00044a80      0x209 libc_pic.a(uname.pico)
                0x00044a80                uname
                0x00044a80                _uname
 *fill*         0x00044c89        0x7 
 .text          0x00044c90       0xb9 libc_pic.a(ulimit.pico)
                0x00044c90                ulimit
 *fill*         0x00044d49        0x7 
 .text          0x00044d50       0x9c libc_pic.a(ualarm.pico)
                0x00044d50                ualarm
                0x00044d50                _ualarm
 *fill*         0x00044dec        0x4 
 .text          0x00044df0      0x13c libc_pic.a(ttyslot.pico)
                0x00044df0                _ttyslot
                0x00044df0                ttyslot
 *fill*         0x00044f2c        0x4 
 .text          0x00044f30      0x15b libc_pic.a(ttyname.pico)
                0x00044f30                _ttyname_r
                0x00044f30                ttyname_r
                0x00045040                _ttyname
                0x00045040                ttyname
 *fill*         0x0004508b        0x5 
 .text          0x00045090        0xb libc_pic.a(toascii.pico)
                0x00045090                toascii
 *fill*         0x0004509b        0x5 
 .text          0x000450a0       0x55 libc_pic.a(time.pico)
                0x000450a0                __time50
 *fill*         0x000450f5        0xb 
 .text          0x00045100       0x61 libc_pic.a(sysctlnametomib.pico)
                0x00045100                _sysctlnametomib
                0x00045100                sysctlnametomib
 *fill*         0x00045161        0xf 
 .text          0x00045170      0x135 libc_pic.a(sigsetops.pico)
                0x00045170                __sigaddset14
                0x000451b0                __sigdelset14
                0x00045200                __sigismember14
                0x00045250                __sigemptyset14
                0x00045280                __sigfillset14
 *fill*         0x000452a5        0xb 
 .text          0x000452b0      0x1a3 libc_pic.a(sigset.pico)
                0x000452b0                sigset
 *fill*         0x00045453        0xd 
 .text          0x00045460       0x81 libc_pic.a(sigrelse.pico)
                0x00045460                sigrelse
 *fill*         0x000454e1        0x3 
 .text          0x000454e4        0x0 libc_pic.a(signame.pico)
 *fill*         0x000454e4        0xc 
 .text          0x000454f0       0xba libc_pic.a(siginterrupt.pico)
                0x000454f0                siginterrupt
                0x000454f0                _siginterrupt
 *fill*         0x000455aa        0x6 
 .text          0x000455b0       0x67 libc_pic.a(sigignore.pico)
                0x000455b0                sigignore
 *fill*         0x00045617        0x9 
 .text          0x00045620       0x81 libc_pic.a(sighold.pico)
                0x00045620                sighold
 *fill*         0x000456a1        0xf 
 .text          0x000456b0       0xb1 libc_pic.a(shquotev.pico)
                0x000456b0                shquotev
 *fill*         0x00045761        0xf 
 .text          0x00045770      0x20c libc_pic.a(shquote.pico)
                0x00045770                _shquote
                0x00045770                shquote
 *fill*         0x0004597c        0x4 
 .text          0x00045980        0x5 libc_pic.a(setprogname.pico)
                0x00045980                setprogname
 *fill*         0x00045985        0xb 
 .text          0x00045990       0xc6 libc_pic.a(setproctitle.pico)
                0x00045990                _setproctitle
                0x00045990                setproctitle
 *fill*         0x00045a56        0xa 
 .text          0x00045a60      0xb1c libc_pic.a(setmode.pico)
                0x00045a60                _getmode
                0x00045a60                getmode
                0x00045b90                _setmode
                0x00045b90                setmode
 *fill*         0x0004657c        0x4 
 .text          0x00046580       0x37 libc_pic.a(setjmperr.pico)
                0x00046580                longjmperror
 *fill*         0x000465b7        0x9 
 .text          0x000465c0       0x5f libc_pic.a(sethostname.pico)
                0x000465c0                _sethostname
                0x000465c0                sethostname
 *fill*         0x0004661f        0x1 
 .text          0x00046620       0x5f libc_pic.a(setdomainname.pico)
                0x00046620                _setdomainname
                0x00046620                setdomainname
 *fill*         0x0004667f        0x1 
 .text          0x00046680       0x18 libc_pic.a(seekdir.pico)
                0x00046680                seekdir
                0x00046680                _seekdir
 *fill*         0x00046698        0x8 
 .text          0x000466a0      0x268 libc_pic.a(scandir.pico)
                0x000466a0                __scandir30
 *fill*         0x00046908        0x8 
 .text          0x00046910      0x694 libc_pic.a(randomid.pico)
                0x00046910                _randomid_new
                0x00046910                randomid_new
                0x000469f0                _randomid_delete
                0x000469f0                randomid_delete
                0x00046a10                _randomid
                0x00046a10                randomid
 *fill*         0x00046fa4        0xc 
 .text          0x00046fb0      0x57d libc_pic.a(pw_scan.pico)
                0x00046fb0                __pw_scan
 *fill*         0x0004752d        0x3 
 .text          0x00047530      0xec8 libc_pic.a(ptree.pico)
                0x00047530                ptree_init
                0x000475a0                ptree_insert_node
                0x000478a0                ptree_insert_mask_node
                0x00047950                ptree_find_filtered_node
                0x00047b70                ptree_iterate
                0x00047d80                ptree_remove_node
                0x00047ff0                ptree_check
                0x00048000                ptree_mask_node_p
 *fill*         0x000483f8        0x8 
 .text          0x00048400       0xfd libc_pic.a(psignal.pico)
                0x00048400                _psignal
                0x00048400                psignal
                0x000484d0                psiginfo
 *fill*         0x000484fd        0x3 
 .text          0x00048500      0x16d libc_pic.a(posix_spawnp.pico)
                0x00048500                posix_spawnp
 *fill*         0x0004866d        0x3 
 .text          0x00048670      0x282 libc_pic.a(posix_spawn_fileactions.pico)
                0x00048670                posix_spawn_file_actions_init
                0x000486c0                posix_spawn_file_actions_destroy
                0x00048730                posix_spawn_file_actions_addopen
                0x000487e0                posix_spawn_file_actions_adddup2
                0x00048870                posix_spawn_file_actions_addclose
 *fill*         0x000488f2        0xe 
 .text          0x00048900      0x214 libc_pic.a(posix_spawn_sched.pico)
                0x00048900                posix_spawnattr_init
                0x00048970                posix_spawnattr_destroy
                0x00048980                posix_spawnattr_getflags
                0x000489a0                posix_spawnattr_getpgroup
                0x000489c0                posix_spawnattr_getschedparam
                0x000489e0                posix_spawnattr_getschedpolicy
                0x00048a00                posix_spawnattr_getsigdefault
                0x00048a30                posix_spawnattr_getsigmask
                0x00048a60                posix_spawnattr_setflags
                0x00048a80                posix_spawnattr_setpgroup
                0x00048a90                posix_spawnattr_setschedparam
                0x00048ab0                posix_spawnattr_setschedpolicy
                0x00048ac0                posix_spawnattr_setsigdefault
                0x00048af0                posix_spawnattr_setsigmask
 *fill*         0x00048b14        0xc 
 .text          0x00048b20      0x4ec libc_pic.a(popen.pico)
                0x00048b20                popen
                0x00048b20                _popen
                0x00048e40                popenve
                0x00048f50                pclose
                0x00048f50                _pclose
 *fill*         0x0004900c        0x4 
 .text          0x00049010       0x4e libc_pic.a(pause.pico)
                0x00049010                pause
                0x00049010                _pause
 *fill*         0x0004905e        0x2 
 .text          0x00049060        0x0 libc_pic.a(nlist_elf64.pico)
 .text          0x00049060        0x0 libc_pic.a(nlist_ecoff.pico)
 .text          0x00049060        0x0 libc_pic.a(nlist_coff.pico)
 .text          0x00049060       0xbd libc_pic.a(nlist.pico)
                0x00049060                nlist
                0x000490e0                __fdnlist
 *fill*         0x0004911d        0x3 
 .text          0x00049120       0x9b libc_pic.a(nice.pico)
                0x00049120                _nice
                0x00049120                nice
 *fill*         0x000491bb        0x5 
 .text          0x000491c0      0x17e libc_pic.a(nftw.pico)
                0x000491c0                nftw
 *fill*         0x0004933e        0x2 
 .text          0x00049340       0x11 libc_pic.a(isascii.pico)
                0x00049340                isascii
 *fill*         0x00049351        0xf 
 .text          0x00049360       0xeb libc_pic.a(initgroups.pico)
                0x00049360                _initgroups
                0x00049360                initgroups
 *fill*         0x0004944b        0x5 
 .text          0x00049450      0x49f libc_pic.a(humanize_number.pico)
                0x00049450                humanize_number
 *fill*         0x000498ef        0x1 
 .text          0x000498f0     0x1653 libc_pic.a(glob.pico)
                0x000498f0                __glob30
                0x0004a1f0                __globfree30
                0x0004a260                glob_pattern_p
 *fill*         0x0004af43        0xd 
 .text          0x0004af50      0x32b libc_pic.a(getusershell.pico)
                0x0004af50                _endusershell
                0x0004af50                endusershell
                0x0004b000                getusershell
                0x0004b000                _getusershell
                0x0004b1b0                _setusershell
                0x0004b1b0                setusershell
 *fill*         0x0004b27b        0x5 
 .text          0x0004b280      0xa8b libc_pic.a(getttyent.pico)
                0x0004b280                getttynam
                0x0004b280                _getttynam
                0x0004b300                setttyent
                0x0004b300                _setttyent
                0x0004b330                _getttyent
                0x0004b330                getttyent
                0x0004bbc0                endttyent
                0x0004bbc0                _endttyent
                0x0004bc10                _setttyentpath
                0x0004bc10                setttyentpath
 *fill*         0x0004bd0b        0x5 
 .text          0x0004bd10      0x228 libc_pic.a(getpass.pico)
                0x0004bd10                _getpass
                0x0004bd10                getpass
 *fill*         0x0004bf38        0x8 
 .text          0x0004bf40       0xf4 libc_pic.a(getmntinfo.pico)
                0x0004bf40                __getmntinfo13
 *fill*         0x0004c034        0xc 
 .text          0x0004c040       0xe3 libc_pic.a(getlogin.pico)
                0x0004c040                getlogin
                0x0004c040                _getlogin
                0x0004c0a0                _getlogin_r
                0x0004c0a0                getlogin_r
 *fill*         0x0004c123        0xd 
 .text          0x0004c130       0xb8 libc_pic.a(getloadavg.pico)
                0x0004c130                getloadavg
                0x0004c130                _getloadavg
 *fill*         0x0004c1e8        0x8 
 .text          0x0004c1f0       0x52 libc_pic.a(getgrouplist.pico)
                0x0004c1f0                getgrouplist
                0x0004c1f0                _getgrouplist
 *fill*         0x0004c242        0xe 
 .text          0x0004c250       0x8c libc_pic.a(getdomainname.pico)
                0x0004c250                _getdomainname
                0x0004c250                getdomainname
 *fill*         0x0004c2dc        0x4 
 .text          0x0004c2e0     0x1638 libc_pic.a(getcap.pico)
                0x0004c2e0                cgetset
                0x0004c2e0                _cgetset
                0x0004c410                _cgetcap
                0x0004c410                cgetcap
                0x0004c4d0                cgetent
                0x0004c4d0                _cgetent
                0x0004cec0                csetexpandtc
                0x0004cec0                _csetexpandtc
                0x0004cee0                cgetmatch
                0x0004cee0                _cgetmatch
                0x0004cf60                _cgetfirst
                0x0004cf60                cgetfirst
                0x0004cfc0                _cgetclose
                0x0004cfc0                cgetclose
                0x0004d010                cgetnext
                0x0004d010                _cgetnext
                0x0004d390                cgetstr
                0x0004d390                _cgetstr
                0x0004d670                cgetustr
                0x0004d670                _cgetustr
                0x0004d7f0                _cgetnum
                0x0004d7f0                cgetnum
 *fill*         0x0004d918        0x8 
 .text          0x0004d920      0x1b7 libc_pic.a(getbsize.pico)
                0x0004d920                getbsize
                0x0004d920                _getbsize
 *fill*         0x0004dad7        0x9 
 .text          0x0004dae0      0x12e libc_pic.a(ftw.pico)
                0x0004dae0                ftw
 *fill*         0x0004dc0e        0x2 
 .text          0x0004dc10       0x59 libc_pic.a(ftok.pico)
                0x0004dc10                _ftok
                0x0004dc10                ftok
 *fill*         0x0004dc69        0x7 
 .text          0x0004dc70      0x813 libc_pic.a(fstab.pico)
                0x0004dc70                getfsent
                0x0004dc70                _getfsent
                0x0004dcf0                setfsent
                0x0004dcf0                _setfsent
                0x0004e2f0                getfsspec
                0x0004e2f0                _getfsspec
                0x0004e3a0                getfsfile
                0x0004e3a0                _getfsfile
                0x0004e450                _endfsent
                0x0004e450                endfsent
 *fill*         0x0004e483        0xd 
 .text          0x0004e490      0x627 libc_pic.a(fnmatch.pico)
                0x0004e490                _fnmatch
                0x0004e490                fnmatch
 *fill*         0x0004eab7        0x9 
 .text          0x0004eac0      0x588 libc_pic.a(fmtmsg.pico)
                0x0004eac0                fmtmsg
 *fill*         0x0004f048        0x8 
 .text          0x0004f050      0x4d4 libc_pic.a(fmtcheck.pico)
                0x0004f050                __fmtcheck
                0x0004f050                fmtcheck
 *fill*         0x0004f524        0xc 
 .text          0x0004f530       0x37 libc_pic.a(execv.pico)
                0x0004f530                _execv
                0x0004f530                execv
 *fill*         0x0004f567        0x9 
 .text          0x0004f570      0x129 libc_pic.a(execlp.pico)
                0x0004f570                _execlp
                0x0004f570                execlp
                0x0004f600                execlpe
                0x0004f600                _execlpe
 *fill*         0x0004f699        0x7 
 .text          0x0004f6a0       0x99 libc_pic.a(execle.pico)
                0x0004f6a0                execle
                0x0004f6a0                _execle
 *fill*         0x0004f739        0x3 
 .text          0x0004f73c        0x0 libc_pic.a(errno.pico)
 *fill*         0x0004f73c        0x4 
 .text          0x0004f740       0x37 libc_pic.a(errc.pico)
                0x0004f740                _errc
                0x0004f740                errc
 *fill*         0x0004f777        0x9 
 .text          0x0004f780       0x2f libc_pic.a(errx.pico)
                0x0004f780                errx
                0x0004f780                _errx
 *fill*         0x0004f7af        0x1 
 .text          0x0004f7b0       0x2f libc_pic.a(err.pico)
                0x0004f7b0                _err
                0x0004f7b0                err
 *fill*         0x0004f7df        0x1 
 .text          0x0004f7e0       0xe8 libc_pic.a(dirname.pico)
                0x0004f7e0                _dirname
                0x0004f7e0                dirname
 *fill*         0x0004f8c8        0x8 
 .text          0x0004f8d0      0x156 libc_pic.a(dehumanize_number.pico)
                0x0004f8d0                dehumanize_number
 *fill*         0x0004fa26        0xa 
 .text          0x0004fa30       0xd4 libc_pic.a(daemon.pico)
                0x0004fa30                _daemon
                0x0004fa30                daemon
 *fill*         0x0004fb04        0xc 
 .text          0x0004fb10       0x46 libc_pic.a(ctermid.pico)
                0x0004fb10                _ctermid
                0x0004fb10                ctermid
 *fill*         0x0004fb56        0xa 
 .text          0x0004fb60       0x2c libc_pic.a(clock.pico)
                0x0004fb60                clock
 *fill*         0x0004fb8c        0x4 
 .text          0x0004fb90       0xcc libc_pic.a(basename.pico)
                0x0004fb90                _basename
                0x0004fb90                basename
 *fill*         0x0004fc5c        0x4 
 .text          0x0004fc60      0x13a libc_pic.a(asysctl.pico)
                0x0004fc60                _asysctl
                0x0004fc60                asysctl
                0x0004fd20                _asysctlbyname
                0x0004fd20                asysctlbyname
 *fill*         0x0004fd9a        0x6 
 .text          0x0004fda0       0x90 libc_pic.a(alarm.pico)
                0x0004fda0                alarm
                0x0004fda0                _alarm
 .text          0x0004fe30       0x21 libc_pic.a(fslib.pico)
                0x0004fe30                bitmapsize
 *fill*         0x0004fe51        0xf 
 .text          0x0004fe60       0x3b libc_pic.a(read_tsc_64.pico)
                0x0004fe60                read_tsc_64
 *fill*         0x0004fe9b        0x5 
 .text          0x0004fea0      0x1a3 libc_pic.a(itoa.pico)
                0x0004fea0                itoa
 *fill*         0x00050043        0xd 
 .text          0x00050050       0xb8 libc_pic.a(gcov.pico)
                0x00050050                _gcov_fopen
                0x00050070                _gcov_fread
                0x00050090                _gcov_fwrite
                0x000500b0                _gcov_fclose
                0x000500d0                _gcov_fseek
                0x000500f0                _gcov_getenv
 *fill*         0x00050108        0x8 
 .text          0x00050110      0x1c4 libc_pic.a(fsversion.pico)
                0x00050110                fsversion
 *fill*         0x000502d4        0xc 
 .text          0x000502e0      0x1bc libc_pic.a(dlfcn_elf.pico)
                0x000502e0                ___dlopen
                0x000502e0                dlopen
                0x000502e0                __dlopen
                0x000502f0                __dlclose
                0x000502f0                ___dlclose
                0x000502f0                dlclose
                0x00050300                dlsym
                0x00050300                ___dlsym
                0x00050300                __dlsym
                0x00050310                ___dlvsym
                0x00050310                __dlvsym
                0x00050310                dlvsym
                0x00050320                __dlerror
                0x00050320                dlerror
                0x00050320                ___dlerror
                0x00050340                ___dladdr
                0x00050340                dladdr
                0x00050340                __dladdr
                0x00050350                ___dlinfo
                0x00050350                dlinfo
                0x00050350                __dlinfo
                0x00050360                ___dl_iterate_phdr
                0x00050360                __dl_iterate_phdr
                0x00050360                dl_iterate_phdr
 *fill*         0x0005049c        0x4 
 .text          0x000504a0      0x559 libc_pic.a(InstrProfilingFile.pico)
                0x000504a0                __llvm_profile_initialize_file
                0x000506d0                __llvm_profile_set_filename
                0x00050740                __llvm_profile_write_file
                0x000509b0                __llvm_profile_register_write_file_atexit
 *fill*         0x000509f9        0x7 
 .text          0x00050a00      0x1d5 libc_pic.a(InstrProfilingBuffer.pico)
                0x00050a00                __llvm_profile_get_size_for_buffer
                0x00050a70                __llvm_profile_write_buffer
 *fill*         0x00050bd5        0xb 
 .text          0x00050be0       0x5d libc_pic.a(InstrProfiling.pico)
                0x00050be0                __llvm_profile_get_magic
                0x00050bf0                __llvm_profile_get_version
                0x00050c00                __llvm_profile_reset_counters
 *fill*         0x00050c3d        0x3 
 .text          0x00050c40     0x1d60 libc_pic.a(GCDAProfiling.pico)
                0x00050c40                llvm_gcda_start_file
                0x00051220                llvm_gcda_increment_indirect_counter
                0x00051250                llvm_gcda_emit_function
                0x00051820                llvm_gcda_emit_arcs
                0x00051be0                llvm_gcda_summary_info
                0x00052560                llvm_gcda_end_file
                0x000526e0                llvm_register_writeout_function
                0x00052740                llvm_writeout_files
                0x00052770                llvm_delete_writeout_function_list
                0x000527d0                llvm_register_flush_function
                0x00052830                __gcov_flush
                0x00052860                llvm_delete_flush_function_list
                0x000528c0                llvm_gcov_init
 .text          0x000529a0      0x39d libc_pic.a(udivmoddi4.pico)
                0x000529a0                __udivmoddi4
 *fill*         0x00052d3d        0x3 
 .text          0x00052d40       0x2f libc_pic.a(ucmpdi2.pico)
                0x00052d40                __ucmpdi2
 *fill*         0x00052d6f        0x1 
 .text          0x00052d70        0xf libc_pic.a(negdi2.pico)
                0x00052d70                __negdi2
 *fill*         0x00052d7f        0x1 
 .text          0x00052d80       0x1f libc_pic.a(muldi3.pico)
                0x00052d80                __muldi3
 *fill*         0x00052d9f        0x1 
 .text          0x00052da0       0x21 libc_pic.a(lshrdi3.pico)
                0x00052da0                __lshrdi3
 *fill*         0x00052dc1        0xf 
 .text          0x00052dd0       0x63 libc_pic.a(divmoddi4.pico)
                0x00052dd0                __divmoddi4
 *fill*         0x00052e33        0x1 
 .text          0x00052e34       0x22 libc_pic.a(ashrdi3.pico)
                0x00052e34                __ashrdi3
 *fill*         0x00052e56        0x2 
 .text          0x00052e58       0x21 libc_pic.a(ashldi3.pico)
                0x00052e58                __ashldi3
 *fill*         0x00052e79        0x7 
 .text          0x00052e80       0x2f libc_pic.a(cmpdi2.pico)
                0x00052e80                __cmpdi2
 *fill*         0x00052eaf        0x1 
 .text          0x00052eb0       0x23 libc_pic.a(ffsdi2.pico)
                0x00052eb0                __ffsdi2
 *fill*         0x00052ed3        0xd 
 .text          0x00052ee0       0x23 libc_pic.a(ctzdi2.pico)
                0x00052ee0                __ctzdi2
 *fill*         0x00052f03        0xd 
 .text          0x00052f10       0x26 libc_pic.a(clzdi2.pico)
                0x00052f10                __clzdi2
 *fill*         0x00052f36        0xa 
 .text          0x00052f40       0x11 libc_pic.a(subvdi3.pico)
                0x00052f40                __subvdi3
 *fill*         0x00052f51        0xf 
 .text          0x00052f60       0x78 libc_pic.a(popcountdi2.pico)
                0x00052f60                __popcountdi2
 *fill*         0x00052fd8        0x8 
 .text          0x00052fe0       0x25 libc_pic.a(paritydi2.pico)
                0x00052fe0                __paritydi2
 *fill*         0x00053005        0xb 
 .text          0x00053010       0x51 libc_pic.a(negvdi2.pico)
                0x00053010                __negvdi2
 *fill*         0x00053061        0xf 
 .text          0x00053070      0x1f8 libc_pic.a(mulvdi3.pico)
                0x00053070                __mulvdi3
 *fill*         0x00053268        0x8 
 .text          0x00053270      0x165 libc_pic.a(mulodi4.pico)
                0x00053270                __mulodi4
 *fill*         0x000533d5        0xb 
 .text          0x000533e0       0x11 libc_pic.a(addvdi3.pico)
                0x000533e0                __addvdi3
 *fill*         0x000533f1        0xf 
 .text          0x00053400       0x58 libc_pic.a(absvdi2.pico)
                0x00053400                __absvdi2
 *fill*         0x00053458        0x8 
 .text          0x00053460       0x36 libc_pic.a(umodsi3.pico)
                0x00053460                __umodsi3
 *fill*         0x00053496        0xa 
 .text          0x000534a0       0x39 libc_pic.a(udivmodsi4.pico)
                0x000534a0                __udivmodsi4
 *fill*         0x000534d9        0x7 
 .text          0x000534e0       0x36 libc_pic.a(modsi3.pico)
                0x000534e0                __modsi3
 *fill*         0x00053516        0xa 
 .text          0x00053520       0x39 libc_pic.a(divmodsi4.pico)
                0x00053520                __divmodsi4
 *fill*         0x00053559        0x7 
 .text          0x00053560       0x62 libc_pic.a(ctzsi2.pico)
                0x00053560                __ctzsi2
 *fill*         0x000535c2        0xe 
 .text          0x000535d0       0x72 libc_pic.a(clzsi2.pico)
                0x000535d0                __clzsi2
 *fill*         0x00053642        0x2 
 .text          0x00053644        0x0 libc_pic.a(floatuntixf.pico)
 .text          0x00053644        0x0 libc_pic.a(floatuntisf.pico)
 .text          0x00053644        0x0 libc_pic.a(floatuntidf.pico)
 .text          0x00053644        0x0 libc_pic.a(floattixf.pico)
 .text          0x00053644        0x0 libc_pic.a(floattisf.pico)
 .text          0x00053644        0x0 libc_pic.a(floattidf.pico)
 .text          0x00053644        0x0 libc_pic.a(fixxfti.pico)
 .text          0x00053644        0x0 libc_pic.a(fixunsxfti.pico)
 .text          0x00053644        0x0 libc_pic.a(fixunssfti.pico)
 .text          0x00053644        0x0 libc_pic.a(fixunsdfti.pico)
 .text          0x00053644        0x0 libc_pic.a(umodti3.pico)
 .text          0x00053644        0x0 libc_pic.a(udivti3.pico)
 .text          0x00053644        0x0 libc_pic.a(udivmodti4.pico)
 .text          0x00053644        0x0 libc_pic.a(ucmpti2.pico)
 .text          0x00053644        0x0 libc_pic.a(subvti3.pico)
 *fill*         0x00053644        0xc 
 .text          0x00053650        0xb libc_pic.a(subvsi3.pico)
                0x00053650                __subvsi3
 *fill*         0x0005365b        0x5 
 .text          0x00053660       0x38 libc_pic.a(powixf2.pico)
                0x00053660                __powixf2
 .text          0x00053698        0x0 libc_pic.a(powitf2.pico)
 *fill*         0x00053698        0x8 
 .text          0x000536a0       0x38 libc_pic.a(powisf2.pico)
                0x000536a0                __powisf2
 *fill*         0x000536d8        0x8 
 .text          0x000536e0       0x38 libc_pic.a(powidf2.pico)
                0x000536e0                __powidf2
 .text          0x00053718        0x0 libc_pic.a(popcountti2.pico)
 *fill*         0x00053718        0x8 
 .text          0x00053720       0x44 libc_pic.a(popcountsi2.pico)
                0x00053720                __popcountsi2
 .text          0x00053764        0x0 libc_pic.a(parityti2.pico)
 *fill*         0x00053764        0xc 
 .text          0x00053770       0x2a libc_pic.a(paritysi2.pico)
                0x00053770                __paritysi2
 *fill*         0x0005379a        0x2 
 .text          0x0005379c        0x0 libc_pic.a(negvti2.pico)
 *fill*         0x0005379c        0x4 
 .text          0x000537a0       0x45 libc_pic.a(negvsi2.pico)
                0x000537a0                __negvsi2
 *fill*         0x000537e5        0x3 
 .text          0x000537e8        0x0 libc_pic.a(negti2.pico)
 *fill*         0x000537e8        0x8 
 .text          0x000537f0       0x17 libc_pic.a(negsf2.pico)
                0x000537f0                __negsf2
 *fill*         0x00053807        0x9 
 .text          0x00053810       0x22 libc_pic.a(negdf2.pico)
                0x00053810                __negdf2
 *fill*         0x00053832        0x2 
 .text          0x00053834        0x0 libc_pic.a(mulvti3.pico)
 *fill*         0x00053834        0xc 
 .text          0x00053840      0x118 libc_pic.a(mulvsi3.pico)
                0x00053840                __mulvsi3
 .text          0x00053958        0x0 libc_pic.a(multi3.pico)
 .text          0x00053958        0x0 libc_pic.a(muloti4.pico)
 *fill*         0x00053958        0x8 
 .text          0x00053960       0x7c libc_pic.a(mulosi4.pico)
                0x00053960                __mulosi4
 *fill*         0x000539dc        0x4 
 .text          0x000539e0      0x3ca libc_pic.a(muldc3.pico)
                0x000539e0                __muldc3
 *fill*         0x00053daa        0x2 
 .text          0x00053dac        0x0 libc_pic.a(modti3.pico)
 .text          0x00053dac        0x0 libc_pic.a(lshrti3.pico)
 .text          0x00053dac        0x0 libc_pic.a(int_util.pico)
 .text          0x00053dac       0x3f libc_pic.a(floatundixf.pico)
                0x00053dac                __floatundixf
 *fill*         0x00053deb        0x1 
 .text          0x00053dec       0x6c libc_pic.a(floatundisf.pico)
                0x00053dec                __floatundisf
 .text          0x00053e58       0x39 libc_pic.a(floatundidf.pico)
                0x00053e58                __floatundidf
 *fill*         0x00053e91        0x3 
 .text          0x00053e94       0x1b libc_pic.a(floatdixf.pico)
                0x00053e94                __floatdixf
 *fill*         0x00053eaf        0x1 
 .text          0x00053eb0       0x23 libc_pic.a(floatdisf.pico)
                0x00053eb0                __floatdisf
 *fill*         0x00053ed3        0x1 
 .text          0x00053ed4       0x39 libc_pic.a(floatdidf.pico)
                0x00053ed4                __floatdidf
 *fill*         0x00053f0d        0x3 
 .text          0x00053f10       0x80 libc_pic.a(fixxfdi.pico)
                0x00053f10                __fixxfdi
 .text          0x00053f90       0x4c libc_pic.a(fixunsxfsi.pico)
                0x00053f90                __fixunsxfsi
 *fill*         0x00053fdc        0x4 
 .text          0x00053fe0       0x6a libc_pic.a(fixunsxfdi.pico)
                0x00053fe0                __fixunsxfdi
 *fill*         0x0005404a        0x6 
 .text          0x00054050       0x46 libc_pic.a(fixunssfsi.pico)
                0x00054050                __fixunssfsi
 *fill*         0x00054096        0xa 
 .text          0x000540a0       0x6d libc_pic.a(fixunssfdi.pico)
                0x000540a0                __fixunssfdi
 *fill*         0x0005410d        0x3 
 .text          0x00054110       0x87 libc_pic.a(fixunsdfdi.pico)
                0x00054110                __fixunsdfdi
 *fill*         0x00054197        0x9 
 .text          0x000541a0       0x97 libc_pic.a(fixdfdi.pico)
                0x000541a0                __fixdfdi
 *fill*         0x00054237        0x9 
 .text          0x00054240       0x7d libc_pic.a(fixsfdi.pico)
                0x00054240                __fixsfdi
 *fill*         0x000542bd        0x3 
 .text          0x000542c0        0x0 libc_pic.a(ffsti2.pico)
 .text          0x000542c0        0x0 libc_pic.a(divti3.pico)
 .text          0x000542c0        0x0 libc_pic.a(ctzti2.pico)
 .text          0x000542c0        0x0 libc_pic.a(cmpti2.pico)
 .text          0x000542c0        0x0 libc_pic.a(clzti2.pico)
 .text          0x000542c0        0x0 libc_pic.a(ashrti3.pico)
 .text          0x000542c0        0x0 libc_pic.a(ashlti3.pico)
 .text          0x000542c0        0x0 libc_pic.a(addvti3.pico)
 .text          0x000542c0        0xb libc_pic.a(addvsi3.pico)
                0x000542c0                __addvsi3
 *fill*         0x000542cb        0x1 
 .text          0x000542cc        0x0 libc_pic.a(absvti2.pico)
 *fill*         0x000542cc        0x4 
 .text          0x000542d0       0x4c libc_pic.a(absvsi2.pico)
                0x000542d0                __absvsi2
 *fill*         0x0005431c        0x4 
 .text          0x00054320      0x2cf libc_pic.a(gcc_personality_v0.pico)
                0x00054320                __gcc_personality_v0
 *fill*         0x000545ef        0x1 
 .text          0x000545f0       0x57 libc_pic.a(getwd.pico)
                0x000545f0                getwd
 *fill*         0x00054647        0x9 
 .text          0x00054650      0x1df libc_pic.a(sigcompat.pico)
                0x00054650                sigvec
                0x00054700                sigsetmask
                0x00054770                sigblock
                0x000547e0                sigpause
 *fill*         0x0005482f        0x1 
 .text          0x00054830       0x18 libc_pic.a(setpgrp.pico)
                0x00054830                setpgrp
 *fill*         0x00054848        0x8 
 .text          0x00054850       0x66 libc_pic.a(sethostid.pico)
                0x00054850                sethostid
 *fill*         0x000548b6        0xa 
 .text          0x000548c0       0x44 libc_pic.a(killpg.pico)
                0x000548c0                killpg
 *fill*         0x00054904        0xc 
 .text          0x00054910       0x67 libc_pic.a(gethostid.pico)
                0x00054910                gethostid
 *fill*         0x00054977        0x9 
 .text          0x00054980       0x23 libc_pic.a(getdtablesize.pico)
                0x00054980                getdtablesize
 *fill*         0x000549a3        0xd 
 .text          0x000549b0       0x33 libc_pic.a(creat.pico)
                0x000549b0                creat
 *fill*         0x000549e3        0xd 
 .text          0x000549f0       0x55 libc_pic.a(citrus_stdenc.pico)
                0x000549f0                _citrus_stdenc_open
                0x00054a40                _citrus_stdenc_close
 *fill*         0x00054a45        0xb 
 .text          0x00054a50      0x74f libc_pic.a(citrus_iconv.pico)
                0x00054a50                _citrus_iconv_open
                0x00055160                _citrus_iconv_close
 *fill*         0x0005519f        0x1 
 .text          0x000551a0      0x8b8 libc_pic.a(citrus_esdb.pico)
                0x000551a0                _citrus_esdb_alias
                0x000551f0                _citrus_esdb_open
                0x000556b0                _citrus_esdb_close
                0x00055730                _citrus_esdb_free_list
                0x00055770                _citrus_esdb_get_list
 *fill*         0x00055a58        0x8 
 .text          0x00055a60      0x4ab libc_pic.a(citrus_ctype_fallback.pico)
                0x00055a60                _citrus_ctype_btowc_fallback
                0x00055b20                _citrus_ctype_wctob_fallback
                0x00055bd0                _citrus_ctype_mbsnrtowcs_fallback
                0x00055d30                _citrus_ctype_wcsnrtombs_fallback
 *fill*         0x00055f0b        0x5 
 .text          0x00055f10      0x86f libc_pic.a(citrus_csmapper.pico)
                0x00055f10                _citrus_csmapper_open
 *fill*         0x0005677f        0x1 
 .text          0x00056780      0x1cd libc_pic.a(citrus_bcs_strtoul.pico)
                0x00056780                _citrus_bcs_strtoul
 *fill*         0x0005694d        0x3 
 .text          0x00056950      0x141 libc_pic.a(ndbm.pico)
                0x00056950                dbm_open
                0x00056a30                dbm_close
                0x00056a40                dbm_error
                0x00056a60                dbm_clearerr
                0x00056a80                dbm_dirfno
 *fill*         0x00056a91        0xf 
 .text          0x00056aa0      0x216 libc_pic.a(ndbmdatum.pico)
                0x00056aa0                __dbm_fetch13
                0x00056b20                __dbm_firstkey13
                0x00056b90                __dbm_nextkey13
                0x00056c00                __dbm_delete13
                0x00056c50                __dbm_store13
 *fill*         0x00056cb6        0x2 
 .text          0x00056cb8        0x0 libc_pic.a(bt_debug.pico)
 *fill*         0x00056cb8        0x8 
 .text          0x00056cc0     0x118a libc_pic.a(cdbw.pico)
                0x00056cc0                cdbw_open
                0x00056cc0                _cdbw_open
                0x00056d50                cdbw_put
                0x00056d50                _cdbw_put
                0x00056de0                _cdbw_put_data
                0x00056de0                cdbw_put_data
                0x00056ee0                _cdbw_put_key
                0x00056ee0                cdbw_put_key
                0x00057130                cdbw_close
                0x00057130                _cdbw_close
                0x00057200                cdbw_stable_seeder
                0x00057210                _cdbw_output
                0x00057210                cdbw_output
 *fill*         0x00057e4a        0x2 
 .text          0x00057e4c        0x0 libc_pic.a(atomic_init_cas.pico)
 .text          0x00057e4c        0x0 libc_pic.a(atomic_cas_64_cas.pico)
 .text          0x00057e4c        0x0 libc_pic.a(atomic_sub_64_cas.pico)
 .text          0x00057e4c        0x0 libc_pic.a(atomic_xor_64_cas.pico)
 .text          0x00057e4c        0x0 libc_pic.a(atomic_nand_64_cas.pico)
 *fill*         0x00057e4c        0x4 
 .text          0x00057e50      0x137 libc_pic.a(atomic.pico)
                0x00057e50                _atomic_add_long
                0x00057e50                atomic_add_ptr
                0x00057e50                atomic_add_32
                0x00057e50                _atomic_add_int
                0x00057e50                _atomic_add_32
                0x00057e50                atomic_add_long
                0x00057e50                _atomic_add_ptr
                0x00057e50                atomic_add_int
                0x00057e60                _atomic_add_ptr_nv
                0x00057e60                atomic_add_int_nv
                0x00057e60                _atomic_add_32_nv
                0x00057e60                atomic_add_long_nv
                0x00057e60                _atomic_add_int_nv
                0x00057e60                _atomic_add_long_nv
                0x00057e60                atomic_add_ptr_nv
                0x00057e60                atomic_add_32_nv
                0x00057e80                atomic_and_ptr
                0x00057e80                _atomic_and_uint
                0x00057e80                atomic_and_ulong
                0x00057e80                _atomic_and_32
                0x00057e80                _atomic_and_ptr
                0x00057e80                atomic_and_32
                0x00057e80                _atomic_and_ulong
                0x00057e80                atomic_and_uint
                0x00057e90                _atomic_and_32_nv
                0x00057e90                _atomic_and_ulong_nv
                0x00057e90                _atomic_and_ptr_nv
                0x00057e90                atomic_and_uint_nv
                0x00057e90                atomic_and_ulong_nv
                0x00057e90                atomic_and_ptr_nv
                0x00057e90                atomic_and_32_nv
                0x00057e90                _atomic_and_uint_nv
                0x00057eb0                _atomic_dec_32
                0x00057eb0                _atomic_dec_uint
                0x00057eb0                atomic_dec_uint
                0x00057eb0                atomic_dec_32
                0x00057eb0                atomic_dec_ulong
                0x00057eb0                _atomic_dec_ulong
                0x00057eb0                atomic_dec_ptr
                0x00057eb0                _atomic_dec_ptr
                0x00057ec0                atomic_dec_uint_nv
                0x00057ec0                _atomic_dec_ptr_nv
                0x00057ec0                _atomic_dec_ulong_nv
                0x00057ec0                atomic_dec_ulong_nv
                0x00057ec0                atomic_dec_32_nv
                0x00057ec0                _atomic_dec_32_nv
                0x00057ec0                _atomic_dec_uint_nv
                0x00057ec0                atomic_dec_ptr_nv
                0x00057ed0                _atomic_inc_ulong
                0x00057ed0                _atomic_inc_32
                0x00057ed0                atomic_inc_ptr
                0x00057ed0                _atomic_inc_ptr
                0x00057ed0                _atomic_inc_uint
                0x00057ed0                atomic_inc_32
                0x00057ed0                atomic_inc_ulong
                0x00057ed0                atomic_inc_uint
                0x00057ee0                atomic_inc_uint_nv
                0x00057ee0                _atomic_inc_uint_nv
                0x00057ee0                atomic_inc_32_nv
                0x00057ee0                atomic_inc_ulong_nv
                0x00057ee0                _atomic_inc_ptr_nv
                0x00057ee0                _atomic_inc_32_nv
                0x00057ee0                _atomic_inc_ulong_nv
                0x00057ee0                atomic_inc_ptr_nv
                0x00057ef0                atomic_or_ulong
                0x00057ef0                _atomic_or_32
                0x00057ef0                _atomic_or_ulong
                0x00057ef0                _atomic_or_uint
                0x00057ef0                atomic_or_ptr
                0x00057ef0                atomic_or_uint
                0x00057ef0                _atomic_or_ptr
                0x00057ef0                atomic_or_32
                0x00057f00                _atomic_or_ulong_nv
                0x00057f00                atomic_or_uint_nv
                0x00057f00                _atomic_or_32_nv
                0x00057f00                atomic_or_ptr_nv
                0x00057f00                atomic_or_ulong_nv
                0x00057f00                _atomic_or_ptr_nv
                0x00057f00                _atomic_or_uint_nv
                0x00057f00                atomic_or_32_nv
                0x00057f20                atomic_swap_ulong
                0x00057f20                atomic_swap_uint
                0x00057f20                _atomic_swap_ulong
                0x00057f20                _atomic_swap_ptr
                0x00057f20                _atomic_swap_uint
                0x00057f20                atomic_swap_32
                0x00057f20                atomic_swap_ptr
                0x00057f20                _atomic_swap_32
                0x00057f30                atomic_cas_32
                0x00057f30                _atomic_cas_32
                0x00057f30                _atomic_cas_uint
                0x00057f30                atomic_cas_ulong
                0x00057f30                atomic_cas_uint
                0x00057f30                atomic_cas_ptr
                0x00057f30                _atomic_cas_ptr
                0x00057f30                _atomic_cas_ulong
                0x00057f50                _atomic_cas_ulong_ni
                0x00057f50                _atomic_cas_32_ni
                0x00057f50                atomic_cas_ptr_ni
                0x00057f50                atomic_cas_ulong_ni
                0x00057f50                atomic_cas_32_ni
                0x00057f50                atomic_cas_uint_ni
                0x00057f50                _atomic_cas_uint_ni
                0x00057f50                _atomic_cas_ptr_ni
                0x00057f60                membar_consumer
                0x00057f60                membar_enter
                0x00057f60                _membar_consumer
                0x00057f60                _membar_enter
                0x00057f70                membar_exit
                0x00057f70                membar_producer
                0x00057f70                _membar_producer
                0x00057f70                _membar_exit
                0x00057f80                membar_sync
                0x00057f80                _membar_sync
 *fill*         0x00057f87        0x1 
 .text          0x00057f88        0x0 libc_pic.a(atomic_swap_64_cas.pico)
 .text          0x00057f88        0x0 libc_pic.a(atomic_or_64_nv_cas.pico)
 .text          0x00057f88        0x0 libc_pic.a(atomic_or_64_cas.pico)
 .text          0x00057f88        0x0 libc_pic.a(atomic_inc_64_nv_cas.pico)
 .text          0x00057f88        0x0 libc_pic.a(atomic_inc_64_cas.pico)
 .text          0x00057f88        0x0 libc_pic.a(atomic_dec_64_nv_cas.pico)
 .text          0x00057f88        0x0 libc_pic.a(atomic_dec_64_cas.pico)
 .text          0x00057f88        0x0 libc_pic.a(atomic_and_64_nv_cas.pico)
 .text          0x00057f88        0x0 libc_pic.a(atomic_and_64_cas.pico)
 .text          0x00057f88        0x0 libc_pic.a(atomic_add_64_nv_cas.pico)
 .text          0x00057f88        0x0 libc_pic.a(atomic_add_64_cas.pico)
 *fill*         0x00057f88        0x8 
 .text          0x00057f90       0x1d libc_pic.a(compat_difftime.pico)
                0x00057f90                difftime
                0x00057f90                _difftime
 *fill*         0x00057fad        0x3 
 .text          0x00057fb0     0x3fc5 libc_pic.a(compat_localtime.pico)
                0x00057fb0                tzgetname
                0x00058030                tzsetwall
                0x00058030                _tzsetwall
                0x00058230                tzset
                0x00058230                _tzset
                0x00058260                tzalloc
                0x00058480                tzfree
                0x000584a0                _localtime_rz
                0x000584a0                localtime_rz
                0x00058750                localtime
                0x000587b0                localtime_r
                0x000587b0                _localtime_r
                0x00058820                gmtime_r
                0x00058820                _gmtime_r
                0x00058940                gmtime
                0x00058970                offtime
                0x00058970                _offtime
                0x00058a40                offtime_r
                0x00058b10                ctime
                0x00058b80                _ctime_r
                0x00058b80                ctime_r
                0x00058c00                ctime_rz
                0x00058c00                _ctime_rz
                0x00058c60                mktime_z
                0x00058c60                _mktime_z
                0x00058d10                mktime
                0x00058de0                timelocal_z
                0x00058e10                timelocal
                0x00058e10                _timelocal
                0x00058e40                _timegm
                0x00058e40                timegm
                0x00058e70                timeoff
                0x00058e70                _timeoff
                0x00059220                time2posix_z
                0x00059260                _time2posix
                0x00059260                time2posix
                0x000592d0                posix2time_z
                0x000592d0                _posix2time_z
                0x00059400                _posix2time
                0x00059400                posix2time
 *fill*         0x0005bf75        0xb 
 .text          0x0005bf80      0x124 libc_pic.a(compat___shmctl13.pico)
                0x0005bf80                __shmctl13
 *fill*         0x0005c0a4        0xc 
 .text          0x0005c0b0       0x3a libc_pic.a(compat_mknod.pico)
                0x0005c0b0                mknod
                0x0005c0b0                __compat_mknod
 *fill*         0x0005c0ea        0x6 
 .text          0x0005c0f0       0x73 libc_pic.a(compat_adjtime.pico)
                0x0005c0f0                __adjtime
                0x0005c0f0                adjtime
                0x0005c0f0                _adjtime
 *fill*         0x0005c163        0xd 
 .text          0x0005c170       0x73 libc_pic.a(compat_nanosleep.pico)
                0x0005c170                _nanosleep
                0x0005c170                nanosleep
                0x0005c170                _sys_nanosleep
 *fill*         0x0005c1e3        0xd 
 .text          0x0005c1f0      0x104 libc_pic.a(compat_itimer.pico)
                0x0005c1f0                setitimer
                0x0005c290                getitimer
 *fill*         0x0005c2f4        0xc 
 .text          0x0005c300      0x108 libc_pic.a(compat_clock.pico)
                0x0005c300                _clock_settime
                0x0005c300                __clock_settime
                0x0005c300                clock_settime
                0x0005c350                clock_gettime
                0x0005c350                _clock_gettime
                0x0005c3b0                clock_getres
                0x0005c3b0                _clock_getres
 *fill*         0x0005c408        0x8 
 .text          0x0005c410       0x46 libc_pic.a(compat_settimeofday.pico)
                0x0005c410                __settimeofday
                0x0005c410                settimeofday
                0x0005c410                _settimeofday
 *fill*         0x0005c456        0xa 
 .text          0x0005c460       0xdf libc_pic.a(compat_wait4.pico)
                0x0005c460                wait3
                0x0005c460                _wait3
                0x0005c4d0                _sys_wait4
                0x0005c4d0                wait4
                0x0005c4d0                _wait4
 *fill*         0x0005c53f        0x1 
 .text          0x0005c540      0x143 libc_pic.a(compat_utimes.pico)
                0x0005c540                utimes
                0x0005c5b0                lutimes
                0x0005c620                futimes
 *fill*         0x0005c683        0xd 
 .text          0x0005c690       0x4d libc_pic.a(compat_socket.pico)
                0x0005c690                socket
 *fill*         0x0005c6dd        0x3 
 .text          0x0005c6e0       0x39 libc_pic.a(compat_sched.pico)
                0x0005c6e0                sched_rr_get_interval
 *fill*         0x0005c719        0x7 
 .text          0x0005c720       0x4a libc_pic.a(compat_getdirentries.pico)
                0x0005c720                getdirentries
 *fill*         0x0005c76a        0x6 
 .text          0x0005c770       0xbc libc_pic.a(compat_getdents.pico)
                0x0005c770                getdents
 *fill*         0x0005c82c        0x4 
 .text          0x0005c830       0x90 libc_pic.a(compat_unsetenv.pico)
                0x0005c830                unsetenv
                0x0005c830                _unsetenv
 .text          0x0005c8c0       0x38 libc_pic.a(compat_random.pico)
                0x0005c8c0                initstate
                0x0005c8c0                _initstate
                0x0005c8e0                srandom
                0x0005c8e0                _srandom
 *fill*         0x0005c8f8        0x8 
 .text          0x0005c900       0x7e libc_pic.a(compat_putenv.pico)
                0x0005c900                _putenv
                0x0005c900                putenv
 *fill*         0x0005c97e        0x2 
 .text          0x0005c980       0x45 libc_pic.a(compat_fsetpos.pico)
                0x0005c980                fsetpos
 *fill*         0x0005c9c5        0xb 
 .text          0x0005c9d0       0x37 libc_pic.a(compat_fgetpos.pico)
                0x0005c9d0                fgetpos
 *fill*         0x0005ca07        0x9 
 .text          0x0005ca10      0x28e libc_pic.a(compat_ns_ntoa.pico)
                0x0005ca10                ns_ntoa
 *fill*         0x0005cc9e        0x2 
 .text          0x0005cca0      0x75f libc_pic.a(compat_ns_addr.pico)
                0x0005cca0                ns_addr
 *fill*         0x0005d3ff        0x1 
 .text          0x0005d400       0x87 libc_pic.a(__cmsg_alignbytes.pico)
                0x0005d400                __cmsg_alignbytes
 *fill*         0x0005d487        0x1 
 .text          0x0005d488        0x0 libc_pic.a(compat_alloca.pico)
 *fill*         0x0005d488        0x8 
 .text          0x0005d490      0x754 libc_pic.a(compat_syslog.pico)
                0x0005d490                _closelog_r
                0x0005d490                closelog_r
                0x0005d520                openlog_r
                0x0005d520                _openlog_r
                0x0005d5c0                _setlogmask_r
                0x0005d5c0                setlogmask_r
                0x0005d650                syslog_r
                0x0005d650                _syslog_r
                0x0005d700                _vsyslog_r
                0x0005d700                vsyslog_r
                0x0005d7a0                syslogp_r
                0x0005d7a0                _syslogp_r
                0x0005d860                vsyslogp_r
                0x0005d860                _vsyslogp_r
                0x0005d910                _syslog_ss
                0x0005d910                syslog_ss
                0x0005d9c0                _syslogp_ss
                0x0005d9c0                syslogp_ss
                0x0005da80                _vsyslog_ss
                0x0005da80                vsyslog_ss
                0x0005db30                _vsyslogp_ss
                0x0005db30                vsyslogp_ss
 *fill*         0x0005dbe4        0xc 
 .text          0x0005dbf0       0x4a libc_pic.a(compat___unvis13.pico)
                0x0005dbf0                __unvis13
 *fill*         0x0005dc3a        0x6 
 .text          0x0005dc40     0x1705 libc_pic.a(compat___fts50.pico)
                0x0005dc40                __fts_open50
                0x0005e3a0                __fts_close50
                0x0005e4a0                __fts_read50
                0x0005f1d0                __fts_set50
                0x0005f210                __fts_children50
 *fill*         0x0005f345        0xb 
 .text          0x0005f350       0x22 libc_pic.a(compat_utmp.pico)
                0x0005f350                getutent
 *fill*         0x0005f372        0xe 
 .text          0x0005f380      0x446 libc_pic.a(compat_getpwent.pico)
                0x0005f380                getpwuid
                0x0005f380                _getpwuid
                0x0005f3d0                getpwnam
                0x0005f3d0                _getpwnam
                0x0005f420                _getpwnam_r
                0x0005f420                getpwnam_r
                0x0005f4c0                _getpwuid_r
                0x0005f4c0                getpwuid_r
                0x0005f560                getpwent
                0x0005f560                _getpwent
                0x0005f5a0                _getpwent_r
                0x0005f5a0                getpwent_r
                0x0005f630                pwcache_userdb
                0x0005f630                _pwcache_userdb
 *fill*         0x0005f7c6        0xa 
 .text          0x0005f7d0       0x35 libc_pic.a(compat_alphasort.pico)
                0x0005f7d0                _alphasort
                0x0005f7d0                alphasort
 *fill*         0x0005f805        0xb 
 .text          0x0005f810       0x34 libc_pic.a(compat_devname.pico)
                0x0005f810                _devname
                0x0005f810                devname
 *fill*         0x0005f844        0xc 
 .text          0x0005f850       0x65 libc_pic.a(compat_utime.pico)
                0x0005f850                _utime
                0x0005f850                utime
 *fill*         0x0005f8b5        0xb 
 .text          0x0005f8c0       0x49 libc_pic.a(compat_time.pico)
                0x0005f8c0                _time
                0x0005f8c0                time
 *fill*         0x0005f909        0x7 
 .text          0x0005f910      0x5d7 libc_pic.a(compat_utmpx.pico)
                0x0005f910                getutxent
                0x0005f940                getutxid
                0x0005f9c0                getutxline
                0x0005fa40                pututxline
                0x0005fac0                updwtmpx
                0x0005fb40                __getlastlogx13
                0x0005fc10                lastlogxname
                0x0005fc70                getlastlogx
                0x0005fd40                updlastlogx
                0x0005fe00                getutmp
                0x0005fe80                getutmpx
 *fill*         0x0005fee7        0x9 
 .text          0x0005fef0       0x4a libc_pic.a(compat_unvis.pico)
                0x0005fef0                unvis
 *fill*         0x0005ff3a        0x6 
 .text          0x0005ff40      0x4b9 libc_pic.a(compat_timezone.pico)
                0x0005ff40                timezone
                0x000601c0                _tztab
 *fill*         0x000603f9        0x7 
 .text          0x00060400      0x135 libc_pic.a(compat_times.pico)
                0x00060400                times
                0x00060400                _times
 *fill*         0x00060535        0xb 
 .text          0x00060540       0xdb libc_pic.a(compat_sigsetops.pico)
                0x00060540                sigemptyset
                0x00060550                sigfillset
                0x00060560                sigaddset
                0x000605a0                sigdelset
                0x000605e0                sigismember
 *fill*         0x0006061b        0x1 
 .text          0x0006061c        0x0 libc_pic.a(compat_signame.pico)
 .text          0x0006061c        0x0 libc_pic.a(compat_siglist.pico)
 *fill*         0x0006061c        0x4 
 .text          0x00060620      0x292 libc_pic.a(compat_scandir.pico)
                0x00060620                scandir
                0x00060620                _scandir
 *fill*         0x000608b2        0xe 
 .text          0x000608c0       0x2c libc_pic.a(compat__readdir_unlocked30.pico)
                0x000608c0                ___readdir_unlocked30
 *fill*         0x000608ec        0x4 
 .text          0x000608f0     0x15c3 libc_pic.a(compat___glob13.pico)
                0x000608f0                __glob13
                0x000611f0                __globfree13
 *fill*         0x00061eb3        0xd 
 .text          0x00061ec0     0x15c3 libc_pic.a(compat_glob.pico)
                0x00061ec0                _glob
                0x00061ec0                glob
                0x000627c0                _globfree
                0x000627c0                globfree
 *fill*         0x00063483        0xd 
 .text          0x00063490     0x1725 libc_pic.a(compat_fts.pico)
                0x00063490                _fts_open
                0x00063490                fts_open
                0x00063bc0                fts_close
                0x00063bc0                _fts_close
                0x00063cc0                fts_read
                0x00063cc0                _fts_read
                0x00064a40                fts_set
                0x00064a40                _fts_set
                0x00064a80                fts_children
                0x00064a80                _fts_children
 *fill*         0x00064bb5        0x3 
 .text          0x00064bb8        0x0 libc_pic.a(compat_errlist.pico)
 *fill*         0x00064bb8        0x8 
 .text          0x00064bc0       0x24 libc_pic.a(compat_setlocale32.pico)
                0x00064bc0                __setlocale_mb_len_max_32
 *fill*         0x00064be4        0xc 
 .text          0x00064bf0       0x24 libc_pic.a(compat_setlocale1.pico)
                0x00064bf0                setlocale
 *fill*         0x00064c14        0xc 
 .text          0x00064c20      0x226 libc_pic.a(compat_ndbmdatum.pico)
                0x00064c20                dbm_fetch
                0x00064cb0                dbm_firstkey
                0x00064d20                dbm_nextkey
                0x00064d90                dbm_delete
                0x00064de0                dbm_store
 *fill*         0x00064e46        0xa 
 .text          0x00064e50       0x69 libc_pic.a(lchown.pico)
                0x00064e50                __posix_lchown
                0x00064e50                lchown
 *fill*         0x00064eb9        0x7 
 .text          0x00064ec0       0x62 libc_pic.a(lchmod.pico)
                0x00064ec0                lchmod
 *fill*         0x00064f22        0xe 
 .text          0x00064f30       0x39 libc_pic.a(lchflags.pico)
                0x00064f30                lchflags
 *fill*         0x00064f69        0x7 
 .text          0x00064f70       0x54 libc_pic.a(uuid_is_nil.pico)
                0x00064f70                _uuid_is_nil
                0x00064f70                uuid_is_nil
 *fill*         0x00064fc4        0xc 
 .text          0x00064fd0      0xedc libc_pic.a(libunwind.pico)
                0x00064fd0                _Unwind_RaiseException
                0x00065330                _Unwind_ForcedUnwind
                0x00065550                _Unwind_Resume
                0x00065600                _Unwind_Resume_or_Rethrow
                0x00065630                _Unwind_DeleteException
                0x00065660                _Unwind_GetGR
                0x000656c0                _Unwind_SetGR
                0x00065720                _Unwind_GetIP
                0x00065730                _Unwind_GetIPInfo
                0x00065750                _Unwind_SetIP
                0x00065790                _Unwind_GetRegionStart
                0x000657b0                _Unwind_GetLanguageSpecificData
                0x000657d0                _Unwind_Backtrace
                0x000658f0                _Unwind_GetCFA
                0x00065900                _Unwind_FindEnclosingFunction
                0x000659e0                _Unwind_Find_FDE
                0x00065ae0                _Unwind_GetDataRelBase
                0x00065af0                _Unwind_GetTextRelBase
                0x00065b00                __register_frame
                0x00065bb0                __register_frame_info
                0x00065bd0                __deregister_frame
                0x00065c30                __deregister_frame_info
 *fill*         0x00065eac        0x4 
 .text          0x00065eb0       0x3e libc_pic.a(read_tsc.pico)
                0x00065eb0                read_tsc
                0x00065ed0                read_host_time_ns
 *fill*         0x00065eee        0x2 
 .text          0x00065ef0       0x2b libc_pic.a(setrlimit.pico)
                0x00065ef0                setrlimit
 *fill*         0x00065f1b        0x5 
 .text          0x00065f20       0xb8 libc_pic.a(vfork.pico)
                0x00065f20                vfork
                0x00065f20                __vfork14
 *fill*         0x00065fd8        0x8 
 .text          0x00065fe0      0x170 libc_pic.a(lutimes.pico)
                0x00065fe0                __lutimes50
 .text          0x00066150      0x132 libc_pic.a(futimes.pico)
                0x00066150                __futimes50
 *fill*         0x00066282        0xe 
 .text          0x00066290      0x170 libc_pic.a(utimes.pico)
                0x00066290                __utimes50
 .text          0x00066400      0x158 libc_pic.a(utimensat.pico)
                0x00066400                utimensat
 *fill*         0x00066558        0x8 
 .text          0x00066560       0xbf libc_pic.a(umask.pico)
                0x00066560                umask
 *fill*         0x0006661f        0x1 
 .text          0x00066620      0x2b8 libc_pic.a(socketpair.pico)
                0x00066620                socketpair
 *fill*         0x000668d8        0x8 
 .text          0x000668e0       0xd6 libc_pic.a(sigsuspend.pico)
                0x000668e0                __sigsuspend14
                0x000668e0                sigsuspend
 *fill*         0x000669b6        0xa 
 .text          0x000669c0      0x122 libc_pic.a(shmctl.pico)
                0x000669c0                shmctl
                0x000669c0                __shmctl50
 *fill*         0x00066ae2        0xe 
 .text          0x00066af0       0x4b libc_pic.a(settimeofday.pico)
                0x00066af0                __settimeofday50
 *fill*         0x00066b3b        0x5 
 .text          0x00066b40       0xc6 libc_pic.a(setgroups.pico)
                0x00066b40                setgroups
 *fill*         0x00066c06        0xa 
 .text          0x00066c10       0xc9 libc_pic.a(rmdir.pico)
                0x00066c10                rmdir
 *fill*         0x00066cd9        0x7 
 .text          0x00066ce0      0x49e libc_pic.a(posix_spawn.pico)
                0x00066ce0                posix_spawn
 *fill*         0x0006717e        0x2 
 .text          0x00067180      0x2c2 libc_pic.a(poll.pico)
                0x00067180                poll
 *fill*         0x00067442        0xe 
 .text          0x00067450      0x1b5 libc_pic.a(pipe.pico)
                0x00067450                pipe2
                0x00067530                pipe
                0x00067530                _pipe
 *fill*         0x00067605        0xb 
 .text          0x00067610       0xe5 libc_pic.a(minix_rs.pico)
                0x00067610                minix_rs_lookup
 *fill*         0x000676f5        0xb 
 .text          0x00067700      0x148 libc_pic.a(listen.pico)
                0x00067700                listen
 *fill*         0x00067848        0x8 
 .text          0x00067850       0xcd libc_pic.a(getvfsstat.pico)
                0x00067850                getvfsstat
 *fill*         0x0006791d        0x3 
 .text          0x00067920      0x4e7 libc_pic.a(getsockopt.pico)
                0x00067920                getsockopt
 *fill*         0x00067e07        0x9 
 .text          0x00067e10      0x19d libc_pic.a(priority.pico)
                0x00067e10                getpriority
                0x00067ee0                setpriority
 *fill*         0x00067fad        0x3 
 .text          0x00067fb0       0x48 libc_pic.a(__getlogin.pico)
                0x00067fb0                __getlogin
 *fill*         0x00067ff8        0x8 
 .text          0x00068000       0xe7 libc_pic.a(setitimer.pico)
                0x00068000                __setitimer50
 *fill*         0x000680e7        0x9 
 .text          0x000680f0       0xce libc_pic.a(getitimer.pico)
                0x000680f0                __getitimer50
 *fill*         0x000681be        0x2 
 .text          0x000681c0       0xc7 libc_pic.a(getegid.pico)
                0x000681c0                getegid
 *fill*         0x00068287        0x9 
 .text          0x00068290      0x19e libc_pic.a(fstatvfs.pico)
                0x00068290                fstatvfs1
                0x00068360                _fstatvfs
                0x00068360                fstatvfs
 *fill*         0x0006842e        0x2 
 .text          0x00068430       0x7c libc_pic.a(dup2.pico)
                0x00068430                dup2
 *fill*         0x000684ac        0x4 
 .text          0x000684b0       0xe1 libc_pic.a(clock_settime.pico)
                0x000684b0                __clock_settime50
 *fill*         0x00068591        0xf 
 .text          0x000685a0       0xe3 libc_pic.a(clock_getres.pico)
                0x000685a0                __clock_getres50
 *fill*         0x00068683        0xd 
 .text          0x00068690       0xde libc_pic.a(chown.pico)
                0x00068690                chown
                0x00068690                __posix_chown
 *fill*         0x0006876e        0x2 
 .text          0x00068770       0xd0 libc_pic.a(chmod.pico)
                0x00068770                chmod
 .text          0x00068840       0xfb libc_pic.a(adjtime.pico)
                0x00068840                __adjtime50
 *fill*         0x0006893b        0x5 
 .text          0x00068940      0x339 libc_pic.a(accept.pico)
                0x00068940                accept
 *fill*         0x00068c79        0x7 
 .text          0x00068c80       0xa5 libc_pic.a(tcsetattr.pico)
                0x00068c80                _tcsetattr
                0x00068c80                tcsetattr
 *fill*         0x00068d25        0xb 
 .text          0x00068d30       0x2b libc_pic.a(wmemset.pico)
                0x00068d30                wmemset
 *fill*         0x00068d5b        0x5 
 .text          0x00068d60       0x39 libc_pic.a(wmemcpy.pico)
                0x00068d60                wmemcpy
 *fill*         0x00068d99        0x7 
 .text          0x00068da0       0x31 libc_pic.a(wcscpy.pico)
                0x00068da0                wcscpy
 *fill*         0x00068dd1        0xf 
 .text          0x00068de0       0x27 libc_pic.a(wcscmp.pico)
                0x00068de0                wcscmp
 *fill*         0x00068e07        0x9 
 .text          0x00068e10       0x5c libc_pic.a(strsep.pico)
                0x00068e10                strsep
                0x00068e10                _strsep
 *fill*         0x00068e6c        0x4 
 .text          0x00068e70       0x44 libc_pic.a(strncat.pico)
                0x00068e70                strncat
 *fill*         0x00068eb4        0xc 
 .text          0x00068ec0       0x8e libc_pic.a(stresep.pico)
                0x00068ec0                _stresep
                0x00068ec0                stresep
 *fill*         0x00068f4e        0x2 
 .text          0x00068f50       0xec libc_pic.a(__strsignal.pico)
                0x00068f50                __strsignal
 *fill*         0x0006903c        0x4 
 .text          0x00069040       0xad libc_pic.a(strtok_r.pico)
                0x00069040                strtok_r
                0x00069040                _strtok_r
 *fill*         0x000690ed        0x3 
 .text          0x000690f0       0x66 libc_pic.a(stpncpy.pico)
                0x000690f0                stpncpy
 *fill*         0x00069156        0xa 
 .text          0x00069160       0x45 libc_pic.a(stderr.pico)
                0x00069160                std_err
 *fill*         0x000691a5        0xb 
 .text          0x000691b0       0x5c libc_pic.a(erand48_ieee754.pico)
                0x000691b0                _erand48
                0x000691b0                erand48
 *fill*         0x0006920c        0x4 
 .text          0x00069210      0x393 libc_pic.a(strtoll.pico)
                0x00069210                strtoll
                0x00069210                _strtoll
                0x00069570                strtoll_l
                0x00069570                _strtoll_l
 *fill*         0x000695a3        0xd 
 .text          0x000695b0      0x13a libc_pic.a(setenv.pico)
                0x000695b0                setenv
                0x000695b0                _setenv
 *fill*         0x000696ea        0x6 
 .text          0x000696f0      0x4f0 libc_pic.a(random.pico)
                0x000696f0                __srandom60
                0x00069820                __initstate60
                0x00069a90                setstate
                0x00069a90                _setstate
                0x00069b60                random
                0x00069b60                _random
 .text          0x00069be0       0x89 libc_pic.a(_rand48.pico)
                0x00069be0                __dorand48
 *fill*         0x00069c69        0x7 
 .text          0x00069c70       0x9c libc_pic.a(mktemp.pico)
                0x00069c70                _mktemp
                0x00069cc0                mktemp
 *fill*         0x00069d0c        0x4 
 .text          0x00069d10       0xd8 libc_pic.a(gets.pico)
                0x00069d10                __gets
                0x00069d80                gets
 *fill*         0x00069de8        0x8 
 .text          0x00069df0      0x19c libc_pic.a(vswscanf.pico)
                0x00069df0                _vswscanf_l
                0x00069df0                vswscanf_l
                0x00069f50                vswscanf
 *fill*         0x00069f8c        0x4 
 .text          0x00069f90      0x1f5 libc_pic.a(vswprintf.pico)
                0x00069f90                _vswprintf_l
                0x00069f90                vswprintf_l
                0x0006a140                vswprintf
 *fill*         0x0006a185        0xb 
 .text          0x0006a190     0x1607 libc_pic.a(vfwscanf.pico)
                0x0006a190                vfwscanf
                0x0006a1f0                vfwscanf_l
                0x0006a230                __vfwscanf_unlocked_l
 *fill*         0x0006b797        0x9 
 .text          0x0006b7a0     0x7abe libc_pic.a(vfwprintf.pico)
                0x0006b7a0                vfwprintf
                0x0006b7e0                __vfwprintf_unlocked_l
                0x00070170                _vfwprintf_l
 *fill*         0x0007325e        0x2 
 .text          0x00073260      0x1dc libc_pic.a(vdprintf.pico)
                0x00073260                vdprintf_l
                0x00073260                _vdprintf_l
                0x00073400                _vdprintf
                0x00073400                vdprintf
 *fill*         0x0007343c        0x4 
 .text          0x00073440       0x4c libc_pic.a(ungetwc.pico)
                0x00073440                ungetwc
 *fill*         0x0007348c        0x4 
 .text          0x00073490       0x7e libc_pic.a(sscanf.pico)
                0x00073490                sscanf
                0x000734d0                _sscanf_l
                0x000734d0                sscanf_l
 *fill*         0x0007350e        0x2 
 .text          0x00073510      0x1b7 libc_pic.a(setvbuf.pico)
                0x00073510                setvbuf
 *fill*         0x000736c7        0x9 
 .text          0x000736d0       0x95 libc_pic.a(perror.pico)
                0x000736d0                perror
 *fill*         0x00073765        0xb 
 .text          0x00073770      0x2e6 libc_pic.a(gettemp.pico)
                0x00073770                __gettemp
 *fill*         0x00073a56        0xa 
 .text          0x00073a60       0xda libc_pic.a(ftello.pico)
                0x00073a60                ftello
                0x00073a60                _ftello
 *fill*         0x00073b3a        0x6 
 .text          0x00073b40      0x13b libc_pic.a(ftell.pico)
                0x00073b40                ftell
 *fill*         0x00073c7b        0x5 
 .text          0x00073c80      0x15c libc_pic.a(fputwc.pico)
                0x00073c80                __fputwc_unlock
                0x00073d30                fputwc
 *fill*         0x00073ddc        0x4 
 .text          0x00073de0      0x108 libc_pic.a(fgetwc.pico)
                0x00073de0                __fgetwc_unlock
                0x00073ed0                fgetwc
 *fill*         0x00073ee8        0x8 
 .text          0x00073ef0       0x83 libc_pic.a(regfree.pico)
                0x00073ef0                _regfree
                0x00073ef0                regfree
 *fill*         0x00073f73        0xd 
 .text          0x00073f80       0x73 libc_pic.a(getprotobynumber_r.pico)
                0x00073f80                getprotobynumber_r
                0x00073f80                _getprotobynumber_r
 *fill*         0x00073ff3        0xd 
 .text          0x00074000       0xd5 libc_pic.a(getprotobyname_r.pico)
                0x00074000                getprotobyname_r
                0x00074000                _getprotobyname_r
 *fill*         0x000740d5        0xb 
 .text          0x000740e0      0x248 libc_pic.a(getnetent.pico)
                0x000740e0                _setnetent
                0x000740e0                setnetent
                0x00074140                _endnetent
                0x00074140                endnetent
                0x00074190                getnetent
                0x00074190                _getnetent
 *fill*         0x00074328        0x8 
 .text          0x00074330      0x185 libc_pic.a(stack_protector.pico)
                0x00074330                __stack_chk_fail
                0x00074480                __chk_fail
                0x000744a0                __stack_chk_fail_local
 *fill*         0x000744b5        0xb 
 .text          0x000744c0      0x158 libc_pic.a(wcstold.pico)
                0x000744c0                _wcstold
                0x000744c0                wcstold
                0x000745f0                _wcstold_l
 *fill*         0x00074618        0x8 
 .text          0x00074620      0x158 libc_pic.a(wcstof.pico)
                0x00074620                wcstof
                0x00074620                _wcstof
                0x00074750                _wcstof_l
 *fill*         0x00074778        0x8 
 .text          0x00074780      0x158 libc_pic.a(wcstod.pico)
                0x00074780                _wcstod
                0x00074780                wcstod
                0x000748b0                _wcstod_l
 *fill*         0x000748d8        0x8 
 .text          0x000748e0      0x2f3 libc_pic.a(wcstoumax.pico)
                0x000748e0                wcstoumax
                0x00074ba0                wcstoumax_l
 *fill*         0x00074bd3        0xd 
 .text          0x00074be0      0x373 libc_pic.a(wcstoimax.pico)
                0x00074be0                wcstoimax
                0x00074f20                wcstoimax_l
 *fill*         0x00074f53        0xd 
 .text          0x00074f60      0x1d1 libc_pic.a(inet_network.pico)
                0x00074f60                _inet_network
                0x00074f60                inet_network
 *fill*         0x00075131        0xf 
 .text          0x00075140        0xb libc_pic.a(udivsi3.pico)
                0x00075140                __udivsi3
 *fill*         0x0007514b        0x5 
 .text          0x00075150        0xa libc_pic.a(divsi3.pico)
                0x00075150                __divsi3
 *fill*         0x0007515a        0x6 
 .text          0x00075160       0x70 libc_pic.a(verrx.pico)
                0x00075160                verrx
                0x00075160                _verrx
 .text          0x000751d0       0x39 libc_pic.a(verr.pico)
                0x000751d0                _verr
                0x000751d0                verr
 *fill*         0x00075209        0x7 
 .text          0x00075210       0x2e libc_pic.a(warn.pico)
                0x00075210                _warn
                0x00075210                warn
 *fill*         0x0007523e        0x2 
 .text          0x00075240       0x3a libc_pic.a(wait3.pico)
                0x00075240                __wait350
 *fill*         0x0007527a        0x6 
 .text          0x00075280      0xca6 libc_pic.a(utmpx.pico)
                0x00075280                setutxent
                0x000752f0                endutxent
                0x00075350                __getutxent50
                0x00075590                __getutxid50
                0x00075620                __getutxline50
                0x00075690                __pututxline50
                0x00075b00                __updwtmpx50
                0x00075c10                utmpxname
                0x00075cb0                __getutmp50
                0x00075d00                __getutmpx50
                0x00075d90                __getlastlogx50
                0x00075e80                __updlastlogx50
 *fill*         0x00075f26        0xa 
 .text          0x00075f30      0x1e8 libc_pic.a(utmp.pico)
                0x00075f30                setutent
                0x00075f80                __getutent50
                0x00076060                endutent
                0x000760a0                utmpname
 *fill*         0x00076118        0x8 
 .text          0x00076120      0x7ea libc_pic.a(unvis.pico)
                0x00076120                __unvis50
                0x00076750                strnunvisx
                0x00076750                _strnunvisx
                0x00076850                strunvisx
                0x00076890                strunvis
                0x000768d0                strnunvis
 *fill*         0x0007690a        0x6 
 .text          0x00076910      0x181 libc_pic.a(times.pico)
                0x00076910                __times13
 *fill*         0x00076a91        0x3 
 .text          0x00076a94        0x0 libc_pic.a(siglist.pico)
 *fill*         0x00076a94        0xc 
 .text          0x00076aa0      0x897 libc_pic.a(pwcache.pico)
                0x00076aa0                user_from_uid
                0x00076aa0                _user_from_uid
                0x00076c30                _group_from_gid
                0x00076c30                group_from_gid
                0x00076dc0                uid_from_user
                0x00076f70                gid_from_group
                0x00077120                __pwcache_userdb50
                0x00077230                _pwcache_groupdb
                0x00077230                pwcache_groupdb
 *fill*         0x00077337        0x9 
 .text          0x00077340      0x4c8 libc_pic.a(nlist_elf32.pico)
                0x00077340                __fdnlist_elf32
 *fill*         0x00077808        0x8 
 .text          0x00077810      0x4cb libc_pic.a(nlist_aout.pico)
                0x00077810                __fdnlist_aout
 *fill*         0x00077cdb        0x5 
 .text          0x00077ce0       0xfc libc_pic.a(lockf.pico)
                0x00077ce0                _lockf
                0x00077ce0                lockf
 *fill*         0x00077ddc        0x4 
 .text          0x00077de0     0x2718 libc_pic.a(getpwent.pico)
                0x00077de0                __getpwent50
                0x00077f40                __getpwent_r50
                0x000780b0                __getpwnam50
                0x000783f0                __getpwnam_r50
                0x00078670                __getpwuid50
                0x000789b0                __getpwuid_r50
                0x00078c30                _endpwent
                0x00078c30                endpwent
                0x00078db0                _setpassent
                0x00078db0                setpassent
                0x00078fd0                _setpwent
                0x00078fd0                setpwent
 *fill*         0x0007a4f8        0x8 
 .text          0x0007a500     0x122c libc_pic.a(getnetgrent.pico)
                0x0007a500                _ng_cycle
                0x0007a5b0                _ng_parse
                0x0007a7a0                _ng_makekey
                0x0007a830                _ng_print
                0x0007a8a0                endnetgrent
                0x0007a8a0                _endnetgrent
                0x0007a9a0                setnetgrent
                0x0007a9a0                _setnetgrent
                0x0007aaf0                _getnetgrent
                0x0007aaf0                getnetgrent
                0x0007abf0                _innetgr
                0x0007abf0                innetgr
 *fill*         0x0007b72c        0x4 
 .text          0x0007b730      0x554 libc_pic.a(getgroupmembership.pico)
                0x0007b730                _getgroupmembership
                0x0007b730                getgroupmembership
 *fill*         0x0007bc84        0xc 
 .text          0x0007bc90     0x1ce9 libc_pic.a(getgrent.pico)
                0x0007bc90                __grstart_files
                0x0007bcf0                __grend_files
                0x0007bd30                __grscan_files
                0x0007c1c0                __grstart_compat
                0x0007c220                __grend_compat
                0x0007c270                __grbad_compat
                0x0007c2c0                __grscan_compat
                0x0007c8c0                getgrent
                0x0007c8c0                _getgrent
                0x0007ca30                getgrent_r
                0x0007ca30                _getgrent_r
                0x0007cbd0                getgrgid
                0x0007cbd0                _getgrgid
                0x0007ce50                _getgrgid_r
                0x0007ce50                getgrgid_r
                0x0007d080                _getgrnam
                0x0007d080                getgrnam
                0x0007d300                _getgrnam_r
                0x0007d300                getgrnam_r
                0x0007d530                _endgrent
                0x0007d530                endgrent
                0x0007d670                setgroupent
                0x0007d670                _setgroupent
                0x0007d820                _setgrent
                0x0007d820                setgrent
 *fill*         0x0007d979        0x7 
 .text          0x0007d980      0x3cd libc_pic.a(getcwd.pico)
                0x0007d980                realpath
                0x0007d980                _realpath
                0x0007dca0                _sys_getcwd
                0x0007dca0                getcwd
                0x0007dca0                _getcwd
 *fill*         0x0007dd4d        0x3 
 .text          0x0007dd50      0x37c libc_pic.a(execvp.pico)
                0x0007dd50                execvpe
                0x0007dd50                _execvpe
                0x0007e090                _execvp
                0x0007e090                execvp
 *fill*         0x0007e0cc        0x4 
 .text          0x0007e0d0       0x98 libc_pic.a(execl.pico)
                0x0007e0d0                _execl
                0x0007e0d0                execl
 *fill*         0x0007e168        0x8 
 .text          0x0007e170      0x30e libc_pic.a(devname.pico)
                0x0007e170                devname_r
                0x0007e170                _devname_r
                0x0007e430                __devname50
 *fill*         0x0007e47e        0x2 
 .text          0x0007e480      0xabc libc_pic.a(arc4random.pico)
                0x0007e480                _arc4random
                0x0007e480                arc4random
                0x0007e560                _arc4random_buf
                0x0007e560                arc4random_buf
                0x0007e870                arc4random_uniform
                0x0007e870                _arc4random_uniform
                0x0007e970                _arc4random_stir
                0x0007e970                arc4random_stir
                0x0007ec10                _arc4random_addrandom
                0x0007ec10                arc4random_addrandom
 *fill*         0x0007ef3c        0x4 
 .text          0x0007ef40      0x197 libc_pic.a(InstrProfilingPlatformOther.pico)
                0x0007ef40                __llvm_profile_register_function
                0x0007f020                __llvm_profile_data_begin
                0x0007f040                __llvm_profile_data_end
                0x0007f060                __llvm_profile_names_begin
                0x0007f080                __llvm_profile_names_end
                0x0007f0a0                __llvm_profile_counters_begin
                0x0007f0c0                __llvm_profile_counters_end
 *fill*         0x0007f0d7        0x9 
 .text          0x0007f0e0      0x60f libc_pic.a(citrus_mapper.pico)
                0x0007f0e0                _citrus_mapper_create_area
                0x0007f1b0                _citrus_mapper_open_direct
                0x0007f3e0                _citrus_mapper_open
                0x0007f640                _citrus_mapper_close
                0x0007f6e0                _citrus_mapper_set_persistent
 *fill*         0x0007f6ef        0x1 
 .text          0x0007f6f0       0x4c libc_pic.a(citrus_hash.pico)
                0x0007f6f0                _string_hash_func
 *fill*         0x0007f73c        0x4 
 .text          0x0007f740       0x44 libc_pic.a(compat_gettimeofday.pico)
                0x0007f740                __compat_gettimeofday
                0x0007f740                gettimeofday
 *fill*         0x0007f784        0xc 
 .text          0x0007f790       0xab libc_pic.a(compat_getrusage.pico)
                0x0007f790                __rusage_to_rusage50
                0x0007f7d0                getrusage
                0x0007f7d0                __compat_getrusage
 *fill*         0x0007f83b        0x5 
 .text          0x0007f840      0x29c libc_pic.a(compat_stat.pico)
                0x0007f840                __compat_stat
                0x0007f840                stat
                0x0007f920                fstat
                0x0007f920                __compat_fstat
                0x0007fa00                __compat_lstat
                0x0007fa00                lstat
 *fill*         0x0007fadc        0x4 
 .text          0x0007fae0      0x145 libc_pic.a(compat_readdir.pico)
                0x0007fae0                _readdir
                0x0007fae0                readdir
                0x0007fb80                readdir_r
                0x0007fb80                _readdir_r
 *fill*         0x0007fc25        0xb 
 .text          0x0007fc30      0x13c libc_pic.a(compat_opendir.pico)
                0x0007fc30                _opendir
                0x0007fc30                opendir
                0x0007fc60                __opendir2
 *fill*         0x0007fd6c        0x4 
 .text          0x0007fd70       0x56 libc_pic.a(unwind_registers.pico)
                0x0007fd70                _Unwind::Registers_x86::Registers_x86()
                0x0007fda0                _Unwind::Registers_x86::jumpto() const
 *fill*         0x0007fdc6        0xa 
 .text          0x0007fdd0       0x5e libc_pic.a(setpgid.pico)
                0x0007fdd0                setpgid
 *fill*         0x0007fe2e        0x2 
 .text          0x0007fe30       0xc6 libc_pic.a(getrusage.pico)
                0x0007fe30                __getrusage50
 *fill*         0x0007fef6        0xa 
 .text          0x0007ff00      0x611 libc_pic.a(__getcwd.pico)
                0x0007ff00                __getcwd
 *fill*         0x00080511        0x3 
 .text          0x00080514        0x0 libc_pic.a(environ.pico)
 *fill*         0x00080514        0xc 
 .text          0x00080520      0x17f libc_pic.a(setuid.pico)
                0x00080520                setuid
                0x000805e0                seteuid
 *fill*         0x0008069f        0x1 
 .text          0x000806a0      0x17f libc_pic.a(setgid.pico)
                0x000806a0                setgid
                0x00080760                setegid
 *fill*         0x0008081f        0x1 
 .text          0x00080820       0xb8 libc_pic.a(setsid.pico)
                0x00080820                setsid
 *fill*         0x000808d8        0x8 
 .text          0x000808e0       0xd0 libc_pic.a(mkdir.pico)
                0x000808e0                mkdir
 .text          0x000809b0       0xc7 libc_pic.a(geteuid.pico)
                0x000809b0                geteuid
 *fill*         0x00080a77        0x9 
 .text          0x00080a80       0xb8 libc_pic.a(fork.pico)
                0x00080a80                fork
                0x00080a80                _fork
 *fill*         0x00080b38        0x8 
 .text          0x00080b40      0x1d6 libc_pic.a(execve.pico)
                0x00080b40                execve
 *fill*         0x00080d16        0xa 
 .text          0x00080d20       0x36 libc_pic.a(wmemchr.pico)
                0x00080d20                wmemchr
 *fill*         0x00080d56        0xa 
 .text          0x00080d60       0x1a libc_pic.a(explicit_memset.pico)
                0x00080d60                _explicit_memset
                0x00080d60                explicit_memset
 *fill*         0x00080d7a        0x6 
 .text          0x00080d80       0x7e libc_pic.a(strstr.pico)
                0x00080d80                strstr
 *fill*         0x00080dfe        0x2 
 .text          0x00080e00      0x171 libc_pic.a(vsscanf.pico)
                0x00080e00                vsscanf_l
                0x00080e00                _vsscanf_l
                0x00080ec0                vsscanf
 *fill*         0x00080f71        0xf 
 .text          0x00080f80     0x175e libc_pic.a(vfscanf.pico)
                0x00080f80                __svfscanf
                0x00080f80                vfscanf
                0x00080fc0                vfscanf_l
                0x00080fc0                __svfscanf_l
                0x00080fe0                __svfscanf_unlocked_l
 *fill*         0x000826de        0x2 
 .text          0x000826e0      0x1df libc_pic.a(ungetc.pico)
                0x000826e0                ungetc
 *fill*         0x000828bf        0x1 
 .text          0x000828c0      0x387 libc_pic.a(getprotoent_r.pico)
                0x000828c0                setprotoent_r
                0x000828c0                _setprotoent_r
                0x00082910                endprotoent_r
                0x00082910                _endprotoent_r
                0x00082980                _getprotoent_r
                0x00082980                getprotoent_r
 *fill*         0x00082c47        0x9 
 .text          0x00082c50     0x142d libc_pic.a(sha2.pico)
                0x00082c50                _SHA256_Init
                0x00082c50                SHA256_Init
                0x00082cd0                SHA256_Transform
                0x00082cd0                _SHA256_Transform
                0x00082f20                SHA256_Update
                0x00082f20                _SHA256_Update
                0x00083120                SHA256_Final
                0x00083120                _SHA256_Final
                0x00083330                SHA224_Init
                0x00083330                _SHA224_Init
                0x000833b0                _SHA224_Update
                0x000833b0                SHA224_Update
                0x000833f0                _SHA224_Transform
                0x000833f0                SHA224_Transform
                0x00083410                SHA224_Final
                0x00083410                _SHA224_Final
                0x00083440                _SHA512_Init
                0x00083440                SHA512_Init
                0x000834a0                _SHA512_Transform
                0x000834a0                SHA512_Transform
                0x00083990                SHA512_Update
                0x00083990                _SHA512_Update
                0x00083c80                _SHA512_Final
                0x00083c80                SHA512_Final
                0x00083ee0                _SHA384_Init
                0x00083ee0                SHA384_Init
                0x00083f40                SHA384_Update
                0x00083f40                _SHA384_Update
                0x00083f80                SHA384_Transform
                0x00083f80                _SHA384_Transform
                0x00083fa0                _SHA384_Final
                0x00083fa0                SHA384_Final
 *fill*         0x0008407d        0x3 
 .text          0x00084080        0xf libc_pic.a(bswap64.pico)
                0x00084080                bswap64
 *fill*         0x0008408f        0x1 
 .text          0x00084090       0xa3 libc_pic.a(verrc.pico)
                0x00084090                _verrc
                0x00084090                verrc
 *fill*         0x00084133        0xd 
 .text          0x00084140       0x3a libc_pic.a(vwarn.pico)
                0x00084140                _vwarn
                0x00084140                vwarn
 *fill*         0x0008417a        0x6 
 .text          0x00084180       0x2e libc_pic.a(warnx.pico)
                0x00084180                warnx
                0x00084180                _warnx
 *fill*         0x000841ae        0x2 
 .text          0x000841b0       0x3a libc_pic.a(waitpid.pico)
                0x000841b0                waitpid
                0x000841b0                _waitpid
 *fill*         0x000841ea        0x6 
 .text          0x000841f0      0xfbb libc_pic.a(vis.pico)
                0x000841f0                svis
                0x00084740                snvis
                0x000847b0                strsvis
                0x00084820                strsnvis
                0x00084890                strsvisx
                0x000848e0                strsnvisx
                0x00084940                strsenvisx
                0x00084990                vis
                0x00084a00                nvis
                0x00084a70                strvis
                0x00084ad0                strnvis
                0x00084b30                strvisx
                0x00084b30                _strvisx
                0x00084b80                strnvisx
                0x00084be0                strenvisx
 *fill*         0x000851ab        0x5 
 .text          0x000851b0      0x288 libc_pic.a(stringlist.pico)
                0x000851b0                sl_init
                0x000851b0                _sl_init
                0x00085230                sl_add
                0x00085230                _sl_add
                0x000852b0                _sl_free
                0x000852b0                sl_free
                0x00085330                sl_find
                0x00085330                _sl_find
                0x00085390                sl_delete
                0x00085390                _sl_delete
 *fill*         0x00085438        0x8 
 .text          0x00085440       0x4b libc_pic.a(sleep.pico)
                0x00085440                _sleep
                0x00085440                sleep
 *fill*         0x0008548b        0x5 
 .text          0x00085490       0x64 libc_pic.a(rewinddir.pico)
                0x00085490                _rewinddir
                0x00085490                rewinddir
 *fill*         0x000854f4        0xc 
 .text          0x00085500      0x18c libc_pic.a(getdevmajor.pico)
                0x00085500                __getdevmajor50
                0x00085530                getdevmajor
                0x00085530                _getdevmajor
 *fill*         0x0008568c        0x4 
 .text          0x00085690     0x16d4 libc_pic.a(fts.pico)
                0x00085690                __fts_open60
                0x00085e00                __fts_close60
                0x00085f00                __fts_read60
                0x00086c00                __fts_set60
                0x00086c40                __fts_children60
 *fill*         0x00086d64        0xc 
 .text          0x00086d70       0x3e libc_pic.a(closedir.pico)
                0x00086d70                _closedir
                0x00086d70                closedir
 *fill*         0x00086dae        0x2 
 .text          0x00086db0     0x1858 libc_pic.a(strtod.pico)
                0x00086db0                strtod
                0x000885e0                _strtod_l
                0x000885e0                strtod_l
 *fill*         0x00088608        0x8 
 .text          0x00088610       0x7c libc_pic.a(strtold_px.pico)
                0x00088610                strtold
                0x00088610                _strtold
                0x00088650                strtold_l
                0x00088650                _strtold_l
 *fill*         0x0008868c        0x4 
 .text          0x00088690      0x171 libc_pic.a(strtof.pico)
                0x00088690                strtof
                0x00088690                _strtof
                0x00088750                _strtof_l
                0x00088750                strtof_l
 *fill*         0x00088801        0xf 
 .text          0x00088810       0x25 libc_pic.a(citrus_module.pico)
                0x00088810                _citrus_find_getops
                0x00088820                _citrus_load_module
                0x00088830                _citrus_unload_module
 *fill*         0x00088835        0xb 
 .text          0x00088840      0x248 libc_pic.a(stack_utils.pico)
                0x00088840                minix_stack_params
                0x00088900                minix_stack_fill
 *fill*         0x00088a88        0x8 
 .text          0x00088a90       0xbc libc_pic.a(kernel_utils.pico)
                0x00088a90                get_minix_kerninfo
                0x00088ae0                minix_get_user_sp
 *fill*         0x00088b4c        0x4 
 .text          0x00088b50       0xe9 libc_pic.a(wait4.pico)
                0x00088b50                __wait450
 *fill*         0x00088c39        0x7 
 .text          0x00088c40      0x18f libc_pic.a(chdir.pico)
                0x00088c40                chdir
                0x00088d10                fchdir
 *fill*         0x00088dcf        0x1 
 .text          0x00088dd0       0x83 libc_pic.a(strrchr.pico)
                0x00088dd0                strrchr
                0x00088dd0                rindex
 *fill*         0x00088e53        0xd 
 .text          0x00088e60       0x20 libc_pic.a(wcslen.pico)
                0x00088e60                wcslen
 .text          0x00088e80       0x35 libc_pic.a(wcschr.pico)
                0x00088e80                wcschr
 *fill*         0x00088eb5        0xb 
 .text          0x00088ec0       0x38 libc_pic.a(strcoll.pico)
                0x00088ec0                strcoll
                0x00088ee0                _strcoll_l
                0x00088ee0                strcoll_l
 *fill*         0x00088ef8        0x8 
 .text          0x00088f00      0x2f3 libc_pic.a(strtoumax.pico)
                0x00088f00                strtoumax
                0x00088f00                _strtoumax
                0x000891c0                strtoumax_l
                0x000891c0                _strtoumax_l
 *fill*         0x000891f3        0xd 
 .text          0x00089200       0xb0 libc_pic.a(reallocarr.pico)
                0x00089200                _reallocarr
                0x00089200                reallocarr
 .text          0x000892b0      0xce7 libc_pic.a(iswctype_mb.pico)
                0x000892b0                iswalnum_l
                0x000892f0                iswalnum
                0x00089330                iswalpha_l
                0x00089370                iswalpha
                0x000893b0                iswblank_l
                0x000893f0                iswblank
                0x00089430                iswcntrl_l
                0x00089470                iswcntrl
                0x000894b0                iswdigit_l
                0x000894f0                iswdigit
                0x00089530                iswgraph_l
                0x00089570                iswgraph
                0x000895b0                iswlower_l
                0x000895f0                iswlower
                0x00089630                iswprint_l
                0x00089670                iswprint
                0x000896b0                iswpunct_l
                0x000896f0                iswpunct
                0x00089730                iswspace_l
                0x00089770                iswspace
                0x000897b0                iswupper_l
                0x000897f0                iswupper
                0x00089830                iswxdigit_l
                0x00089870                iswxdigit
                0x000898b0                towupper_l
                0x00089900                towupper
                0x00089950                towlower_l
                0x000899a0                towlower
                0x000899f0                wctype_l
                0x00089bb0                wctype
                0x00089be0                wctrans_l
                0x00089c50                wctrans
                0x00089cc0                iswctype_l
                0x00089d10                iswctype
                0x00089d60                towctrans
                0x00089db0                towctrans_l
                0x00089e00                _wcwidth_l
                0x00089e00                wcwidth_l
                0x00089e50                wcwidth
                0x00089e50                _wcwidth
                0x00089ea0                wcswidth_l
                0x00089f20                wcswidth
 *fill*         0x00089f97        0x9 
 .text          0x00089fa0      0x5bf libc_pic.a(multibyte_c90.pico)
                0x00089fa0                mblen_l
                0x0008a000                mblen
                0x0008a060                mbstowcs_l
                0x0008a0d0                mbstowcs
                0x0008a140                mbtowc_l
                0x0008a1b0                mbtowc
                0x0008a220                wcstombs_l
                0x0008a290                wcstombs
                0x0008a300                wcsnrtombs_l
                0x0008a3d0                wcsnrtombs
                0x0008a4a0                wctomb_l
                0x0008a500                wctomb
 *fill*         0x0008a55f        0x1 
 .text          0x0008a560       0xa0 libc_pic.a(vwarnc.pico)
                0x0008a560                _vwarnc
                0x0008a560                vwarnc
 .text          0x0008a600       0x6d libc_pic.a(vwarnx.pico)
                0x0008a600                _vwarnx
                0x0008a600                vwarnx
 *fill*         0x0008a66d        0x3 
 .text          0x0008a670       0x85 libc_pic.a(sysctlbyname.pico)
                0x0008a670                _sysctlbyname
                0x0008a670                sysctlbyname
 *fill*         0x0008a6f5        0xb 
 .text          0x0008a700      0x24b libc_pic.a(opendir.pico)
                0x0008a700                __opendir30
                0x0008a770                __opendir230
                0x0008a8c0                fdopendir
                0x0008a8c0                _fdopendir
 *fill*         0x0008a94b        0x5 
 .text          0x0008a950      0x3ff libc_pic.a(initdir.pico)
                0x0008a950                _initdir
                0x0008ad00                _finidir
 *fill*         0x0008ad4f        0x1 
 .text          0x0008ad50       0x35 libc_pic.a(alphasort.pico)
                0x0008ad50                __alphasort30
 *fill*         0x0008ad85        0xb 
 .text          0x0008ad90      0x1a9 libc_pic.a(strtord.pico)
                0x0008ad90                __ULtod_D2A
                0x0008ae20                __strtord_D2A
 *fill*         0x0008af39        0x7 
 .text          0x0008af40       0x9f libc_pic.a(ulp.pico)
                0x0008af40                __ulp_D2A
 *fill*         0x0008afdf        0x1 
 .text          0x0008afe0       0xe7 libc_pic.a(strtopx.pico)
                0x0008afe0                __strtopx_D2A
 *fill*         0x0008b0c7        0x9 
 .text          0x0008b0d0      0xc13 libc_pic.a(merge.pico)
                0x0008b0d0                _mergesort
                0x0008b0d0                mergesort
 *fill*         0x0008bce3        0xd 
 .text          0x0008bcf0      0x1c4 libc_pic.a(telldir.pico)
                0x0008bcf0                _telldir
                0x0008bcf0                telldir
                0x0008bd80                _telldir_unlocked
                0x0008be10                _seekdir_unlocked
 *fill*         0x0008beb4        0xc 
 .text          0x0008bec0      0x1c8 libc_pic.a(readdir.pico)
                0x0008bec0                ___readdir_unlocked50
                0x0008bfc0                __readdir30
                0x0008bff0                __readdir_r30
 *fill*         0x0008c088        0x8 
 .text          0x0008c090       0xd5 libc_pic.a(getdents.pico)
                0x0008c090                __getdents30
 *fill*         0x0008c165        0xb 
 .text          0x0008c170      0x108 libc_pic.a(ucontext.pico)
                0x0008c170                _getcontext
                0x0008c170                getcontext
                0x0008c1e0                setcontext
                0x0008c260                ctx_start
 *fill*         0x0008c278        0x8 
 .text          0x0008c280      0x28b libc_pic.a(_ucontext.pico)
                0x0008c280                setuctx
                0x0008c310                getuctx
                0x0008c390                makecontext
                0x0008c450                swapcontext
                0x0008c4d0                resumecontext
 *fill*         0x0008c50b        0x5 
 .text          0x0008c510      0x17f libc_pic.a(_mcontext.pico)
                0x0008c510                setmcontext
                0x0008c5d0                getmcontext
 *fill*         0x0008c68f        0x1 
 .text          0x0008c690      0x3fa libc_pic.a(socket.pico)
                0x0008c690                __socket30
 *fill*         0x0008ca8a        0x6 
 .text          0x0008ca90      0x43e libc_pic.a(bind.pico)
                0x0008ca90                bind
 *fill*         0x0008cece        0x2 
 .text          0x0008ced0       0xe5 libc_pic.a(mknod.pico)
                0x0008ced0                __mknod50
 *fill*         0x0008cfb5        0xb 
 .text          0x0008cfc0      0x38e libc_pic.a(vectorio.pico)
                0x0008cfc0                _vectorio_setup
                0x0008d120                _vectorio_cleanup
                0x0008d250                readv
                0x0008d2d0                writev
 *fill*         0x0008d34e        0x2 
 .text          0x0008d350      0x4bd libc_pic.a(sendto.pico)
                0x0008d350                sendto
 *fill*         0x0008d80d        0x3 
 .text          0x0008d810      0x5ef libc_pic.a(ioctl.pico)
                0x0008d810                ioctl
 *fill*         0x0008ddff        0x1 
 .text          0x0008de00     0x1508 libc_pic.a(strftime.pico)
                0x0008de00                strftime_z
                0x0008de00                _strftime_z
                0x0008de50                strftime_lz
                0x0008de50                _strftime_lz
                0x0008f0e0                strftime
                0x0008f140                strftime_l
                0x0008f140                _strftime_l
 *fill*         0x0008f308        0x8 
 .text          0x0008f310     0x18fb libc_pic.a(malloc.pico)
                0x0008f3b0                malloc
                0x0008f980                posix_memalign
                0x0008fdf0                calloc
                0x0008fe70                free
                0x0008fea0                realloc
                0x0008fed0                _malloc_prefork
                0x0008fee0                _malloc_postfork
 *fill*         0x00090c0b        0x5 
 .text          0x00090c10       0xde libc_pic.a(readlink.pico)
                0x00090c10                readlink
                0x00090c10                _readlink
 *fill*         0x00090cee        0x2 
 .text          0x00090cf0       0xb8 libc_pic.a(getuid.pico)
                0x00090cf0                getuid
 *fill*         0x00090da8        0x8 
 .text          0x00090db0       0xb8 libc_pic.a(getgid.pico)
                0x00090db0                getgid
 *fill*         0x00090e68        0x8 
 .text          0x00090e70       0x37 libc_pic.a(sbrk.pico)
                0x00090e70                _sbrk
                0x00090e70                sbrk
 *fill*         0x00090ea7        0x9 
 .text          0x00090eb0       0xe2 libc_pic.a(brk.pico)
                0x00090eb0                _brk
                0x00090eb0                brk
 *fill*         0x00090f92        0x2 
 .text          0x00090f94        0x0 libc_pic.a(brksize.pico)
 *fill*         0x00090f94        0xc 
 .text          0x00090fa0       0xce libc_pic.a(wsetup.pico)
                0x00090fa0                __swsetup
 *fill*         0x0009106e        0x2 
 .text          0x00091070       0x77 libc_pic.a(fwalk.pico)
                0x00091070                _fwalk
 *fill*         0x000910e7        0x9 
 .text          0x000910f0     0x22f8 libc_pic.a(res_send.pico)
                0x000910f0                __res_ourserver_p
                0x00091290                __res_nameinquery
                0x000913b0                __res_queriesmatch
                0x00091520                __res_nsend
 *fill*         0x000933e8        0x8 
 .text          0x000933f0      0x68a libc_pic.a(recvfrom.pico)
                0x000933f0                recvfrom
 *fill*         0x00093a7a        0x6 
 .text          0x00093a80      0x36c libc_pic.a(getpeername.pico)
                0x00093a80                getpeername
 *fill*         0x00093dec        0x4 
 .text          0x00093df0      0xa75 libc_pic.a(getnameinfo.pico)
                0x00093df0                getnameinfo
                0x00093df0                _getnameinfo
 *fill*         0x00094865        0xb 
 .text          0x00094870      0x219 libc_pic.a(getservbyport_r.pico)
                0x00094870                getservbyport_r
                0x00094870                _getservbyport_r
 *fill*         0x00094a89        0x7 
 .text          0x00094a90       0x15 libc_pic.a(ev_streams.pico)
                0x00094a90                __evConsIovec
 *fill*         0x00094aa5        0xb 
 .text          0x00094ab0      0x29e libc_pic.a(ev_timers.pico)
                0x00094ab0                __evConsTime
                0x00094ad0                __evAddTime
                0x00094b10                __evSubTime
                0x00094b50                __evCmpTime
                0x00094bb0                __evNowTime
                0x00094c50                __evTimeSpec
                0x00094c80                __evUTCTime
                0x00094d20                __evTimeVal
 *fill*         0x00094d4e        0x2 
 .text          0x00094d50      0x2aa libc_pic.a(assert.pico)
                0x00094d50                __assert13
                0x00094dd0                __assert
                0x00094e10                __diagassert13
                0x00094fc0                __diagassert
 *fill*         0x00094ffa        0x6 
 .text          0x00095000       0xe3 libc_pic.a(clock_gettime.pico)
                0x00095000                __clock_gettime50
 *fill*         0x000950e3        0xd 
 .text          0x000950f0       0xa3 libc_pic.a(if_indextoname.pico)
                0x000950f0                if_indextoname
                0x000950f0                _if_indextoname
 *fill*         0x00095193        0xd 
 .text          0x000951a0      0x9ca libc_pic.a(res_query.pico)
                0x000951a0                __res_nquery
                0x000954b0                __res_nsearch
                0x000958c0                __res_hostalias
                0x00095a30                __res_nquerydomain
 *fill*         0x00095b6a        0x6 
 .text          0x00095b70      0x54b libc_pic.a(res_mkquery.pico)
                0x00095b70                __res_nmkquery
                0x00095ec0                __res_nopt
                0x00095fd0                __res_nopt_rdata
 *fill*         0x000960bb        0x5 
 .text          0x000960c0     0x1815 libc_pic.a(res_init.pico)
                0x000960c0                __res_ninit
                0x000960f0                __res_vinit
                0x00096ec0                __res_ndestroy
                0x00096fc0                __res_rndinit
                0x00097030                __res_nrandomid
                0x000970c0                __res_setservers
                0x000976f0                __res_check
                0x00097700                __res_nclose
                0x00097790                __res_get_nibblesuffix
                0x000977c0                __res_get_nibblesuffix2
                0x000977f0                __res_getservers
 *fill*         0x000978d5        0xb 
 .text          0x000978e0       0x85 libc_pic.a(puts.pico)
                0x000978e0                puts
 *fill*         0x00097965        0xb 
 .text          0x00097970     0x3307 libc_pic.a(getaddrinfo.pico)
                0x00097970                gai_strerror
                0x00097970                _gai_strerror
                0x000979a0                _freeaddrinfo
                0x000979a0                freeaddrinfo
                0x000979f0                _getaddrinfo
                0x000979f0                getaddrinfo
                0x00098920                _allocaddrinfo
                0x00098920                allocaddrinfo
 *fill*         0x0009ac77        0x9 
 .text          0x0009ac80      0x336 libc_pic.a(getservbyname_r.pico)
                0x0009ac80                getservbyname_r
                0x0009ac80                _getservbyname_r
 *fill*         0x0009afb6        0xa 
 .text          0x0009afc0      0xa65 libc_pic.a(md5c.pico)
                0x0009afc0                _MD5Init
                0x0009afc0                MD5Init
                0x0009b000                _MD5Update
                0x0009b000                MD5Update
                0x0009b100                MD5Transform
                0x0009b860                MD5Final
                0x0009b860                _MD5Final
 *fill*         0x0009ba25        0xb 
 .text          0x0009ba30      0x286 libc_pic.a(inet_addr.pico)
                0x0009ba30                inet_addr
                0x0009ba70                _inet_aton
                0x0009ba70                inet_aton
 *fill*         0x0009bcb6        0xa 
 .text          0x0009bcc0      0x1cf libc_pic.a(vasprintf.pico)
                0x0009bcc0                _vasprintf_l
                0x0009bcc0                vasprintf_l
                0x0009bdd0                vasprintf
                0x0009bdd0                _vasprintf
                0x0009be10                asprintf_l
                0x0009be10                _asprintf_l
                0x0009be50                asprintf
                0x0009be50                _asprintf
 *fill*         0x0009be8f        0x1 
 .text          0x0009be90      0x11b libc_pic.a(fgets.pico)
                0x0009be90                fgets
 *fill*         0x0009bfab        0x5 
 .text          0x0009bfb0       0xa3 libc_pic.a(if_nametoindex.pico)
                0x0009bfb0                _if_nametoindex
                0x0009bfb0                if_nametoindex
 *fill*         0x0009c053        0xd 
 .text          0x0009c060      0x7a1 libc_pic.a(getservent_r.pico)
                0x0009c060                _servent_open
                0x0009c130                _servent_close
                0x0009c1a0                _servent_getline
                0x0009c230                _servent_parseline
                0x0009c400                endservent_r
                0x0009c400                _endservent_r
                0x0009c4b0                _setservent_r
                0x0009c4b0                setservent_r
                0x0009c4f0                _getservent_r
                0x0009c4f0                getservent_r
                0x0009c620                _servent_parsedb
 *fill*         0x0009c801        0xf 
 .text          0x0009c810      0x6a8 libc_pic.a(getifaddrs.pico)
                0x0009c810                _getifaddrs
                0x0009c810                getifaddrs
                0x0009cea0                _freeifaddrs
                0x0009cea0                freeifaddrs
 *fill*         0x0009ceb8        0x8 
 .text          0x0009cec0      0x6b1 libc_pic.a(cdbr.pico)
                0x0009cec0                _cdbr_open
                0x0009cec0                cdbr_open
                0x0009cff0                cdbr_open_mem
                0x0009cff0                _cdbr_open_mem
                0x0009d310                cdbr_entries
                0x0009d320                _cdbr_get
                0x0009d320                cdbr_get
                0x0009d3c0                _cdbr_find
                0x0009d3c0                cdbr_find
                0x0009d530                _cdbr_close
                0x0009d530                cdbr_close
 *fill*         0x0009d571        0xf 
 .text          0x0009d580      0x385 libc_pic.a(mi_vector_hash.pico)
                0x0009d580                mi_vector_hash
                0x0009d580                _mi_vector_hash
 *fill*         0x0009d905        0xb 
 .text          0x0009d910       0x34 libc_pic.a(atoi.pico)
                0x0009d910                atoi
 *fill*         0x0009d944        0xc 
 .text          0x0009d950     0x2a0a libc_pic.a(res_debug.pico)
                0x0009d950                __res_pquery
                0x0009e100                __p_rcode
                0x0009e220                __p_section
                0x0009e9e0                __p_cdnname
                0x0009ea90                __p_cdname
                0x0009eb40                __p_fqnname
                0x0009ebc0                __p_fqname
                0x0009ec80                __sym_ston
                0x0009ecf0                __sym_ntos
                0x0009ed80                __sym_ntop
                0x0009ee10                __p_type
                0x0009eea0                __p_class
                0x0009ef60                __p_option
                0x0009f1c0                __p_time
                0x0009f220                __p_sockun
                0x0009f2c0                __loc_aton
                0x0009fa90                __loc_ntoa
                0x0009ff90                __dn_count_labels
                0x000a0010                __p_secstodate
                0x000a00c0                __res_nametoclass
                0x000a0270                __res_nametotype
 *fill*         0x000a035a        0x6 
 .text          0x000a0360       0xb0 libc_pic.a(strerror.pico)
                0x000a0360                strerror
                0x000a03c0                _strerror_l
                0x000a03c0                strerror_l
 .text          0x000a0410      0x273 libc_pic.a(strtoul.pico)
                0x000a0410                strtoul
                0x000a0650                strtoul_l
 *fill*         0x000a0683        0xd 
 .text          0x000a0690       0x78 libc_pic.a(fputs.pico)
                0x000a0690                fputs
 *fill*         0x000a0708        0x8 
 .text          0x000a0710       0x49 libc_pic.a(fputc.pico)
                0x000a0710                fputc
 *fill*         0x000a0759        0x7 
 .text          0x000a0760     0x401f libc_pic.a(ns_print.pico)
                0x000a0760                __ns_sprintrr
                0x000a0820                __ns_sprintrrf
 *fill*         0x000a477f        0x1 
 .text          0x000a4780      0x824 libc_pic.a(ns_parse.pico)
                0x000a4780                __ns_msg_getflag
                0x000a47b0                __ns_skiprr
                0x000a4850                __ns_initparse
                0x000a4aa0                __ns_parserr
                0x000a4d20                __ns_parserr2
 *fill*         0x000a4fa4        0xc 
 .text          0x000a4fb0      0x40e libc_pic.a(base64.pico)
                0x000a4fb0                __b64_ntop
                0x000a5170                __b64_pton
 *fill*         0x000a53be        0x2 
 .text          0x000a53c0      0x23a libc_pic.a(nsap_addr.pico)
                0x000a53c0                inet_nsap_addr
                0x000a53c0                _inet_nsap_addr
                0x000a5520                _inet_nsap_ntoa
                0x000a5520                inet_nsap_ntoa
 *fill*         0x000a55fa        0x6 
 .text          0x000a5600      0x526 libc_pic.a(inet_ntop.pico)
                0x000a5600                _inet_ntop
                0x000a5600                inet_ntop
 *fill*         0x000a5b26        0xa 
 .text          0x000a5b30       0x37 libc_pic.a(mtctxres.pico)
                0x000a5b30                __res_enable_mt
                0x000a5b40                __res_disable_mt
                0x000a5b50                ___mtctxres
 *fill*         0x000a5b67        0x9 
 .text          0x000a5b70      0x309 libc_pic.a(ns_ttl.pico)
                0x000a5b70                __ns_format_ttl
 *fill*         0x000a5e79        0x7 
 .text          0x000a5e80      0x136 libc_pic.a(ns_samedomain.pico)
                0x000a5e80                __ns_makecanon
                0x000a5f30                __ns_samename
 *fill*         0x000a5fb6        0xa 
 .text          0x000a5fc0      0x7bc libc_pic.a(sethostent.pico)
                0x000a5fc0                _sethostent
                0x000a5fc0                sethostent
                0x000a6040                sethostent_r
                0x000a6090                endhostent
                0x000a6090                _endhostent
                0x000a60e0                endhostent_r
                0x000a6110                _hf_sethostsfile
                0x000a6130                _hf_gethtbyname
                0x000a66a0                _hf_gethtbyaddr
 *fill*         0x000a677c        0x4 
 .text          0x000a6780       0x3a libc_pic.a(rewind.pico)
                0x000a6780                rewind
 *fill*         0x000a67ba        0x6 
 .text          0x000a67c0       0x3d libc_pic.a(fseek.pico)
                0x000a67c0                fseek
 *fill*         0x000a67fd        0x3 
 .text          0x000a6800      0x5c0 libc_pic.a(res_data.pico)
                0x000a6800                _res_init
                0x000a6800                res_init
                0x000a68b0                __p_query
                0x000a6910                __fp_query
                0x000a6960                __fp_nquery
                0x000a69b0                res_mkquery
                0x000a69b0                _res_mkquery
                0x000a6a50                res_query
                0x000a6a50                _res_query
                0x000a6ad0                res_send_setqhook
                0x000a6ad0                __res_send_setqhook
                0x000a6af0                __res_send_setrhook
                0x000a6af0                res_send_setrhook
                0x000a6b10                __res_isourserver
                0x000a6b40                __res_send
                0x000a6b40                res_send
                0x000a6ba0                res_close
                0x000a6ba0                __res_close
                0x000a6bd0                _res_search
                0x000a6bd0                res_search
                0x000a6c50                res_querydomain
                0x000a6c50                __res_querydomain
                0x000a6cd0                __res_opt
                0x000a6d20                __res_randomid
                0x000a6d80                __hostalias
 .text          0x000a6dc0       0x45 libc_pic.a(h_errno.pico)
                0x000a6dc0                __h_errno
                0x000a6de0                __h_errno_set
 *fill*         0x000a6e05        0xb 
 .text          0x000a6e10     0x1fc5 libc_pic.a(gethnamaddr.pico)
                0x000a6e10                gethostbyname_r
                0x000a7240                gethostbyname2_r
                0x000a72b0                gethostbyaddr_r
                0x000a7420                _dns_gethtbyaddr
                0x000a77b0                gethostent_r
                0x000a7ca0                _dns_gethtbyname
                0x000a8b30                _gethostbyaddr
                0x000a8b30                gethostbyaddr
                0x000a8b90                _gethostbyname
                0x000a8b90                gethostbyname
                0x000a8be0                gethostbyname2
                0x000a8c60                gethostent
                0x000a8c60                _gethostent
 *fill*         0x000a8dd5        0xb 
 .text          0x000a8de0      0x555 libc_pic.a(inet_pton.pico)
                0x000a8de0                inet_pton
                0x000a8de0                _inet_pton
 *fill*         0x000a9335        0xb 
 .text          0x000a9340      0x5ca libc_pic.a(fseeko.pico)
                0x000a9340                fseeko
                0x000a9340                _fseeko
 *fill*         0x000a990a        0x6 
 .text          0x000a9910      0x3be libc_pic.a(fparseln.pico)
                0x000a9910                _fparseln
                0x000a9910                fparseln
 *fill*         0x000a9cce        0x2 
 .text          0x000a9cd0       0x33 libc_pic.a(fgetln.pico)
                0x000a9cd0                _fgetln
                0x000a9cd0                fgetln
 *fill*         0x000a9d03        0xd 
 .text          0x000a9d10       0x56 libc_pic.a(res_compat.pico)
                0x000a9d10                __res_get_old_state
                0x000a9d30                __res_put_old_state
 *fill*         0x000a9d66        0xa 
 .text          0x000a9d70      0x618 libc_pic.a(res_comp.pico)
                0x000a9d70                dn_expand
                0x000a9d70                _dn_expand
                0x000a9dd0                __dn_comp
                0x000a9dd0                dn_comp
                0x000a9df0                dn_skipname
                0x000a9df0                __dn_skipname
                0x000a9e40                res_hnok
                0x000a9e40                __res_hnok
                0x000a9f40                __res_ownok
                0x000a9f40                res_ownok
                0x000aa160                res_mailok
                0x000aa160                __res_mailok
                0x000aa2d0                res_dnok
                0x000aa2d0                __res_dnok
                0x000aa310                __putlong
                0x000aa330                __putshort
                0x000aa350                _getlong
                0x000aa370                _getshort
 *fill*         0x000aa388        0x8 
 .text          0x000aa390       0x90 libc_pic.a(ns_netint.pico)
                0x000aa390                __ns_get16
                0x000aa3b0                __ns_get32
                0x000aa3e0                __ns_put16
                0x000aa400                __ns_put32
 .text          0x000aa420     0x14e2 libc_pic.a(ns_name.pico)
                0x000aa420                __ns_name_ntop
                0x000aa7b0                __ns_name_pton
                0x000aa7f0                __ns_name_pton2
                0x000aad20                __ns_name_ntol
                0x000aae60                __ns_name_unpack
                0x000aaeb0                __ns_name_unpack2
                0x000ab010                __ns_name_pack
                0x000ab3e0                __ns_name_uncompress
                0x000ab460                __ns_name_compress
                0x000ab4e0                __ns_name_rollback
                0x000ab520                __ns_name_skip
                0x000ab5d0                __ns_name_length
                0x000ab640                __ns_name_eq
                0x000ab760                __ns_name_owned
                0x000ab7e0                __ns_name_map
                0x000ab8a0                __ns_name_labels
 *fill*         0x000ab902        0xe 
 .text          0x000ab910       0x73 libc_pic.a(strncasecmp.pico)
                0x000ab910                strncasecmp
                0x000ab910                _strncasecmp
 *fill*         0x000ab983        0xd 
 .text          0x000ab990      0x2b3 libc_pic.a(strtol.pico)
                0x000ab990                strtol
                0x000abc10                strtol_l
 *fill*         0x000abc43        0xd 
 .text          0x000abc50      0x2d2 libc_pic.a(vsprintf.pico)
                0x000abc50                _vsprintf_l
                0x000abc50                vsprintf_l
                0x000abd00                vsprintf
                0x000abdb0                _sprintf_l
                0x000abdb0                sprintf_l
                0x000abe70                sprintf
 *fill*         0x000abf22        0xe 
 .text          0x000abf30       0x80 libc_pic.a(fgetstr.pico)
                0x000abf30                __fgetstr
 .text          0x000abfb0      0x1e8 libc_pic.a(getdelim.pico)
                0x000abfb0                __getdelim
                0x000ac180                _getdelim
                0x000ac180                getdelim
 *fill*         0x000ac198        0x8 
 .text          0x000ac1a0      0x791 libc_pic.a(nsparser.pico)
                0x000ac1a0                _nsyyparse
 *fill*         0x000ac931        0xf 
 .text          0x000ac940     0x1608 libc_pic.a(nslexer.pico)
                0x000ac940                _nsyylex
                0x000ad450                _nsyy_create_buffer
                0x000ad570                _nsyywrap
                0x000ad580                _nsyyrestart
                0x000ad750                _nsyy_switch_to_buffer
                0x000ad810                _nsyyalloc
                0x000ad830                _nsyy_delete_buffer
                0x000ad8a0                _nsyyfree
                0x000ad8c0                _nsyy_flush_buffer
                0x000ad960                _nsyypush_buffer_state
                0x000ada30                _nsyypop_buffer_state
                0x000adaf0                _nsyy_scan_buffer
                0x000adb90                _nsyy_scan_string
                0x000adbd0                _nsyy_scan_bytes
                0x000adcb0                _nsyyget_lineno
                0x000adcd0                _nsyyget_in
                0x000adcf0                _nsyyget_out
                0x000add10                _nsyyget_leng
                0x000add30                _nsyyget_text
                0x000add50                _nsyyset_lineno
                0x000add70                _nsyyset_in
                0x000add90                _nsyyset_out
                0x000addb0                _nsyyget_debug
                0x000addd0                _nsyyset_debug
                0x000addf0                _nsyylex_destroy
                0x000aded0                _nsyyrealloc
                0x000adef0                _nsyyerror
 *fill*         0x000adf48        0x8 
 .text          0x000adf50      0xa79 libc_pic.a(nsdispatch.pico)
                0x000adf50                _nsdbtaddsrc
                0x000ae280                _nsdbtdump
                0x000ae3b0                _nsdbtput
                0x000ae4f0                _nsdispatch
                0x000ae4f0                nsdispatch
 *fill*         0x000ae9c9        0x7 
 .text          0x000ae9d0      0xe82 libc_pic.a(syslog.pico)
                0x000ae9d0                syslog
                0x000ae9d0                _syslog
                0x000aea20                vsyslog
                0x000aea20                _vsyslog
                0x000aea70                __vsyslog_r60
                0x000aeac0                _syslogp
                0x000aeac0                syslogp
                0x000aeb20                vsyslogp
                0x000aeb20                _vsyslogp
                0x000aeb70                __vsyslogp_r60
                0x000af400                _openlog
                0x000af400                openlog
                0x000af460                __openlog_r60
                0x000af4c0                closelog
                0x000af4c0                _closelog
                0x000af510                __closelog_r60
                0x000af550                _setlogmask
                0x000af550                setlogmask
                0x000af580                __setlogmask_r60
                0x000af5a0                __syslog_r60
                0x000af5f0                __syslogp_r60
                0x000af640                __syslog_ss60
                0x000af6a0                __syslogp_ss60
                0x000af700                __vsyslog_ss60
                0x000af750                __vsyslogp_ss60
 *fill*         0x000af852        0xe 
 .text          0x000af860       0x19 libc_pic.a(getprogname.pico)
                0x000af860                getprogname
                0x000af860                _getprogname
 *fill*         0x000af879        0x7 
 .text          0x000af880       0x65 libc_pic.a(gethostname.pico)
                0x000af880                _gethostname
                0x000af880                gethostname
 *fill*         0x000af8e5        0xb 
 .text          0x000af8f0      0x2dd libc_pic.a(connect.pico)
                0x000af8f0                connect
 *fill*         0x000afbcd        0x3 
 .text          0x000afbd0     0x48cb libc_pic.a(localtime.pico)
                0x000afbd0                __tzgetname50
                0x000afc50                __tzsetwall50
                0x000afe50                __tzset50
                0x000afe80                __tzalloc50
                0x000b00a0                __tzfree50
                0x000b00c0                __localtime_rz50
                0x000b04d0                __locatime50
                0x000b0530                __localtime_r50
                0x000b05a0                __gmtime_r50
                0x000b06c0                __gmtime50
                0x000b06f0                __offtime50
                0x000b07c0                __offtime_r50
                0x000b0890                __ctime50
                0x000b0900                __ctime_r50
                0x000b0980                __ctime_rz50
                0x000b09e0                __mktime_z50
                0x000b0a90                __mktime50
                0x000b0b60                __timelocal_z50
                0x000b0b90                __timelocal50
                0x000b0bc0                __timegm50
                0x000b0bf0                __timeoff50
                0x000b0f90                __time2posix_z50
                0x000b0ff0                __time2posix50
                0x000b10a0                __posix2time_z50
                0x000b12c0                __posix2time50
 *fill*         0x000b449b        0x5 
 .text          0x000b44a0      0x19e libc_pic.a(asctime.pico)
                0x000b44a0                asctime_r
                0x000b44a0                _asctime_r
                0x000b4610                asctime
 *fill*         0x000b463e        0x2 
 .text          0x000b4640       0xad libc_pic.a(strcat.pico)
                0x000b4640                strcat
 *fill*         0x000b46ed        0x3 
 .text          0x000b46f0      0x13e libc_pic.a(strerror_r.pico)
                0x000b46f0                _strerror_lr
                0x000b47f0                _strerror_r
                0x000b47f0                strerror_r
 *fill*         0x000b482e        0x2 
 .text          0x000b4830       0x49 libc_pic.a(strcasecmp.pico)
                0x000b4830                _strcasecmp
                0x000b4830                strcasecmp
 *fill*         0x000b4879        0x7 
 .text          0x000b4880       0x37 libc_pic.a(exit.pico)
                0x000b4880                exit
 *fill*         0x000b48b7        0x9 
 .text          0x000b48c0       0x69 libc_pic.a(bsearch.pico)
                0x000b48c0                bsearch
 *fill*         0x000b4929        0x7 
 .text          0x000b4930      0x263 libc_pic.a(atexit.pico)
                0x000b4930                __cxa_atexit
                0x000b49c0                __cxa_finalize
                0x000b4b20                atexit
 *fill*         0x000b4b93        0xd 
 .text          0x000b4ba0       0x3e libc_pic.a(snprintf_ss.pico)
                0x000b4ba0                snprintf_ss
                0x000b4ba0                _snprintf_ss
 *fill*         0x000b4bde        0x2 
 .text          0x000b4be0       0xbc libc_pic.a(putchar.pico)
                0x000b4be0                putchar
                0x000b4c40                putchar_unlocked
 *fill*         0x000b4c9c        0x4 
 .text          0x000b4ca0       0x82 libc_pic.a(printf.pico)
                0x000b4ca0                printf
                0x000b4ce0                _printf_l
                0x000b4ce0                printf_l
 *fill*         0x000b4d22        0xe 
 .text          0x000b4d30       0xc6 libc_pic.a(fread.pico)
                0x000b4d30                fread
 *fill*         0x000b4df6        0xa 
 .text          0x000b4e00       0x7e libc_pic.a(fprintf.pico)
                0x000b4e00                fprintf
                0x000b4e40                fprintf_l
                0x000b4e40                _fprintf_l
 *fill*         0x000b4e7e        0x2 
 .text          0x000b4e80      0x167 libc_pic.a(fopen.pico)
                0x000b4e80                fopen
 *fill*         0x000b4fe7        0x9 
 .text          0x000b4ff0      0x362 libc_pic.a(catopen.pico)
                0x000b4ff0                _catopen
                0x000b4ff0                catopen
                0x000b5030                catopen_l
                0x000b5030                _catopen_l
 *fill*         0x000b5352        0xe 
 .text          0x000b5360      0x12b libc_pic.a(catgets.pico)
                0x000b5360                catgets
                0x000b5360                _catgets
 *fill*         0x000b548b        0x5 
 .text          0x000b5490       0x58 libc_pic.a(catclose.pico)
                0x000b5490                _catclose
                0x000b5490                catclose
 *fill*         0x000b54e8        0x8 
 .text          0x000b54f0       0x4b libc_pic.a(send.pico)
                0x000b54f0                send
                0x000b54f0                _send
 *fill*         0x000b553b        0x5 
 .text          0x000b5540       0x70 libc_pic.a(usleep.pico)
                0x000b5540                _usleep
                0x000b5540                usleep
 .text          0x000b55b0        0x0 libc_pic.a(errlist.pico)
 .text          0x000b55b0      0x258 libc_pic.a(nanosleep.pico)
                0x000b55b0                __nanosleep50
 *fill*         0x000b5808        0x8 
 .text          0x000b5810       0xeb libc_pic.a(gettimeofday.pico)
                0x000b5810                __gettimeofday50
 *fill*         0x000b58fb        0x5 
 .text          0x000b5900       0xd0 libc_pic.a(access.pico)
                0x000b5900                access
 .text          0x000b59d0       0xcd libc_pic.a(wbuf.pico)
                0x000b59d0                __swbuf
 *fill*         0x000b5a9d        0x3 
 .text          0x000b5aa0      0xd6e libc_pic.a(vsnprintf_ss.pico)
                0x000b5aa0                vsnprintf_ss
                0x000b5aa0                _vsnprintf_ss
 *fill*         0x000b680e        0x2 
 .text          0x000b6810       0xdf libc_pic.a(select.pico)
                0x000b6810                __select50
                0x000b6810                select
 *fill*         0x000b68ef        0x1 
 .text          0x000b68f0       0x9e libc_pic.a(dummy_lc_collate.pico)
                0x000b68f0                _dummy_LC_COLLATE_setlocale
 *fill*         0x000b698e        0x2 
 .text          0x000b6990      0x339 libc_pic.a(generic_lc_all.pico)
                0x000b6990                _generic_LC_ALL_setlocale
 *fill*         0x000b6cc9        0x7 
 .text          0x000b6cd0      0x364 libc_pic.a(setlocale.pico)
                0x000b6cd0                _setlocale_cache
                0x000b6e50                _find_category
                0x000b6ed0                _get_locale_env
                0x000b6f50                __setlocale
                0x000b7010                __setlocale50
 *fill*         0x000b7034        0xc 
 .text          0x000b7040      0x7df libc_pic.a(citrus_lc_messages.pico)
                0x000b7040                _citrus_LC_MESSAGES_setlocale
 *fill*         0x000b781f        0x1 
 .text          0x000b7820      0x7e2 libc_pic.a(citrus_lc_time.pico)
                0x000b7820                _citrus_LC_TIME_setlocale
 *fill*         0x000b8002        0xe 
 .text          0x000b8010      0x70e libc_pic.a(citrus_lc_numeric.pico)
                0x000b8010                _citrus_LC_NUMERIC_setlocale
 *fill*         0x000b871e        0x2 
 .text          0x000b8720      0xd54 libc_pic.a(citrus_lc_monetary.pico)
                0x000b8720                _citrus_LC_MONETARY_setlocale
 *fill*         0x000b9474        0xc 
 .text          0x000b9480      0x456 libc_pic.a(citrus_lc_ctype.pico)
                0x000b9480                _citrus_LC_CTYPE_setlocale
 *fill*         0x000b98d6        0xa 
 .text          0x000b98e0      0x6c1 libc_pic.a(citrus_lookup.pico)
                0x000b98e0                _citrus_lookup_seq_open
                0x000b9a70                _citrus_lookup_seq_rewind
                0x000b9ab0                _citrus_lookup_seq_next
                0x000b9ac0                _citrus_lookup_seq_lookup
                0x000b9ad0                _citrus_lookup_get_number_of_entries
                0x000b9ae0                _citrus_lookup_seq_close
                0x000b9b20                _citrus_lookup_simple
 *fill*         0x000b9fa1        0xf 
 .text          0x000b9fb0       0x54 libc_pic.a(citrus_db_hash.pico)
                0x000b9fb0                _citrus_db_hash_std
 *fill*         0x000ba004        0xc 
 .text          0x000ba010      0x5d7 libc_pic.a(citrus_db.pico)
                0x000ba010                _citrus_db_open
                0x000ba0e0                _citrus_db_close
                0x000ba100                _citrus_db_lookup
                0x000ba2b0                _citrus_db_lookup_by_string
                0x000ba310                _citrus_db_lookup8_by_string
                0x000ba390                _citrus_db_lookup16_by_string
                0x000ba410                _citrus_db_lookup32_by_string
                0x000ba490                _citrus_db_lookup_string_by_string
                0x000ba510                _citrus_db_get_number_of_entries
                0x000ba520                _citrus_db_get_entry
 *fill*         0x000ba5e7        0x9 
 .text          0x000ba5f0      0x20f libc_pic.a(citrus_bcs_strtol.pico)
                0x000ba5f0                _citrus_bcs_strtol
 *fill*         0x000ba7ff        0x1 
 .text          0x000ba800       0x72 libc_pic.a(strndup.pico)
                0x000ba800                strndup
                0x000ba800                _strndup
 *fill*         0x000ba872        0xe 
 .text          0x000ba880      0x7cb libc_pic.a(rune.pico)
                0x000ba880                _rune_load
 *fill*         0x000bb04b        0x5 
 .text          0x000bb050      0x111 libc_pic.a(_wctype.pico)
                0x000bb050                _runetype_priv
                0x000bb0d0                _iswctype_priv
 *fill*         0x000bb161        0xf 
 .text          0x000bb170       0x62 libc_pic.a(_wctrans.pico)
                0x000bb170                _towctrans_ext
 *fill*         0x000bb1d2        0xe 
 .text          0x000bb1e0       0xca libc_pic.a(fix_grouping.pico)
                0x000bb1e0                __fix_locale_grouping_str
 *fill*         0x000bb2aa        0x2 
 .text          0x000bb2ac        0x0 libc_pic.a(__mb_cur_max.pico)
 *fill*         0x000bb2ac        0x4 
 .text          0x000bb2b0      0x120 libc_pic.a(citrus_mmap.pico)
                0x000bb2b0                _citrus_map_file
                0x000bb390                _citrus_unmap_file
 .text          0x000bb3d0      0x29e libc_pic.a(citrus_memstream.pico)
                0x000bb3d0                _citrus_memory_stream_getln
                0x000bb430                _citrus_memory_stream_matchline
                0x000bb5a0                _citrus_memory_stream_chr
                0x000bb630                _citrus_memory_stream_skip_ws
 *fill*         0x000bb66e        0x2 
 .text          0x000bb670      0x28c libc_pic.a(citrus_bcs.pico)
                0x000bb670                _citrus_bcs_strcasecmp
                0x000bb6d0                _citrus_bcs_strncasecmp
                0x000bb750                _citrus_bcs_skip_ws
                0x000bb790                _citrus_bcs_skip_nonws
                0x000bb7c0                _citrus_bcs_skip_ws_len
                0x000bb810                _citrus_bcs_skip_nonws_len
                0x000bb860                _citrus_bcs_trunc_rws_len
                0x000bb8a0                _citrus_bcs_convert_to_lower
                0x000bb8d0                _citrus_bcs_convert_to_upper
 *fill*         0x000bb8fc        0x4 
 .text          0x000bb900     0x27eb libc_pic.a(strtodg.pico)
                0x000bb900                __increment_D2A
                0x000bb9b0                __decrement_D2A
                0x000bb9e0                __set_ones_D2A
                0x000bbaa0                __strtodg_D2A
 *fill*         0x000be0eb        0x5 
 .text          0x000be0f0      0x1ca libc_pic.a(sum.pico)
                0x000be0f0                __sum_D2A
 *fill*         0x000be2ba        0x6 
 .text          0x000be2c0      0x38e libc_pic.a(hexnan.pico)
                0x000be2c0                __hexnan_D2A
 *fill*         0x000be64e        0x2 
 .text          0x000be650      0x8d0 libc_pic.a(gethex.pico)
                0x000be650                __gethex_D2A
 .text          0x000bef20      0x319 libc_pic.a(smisc.pico)
                0x000bef20                __s2b_D2A
                0x000bf030                __ratio_D2A
                0x000bf0e0                __match_D2A
                0x000bf120                __copybits_D2A
                0x000bf1d0                __any_on_D2A
 *fill*         0x000bf239        0x7 
 .text          0x000bf240       0x50 libc_pic.a(hd_init.pico)
                0x000bf240                __hexdig_init_D2A
 .text          0x000bf290      0x593 libc_pic.a(rec_put.pico)
                0x000bf290                __rec_put
                0x000bf5c0                __rec_iput
 *fill*         0x000bf823        0xd 
 .text          0x000bf830      0x406 libc_pic.a(rec_open.pico)
                0x000bf830                __rec_open
                0x000bfbd0                __rec_fd
 *fill*         0x000bfc36        0xa 
 .text          0x000bfc40      0x147 libc_pic.a(fdopen.pico)
                0x000bfc40                _fdopen
                0x000bfc40                fdopen
 *fill*         0x000bfd87        0x9 
 .text          0x000bfd90      0x19d libc_pic.a(rec_seq.pico)
                0x000bfd90                __rec_seq
 *fill*         0x000bff2d        0x3 
 .text          0x000bff30      0x697 libc_pic.a(rec_get.pico)
                0x000bff30                __rec_get
                0x000c0050                __rec_fpipe
                0x000c01e0                __rec_vpipe
                0x000c0370                __rec_fmap
                0x000c04f0                __rec_vmap
 *fill*         0x000c05c7        0x9 
 .text          0x000c05d0      0x2de libc_pic.a(rec_delete.pico)
                0x000c05d0                __rec_delete
                0x000c0750                __rec_dleaf
 *fill*         0x000c08ae        0x2 
 .text          0x000c08b0      0x357 libc_pic.a(rec_close.pico)
                0x000c08b0                __rec_close
                0x000c0990                __rec_sync
 *fill*         0x000c0c07        0x9 
 .text          0x000c0c10      0x853 libc_pic.a(mmap.pico)
                0x000c0c10                minix_mmap_for
                0x000c0d20                minix_vfs_mmap
                0x000c0e30                mmap
                0x000c0e30                _mmap
                0x000c0f30                _munmap
                0x000c0f30                munmap
                0x000c1000                vm_remap
                0x000c10f0                vm_remap_ro
                0x000c11e0                vm_unmap
                0x000c12b0                vm_getphys
                0x000c1390                vm_getrefcount
 *fill*         0x000c1463        0xd 
 .text          0x000c1470       0xcd libc_pic.a(ftruncate.pico)
                0x000c1470                ftruncate
                0x000c1470                _ftruncate
 *fill*         0x000c153d        0x3 
 .text          0x000c1540       0x52 libc_pic.a(rget.pico)
                0x000c1540                __srget
 *fill*         0x000c1592        0xe 
 .text          0x000c15a0      0x17b libc_pic.a(refill.pico)
                0x000c15a0                __srefill
 *fill*         0x000c171b        0x5 
 .text          0x000c1720      0x33e libc_pic.a(makebuf.pico)
                0x000c1720                __smakebuf
                0x000c19b0                __swhatbuf
 *fill*         0x000c1a5e        0x2 
 .text          0x000c1a60       0xdb libc_pic.a(flags.pico)
                0x000c1a60                __sflags
 *fill*         0x000c1b3b        0x5 
 .text          0x000c1b40       0xf3 libc_pic.a(fclose.pico)
                0x000c1b40                fclose
 *fill*         0x000c1c33        0xd 
 .text          0x000c1c40       0x38 libc_pic.a(isatty.pico)
                0x000c1c40                isatty
                0x000c1c40                _isatty
 *fill*         0x000c1c78        0x8 
 .text          0x000c1c80      0x185 libc_pic.a(rec_utils.pico)
                0x000c1c80                __rec_ret
 *fill*         0x000c1e05        0xb 
 .text          0x000c1e10      0x252 libc_pic.a(rec_search.pico)
                0x000c1e10                __rec_search
 *fill*         0x000c2062        0xe 
 .text          0x000c2070       0x33 libc_pic.a(tcgetattr.pico)
                0x000c2070                _tcgetattr
                0x000c2070                tcgetattr
 *fill*         0x000c20a3        0xd 
 .text          0x000c20b0      0x1b8 libc_pic.a(strtoi.pico)
                0x000c20b0                strtoi
                0x000c20b0                _strtoi
                0x000c2210                _strtoi_l
                0x000c2210                strtoi_l
 *fill*         0x000c2268        0x8 
 .text          0x000c2270      0x363 libc_pic.a(vsnprintf.pico)
                0x000c2270                _vsnprintf_l
                0x000c2270                vsnprintf_l
                0x000c2340                vsnprintf
                0x000c2340                _vsnprintf
                0x000c2420                snprintf
                0x000c2420                _snprintf
                0x000c2500                snprintf_l
                0x000c2500                _snprintf_l
 *fill*         0x000c25d3        0xd 
 .text          0x000c25e0     0x6b1e libc_pic.a(vfprintf.pico)
                0x000c25e0                vfprintf
                0x000c2620                __vfprintf_unlocked_l
                0x000c6190                _vfprintf_l
                0x000c6190                vfprintf_l
 *fill*         0x000c90fe        0x2 
 .text          0x000c9100      0xbf1 libc_pic.a(multibyte_amd1.pico)
                0x000c9100                mbrlen_l
                0x000c91c0                mbrlen
                0x000c9280                mbsinit_l
                0x000c92f0                mbsinit
                0x000c9360                mbrtowc_l
                0x000c9430                mbrtowc
                0x000c9500                mbsrtowcs_l
                0x000c95d0                mbsrtowcs
                0x000c96a0                mbsnrtowcs_l
                0x000c9770                mbsnrtowcs
                0x000c9840                wcrtomb_l
                0x000c9900                wcrtomb
                0x000c99c0                wcsrtombs_l
                0x000c9a90                wcsrtombs
                0x000c9b60                btowc_l
                0x000c9bb0                btowc
                0x000c9c10                wctob_l
                0x000c9c60                wctob
                0x000c9cc0                _mb_cur_max_l
 *fill*         0x000c9cf1        0xf 
 .text          0x000c9d00       0x2d libc_pic.a(localeconv.pico)
                0x000c9d00                localeconv
                0x000c9d20                localeconv_l
 *fill*         0x000c9d2d        0x3 
 .text          0x000c9d30      0x647 libc_pic.a(hdtoa.pico)
                0x000c9d30                __hdtoa
                0x000ca0d0                __hldtoa
 *fill*         0x000ca377        0x9 
 .text          0x000ca380       0xe4 libc_pic.a(ldtoa.pico)
                0x000ca380                __ldtoa
 *fill*         0x000ca464        0xc 
 .text          0x000ca470     0x1445 libc_pic.a(dtoa.pico)
                0x000ca470                __dtoa
 *fill*         0x000cb8b5        0x3 
 .text          0x000cb8b8       0xb3 libc_pic.a(umoddi3.pico)
                0x000cb8b8                __umoddi3
 *fill*         0x000cb96b        0x5 
 .text          0x000cb970       0x50 libc_pic.a(strdup.pico)
                0x000cb970                _strdup
                0x000cb970                strdup
 .text          0x000cb9c0       0x49 libc_pic.a(fpclassifyl.pico)
                0x000cb9c0                __fpclassifyl
 *fill*         0x000cba09        0x7 
 .text          0x000cba10       0x54 libc_pic.a(fpclassifyd_ieee754.pico)
                0x000cba10                __fpclassifyd
 *fill*         0x000cba64        0xc 
 .text          0x000cba70       0x19 libc_pic.a(flt_rounds.pico)
                0x000cba70                __flt_rounds
 *fill*         0x000cba89        0x7 
 .text          0x000cba90     0x17e9 libc_pic.a(gdtoa.pico)
                0x000cba90                __gdtoa
 *fill*         0x000cd279        0x7 
 .text          0x000cd280      0x1bb libc_pic.a(gmisc.pico)
                0x000cd280                __rshift_D2A
                0x000cd3e0                __trailz_D2A
 *fill*         0x000cd43b        0x5 
 .text          0x000cd440      0x31a libc_pic.a(dmisc.pico)
                0x000cd440                __rv_alloc_D2A
                0x000cd4b0                __nrv_alloc_D2A
                0x000cd540                __freedtoa
                0x000cd590                __quorem_D2A
 *fill*         0x000cd75a        0x6 
 .text          0x000cd760     0x124d libc_pic.a(misc.pico)
                0x000cd760                __Balloc_D2A
                0x000cd810                __Bfree_D2A
                0x000cd850                __lo0bits_D2A
                0x000cd8e0                __multadd_D2A
                0x000cdae0                __hi0bits_D2A
                0x000cdb40                __i2b_D2A
                0x000cdbf0                __mult_D2A
                0x000cde50                __pow5mult_D2A
                0x000cdff0                __lshift_D2A
                0x000ce230                __cmp_D2A
                0x000ce280                __diff_D2A
                0x000ce540                __b2d_D2A
                0x000ce6a0                __d2b_D2A
                0x000ce980                __strcp_D2A
 *fill*         0x000ce9ad        0x3 
 .text          0x000ce9b0     0x16fe libc_pic.a(hash_page.pico)
                0x000ce9b0                __delpair
                0x000cead0                __split_page
                0x000cf380                __addel
                0x000cf750                __add_ovflpage
                0x000cfb90                __get_page
                0x000cfd70                __put_page
                0x000cff10                __ibitmap
                0x000cffc0                __free_ovflpage
 *fill*         0x000d00ae        0x2 
 .text          0x000d00b0      0xe18 libc_pic.a(hash_bigkey.pico)
                0x000d00b0                __big_insert
                0x000d0390                __big_delete
                0x000d0510                __find_bigpair
                0x000d0660                __find_last_page
                0x000d06f0                __big_return
                0x000d0af0                __big_keydata
                0x000d0cc0                __big_split
 *fill*         0x000d0ec8        0x8 
 .text          0x000d0ed0      0x10a libc_pic.a(db.pico)
                0x000d0ed0                dbopen
                0x000d0ed0                _dbopen
                0x000d0fa0                __dbpanic
 *fill*         0x000d0fda        0x6 
 .text          0x000d0fe0     0x173d libc_pic.a(hash.pico)
                0x000d0fe0                __hash_open
                0x000d1eb0                __expand_table
                0x000d2010                __call_hash
 *fill*         0x000d271d        0x3 
 .text          0x000d2720      0x7e6 libc_pic.a(bt_open.pico)
                0x000d2720                __bt_open
                0x000d2ea0                __bt_fd
 *fill*         0x000d2f06        0xa 
 .text          0x000d2f10      0x115 libc_pic.a(bt_get.pico)
                0x000d2f10                __bt_get
 *fill*         0x000d3025        0xb 
 .text          0x000d3030      0x6b4 libc_pic.a(bt_conv.pico)
                0x000d3030                __bt_pgin
                0x000d3380                __bt_pgout
 *fill*         0x000d36e4        0xc 
 .text          0x000d36f0      0x21d libc_pic.a(bt_close.pico)
                0x000d36f0                __bt_close
                0x000d3800                __bt_sync
 *fill*         0x000d390d        0x3 
 .text          0x000d3910       0x3f libc_pic.a(memcmp.pico)
                0x000d3910                memcmp
 *fill*         0x000d394f        0x1 
 .text          0x000d3950       0x2b libc_pic.a(hash_log2.pico)
                0x000d3950                __log2
 *fill*         0x000d397b        0x5 
 .text          0x000d3980       0x89 libc_pic.a(hash_func.pico)
 *fill*         0x000d3a09        0x7 
 .text          0x000d3a10      0x518 libc_pic.a(hash_buf.pico)
                0x000d3a10                __get_buf
                0x000d3db0                __buf_init
                0x000d3df0                __buf_free
                0x000d3ee0                __reclaim_buf
 *fill*         0x000d3f28        0x8 
 .text          0x000d3f30      0x214 libc_pic.a(dbfile.pico)
                0x000d3f30                __dbopen
                0x000d3fc0                __dbtemp
 *fill*         0x000d4144        0xc 
 .text          0x000d4150      0x6bc libc_pic.a(bt_put.pico)
                0x000d4150                __bt_put
 *fill*         0x000d480c        0x4 
 .text          0x000d4810      0xfaf libc_pic.a(bt_delete.pico)
                0x000d4810                __bt_delete
                0x000d4fc0                __bt_dleaf
 *fill*         0x000d57bf        0x1 
 .text          0x000d57c0       0xc9 libc_pic.a(unlink.pico)
                0x000d57c0                unlink
 *fill*         0x000d5889        0x7 
 .text          0x000d5890       0xb8 libc_pic.a(issetugid.pico)
                0x000d5890                issetugid
 *fill*         0x000d5948        0x8 
 .text          0x000d5950      0x118 libc_pic.a(fcntl.pico)
                0x000d5950                fcntl
 *fill*         0x000d5a68        0x8 
 .text          0x000d5a70       0xcd libc_pic.a(getenv.pico)
                0x000d5a70                getenv
                0x000d5ac0                getenv_r
                0x000d5ac0                _getenv_r
 *fill*         0x000d5b3d        0x3 
 .text          0x000d5b40      0x5da libc_pic.a(_env.pico)
                0x000d5b40                __envvarnamelen
                0x000d5ba0                __freeenvvar
                0x000d5bf0                __allocenvvar
                0x000d5c50                __canoverwriteenvvar
                0x000d5ca0                __getenvslot
                0x000d5f90                __findenvvar
                0x000d6010                __findenv
 *fill*         0x000d611a        0x6 
 .text          0x000d6120      0xa61 libc_pic.a(rb.pico)
                0x000d6120                _rb_tree_init
                0x000d6120                rb_tree_init
                0x000d6150                rb_tree_find_node
                0x000d6150                _rb_tree_find_node
                0x000d61c0                rb_tree_find_node_geq
                0x000d61c0                _rb_tree_find_node_geq
                0x000d6240                _rb_tree_find_node_leq
                0x000d6240                rb_tree_find_node_leq
                0x000d62c0                _rb_tree_insert_node
                0x000d62c0                rb_tree_insert_node
                0x000d6530                _rb_tree_remove_node
                0x000d6530                rb_tree_remove_node
                0x000d6880                rb_tree_iterate
                0x000d6880                _rb_tree_iterate
 *fill*         0x000d6b81        0xf 
 .text          0x000d6b90     0x1294 libc_pic.a(bt_split.pico)
                0x000d6b90                __bt_split
 *fill*         0x000d7e24        0xc 
 .text          0x000d7e30      0x6e7 libc_pic.a(bt_seq.pico)
                0x000d7e30                __bt_seq
                0x000d82a0                __bt_setcur
 *fill*         0x000d8517        0x9 
 .text          0x000d8520      0x2fc libc_pic.a(bt_search.pico)
                0x000d8520                __bt_search
 *fill*         0x000d881c        0x4 
 .text          0x000d8820       0xb4 libc_pic.a(strncmp.pico)
                0x000d8820                strncmp
 *fill*         0x000d88d4        0xc 
 .text          0x000d88e0       0xfc libc_pic.a(strcspn.pico)
                0x000d88e0                strcspn
 *fill*         0x000d89dc        0x4 
 .text          0x000d89e0      0x394 libc_pic.a(bt_utils.pico)
                0x000d89e0                __bt_ret
                0x000d8bf0                __bt_cmp
                0x000d8cb0                __bt_defcmp
                0x000d8d00                __bt_defpfx
 *fill*         0x000d8d74        0xc 
 .text          0x000d8d80      0x358 libc_pic.a(bt_overflow.pico)
                0x000d8d80                __ovfl_get
                0x000d8eb0                __ovfl_put
                0x000d8ff0                __ovfl_delete
 *fill*         0x000d90d8        0x8 
 .text          0x000d90e0       0x7d libc_pic.a(memmove.pico)
                0x000d90e0                memmove
 *fill*         0x000d915d        0x3 
 .text          0x000d9160       0xcf libc_pic.a(bt_page.pico)
                0x000d9160                __bt_free
                0x000d91c0                __bt_new
 *fill*         0x000d922f        0x1 
 .text          0x000d9230      0x703 libc_pic.a(mpool.pico)
                0x000d9230                _mpool_open
                0x000d9230                mpool_open
                0x000d9320                mpool_filter
                0x000d9320                _mpool_filter
                0x000d9350                _mpool_new
                0x000d9350                mpool_new
                0x000d95c0                _mpool_get
                0x000d95c0                mpool_get
                0x000d9780                _mpool_put
                0x000d9780                mpool_put
                0x000d97a0                mpool_close
                0x000d97a0                _mpool_close
                0x000d9810                mpool_sync
                0x000d9810                _mpool_sync
 *fill*         0x000d9933        0xd 
 .text          0x000d9940       0xf7 libc_pic.a(pwrite.pico)
                0x000d9940                _pwrite
                0x000d9940                pwrite
 *fill*         0x000d9a37        0x9 
 .text          0x000d9a40       0xf7 libc_pic.a(pread.pico)
                0x000d9a40                _pread
                0x000d9a40                pread
 *fill*         0x000d9b37        0x9 
 .text          0x000d9b40       0xbf libc_pic.a(fsync.pico)
                0x000d9b40                fsync
 *fill*         0x000d9bff        0x1 
 .text          0x000d9c00       0xca libc_pic.a(abort.pico)
                0x000d9c00                abort
 *fill*         0x000d9cca        0x6 
 .text          0x000d9cd0       0x72 libc_pic.a(fwrite.pico)
                0x000d9cd0                fwrite
 *fill*         0x000d9d42        0xe 
 .text          0x000d9d50      0x44b libc_pic.a(fvwrite.pico)
                0x000d9d50                __sfvwrite
 *fill*         0x000da19b        0x5 
 .text          0x000da1a0      0x8f3 libc_pic.a(findfp.pico)
                0x000da1a0                __sfpinit
                0x000da220                __sfp
                0x000da750                __sinit
                0x000da9a0                f_prealloc
                0x000daa70                _cleanup
 *fill*         0x000daa93        0xd 
 .text          0x000daaa0      0x157 libc_pic.a(fflush.pico)
                0x000daaa0                fflush
                0x000dab60                __sflush
 *fill*         0x000dabf7        0x9 
 .text          0x000dac00      0x82a libc_pic.a(sysconf.pico)
                0x000dac00                sysconf
                0x000dac00                __sysconf
 *fill*         0x000db42a        0x6 
 .text          0x000db430       0xa7 libc_pic.a(signal.pico)
                0x000db430                signal
                0x000db430                _signal
 *fill*         0x000db4d7        0x9 
 .text          0x000db4e0       0x3b libc_pic.a(raise.pico)
                0x000db4e0                raise
 *fill*         0x000db51b        0x5 
 .text          0x000db520       0x77 libc_pic.a(getpagesize.pico)
                0x000db520                getpagesize
                0x000db520                _getpagesize
 *fill*         0x000db597        0x1 
 .text          0x000db598       0x9f libc_pic.a(udivdi3.pico)
                0x000db598                __udivdi3
 *fill*         0x000db637        0x9 
 .text          0x000db640       0xc2 libc_pic.a(_exit.pico)
                0x000db640                _Exit
                0x000db640                _exit
 *fill*         0x000db702        0xe 
 .text          0x000db710       0xd7 libc_pic.a(sigaction.pico)
                0x000db710                __sigaction14
                0x000db710                sigaction
 *fill*         0x000db7e7        0x9 
 .text          0x000db7f0       0x58 libc_pic.a(pathconf.pico)
                0x000db7f0                pathconf
 *fill*         0x000db848        0x8 
 .text          0x000db850      0x112 libc_pic.a(open.pico)
                0x000db850                open
 *fill*         0x000db962        0xe 
 .text          0x000db970       0x46 libc_pic.a(loadname.pico)
                0x000db970                _loadname
 *fill*         0x000db9b6        0xa 
 .text          0x000db9c0       0xc6 libc_pic.a(kill.pico)
                0x000db9c0                kill
                0x000db9c0                _kill
 *fill*         0x000dba86        0xa 
 .text          0x000dba90       0x6d libc_pic.a(getrlimit.pico)
                0x000dba90                getrlimit
 *fill*         0x000dbafd        0x3 
 .text          0x000dbb00       0xb8 libc_pic.a(getpid.pico)
                0x000dbb00                getpid
 *fill*         0x000dbbb8        0x8 
 .text          0x000dbbc0       0x9e libc_pic.a(fpathconf.pico)
                0x000dbbc0                fpathconf
 *fill*         0x000dbc5e        0x2 
 .text          0x000dbc60       0x6d libc_pic.a(strcpy.pico)
                0x000dbc60                strcpy
 *fill*         0x000dbccd        0x3 
 .text          0x000dbcd0       0x97 libc_pic.a(memchr.pico)
                0x000dbcd0                memchr
 *fill*         0x000dbd67        0x9 
 .text          0x000dbd70      0x1e5 libc_pic.a(stdio.pico)
                0x000dbd70                __sread
                0x000dbde0                __swrite
                0x000dbea0                __sseek
                0x000dbf20                __sclose
 *fill*         0x000dbf55        0xb 
 .text          0x000dbf60      0xd72 libc_pic.a(sysctlgetmibinfo.pico)
                0x000dbf60                __learn_tree
                0x000dbf60                ___learn_tree
                0x000dc1c0                _sysctlgetmibinfo
                0x000dc1c0                sysctlgetmibinfo
 *fill*         0x000dccd2        0xe 
 .text          0x000dcce0      0x402 libc_pic.a(sysctl.pico)
                0x000dcce0                sysctl
                0x000dcce0                _sysctl
 *fill*         0x000dd0e2        0xe 
 .text          0x000dd0f0       0x16 libc_pic.a(__sigreturn.pico)
                0x000dd0f0                __sigreturn
 *fill*         0x000dd106        0xa 
 .text          0x000dd110      0x114 libc_pic.a(__sysctl.pico)
                0x000dd110                __sysctl
 *fill*         0x000dd224        0xc 
 .text          0x000dd230       0xd5 libc_pic.a(write.pico)
                0x000dd230                write
 *fill*         0x000dd305        0xb 
 .text          0x000dd310      0x287 libc_pic.a(stat.pico)
                0x000dd310                _stat
                0x000dd310                __stat50
                0x000dd3f0                _fstat
                0x000dd3f0                __fstat50
                0x000dd4c0                __lstat50
                0x000dd4c0                _lstat
 *fill*         0x000dd597        0x9 
 .text          0x000dd5a0      0x145 libc_pic.a(sigreturn.pico)
                0x000dd5a0                sigreturn
 *fill*         0x000dd6e5        0xb 
 .text          0x000dd6f0       0xd5 libc_pic.a(read.pico)
                0x000dd6f0                read
                0x000dd6f0                _read
 *fill*         0x000dd7c5        0xb 
 .text          0x000dd7d0       0xf0 libc_pic.a(lseek.pico)
                0x000dd7d0                lseek
                0x000dd7d0                _lseek
 .text          0x000dd8c0       0xc7 libc_pic.a(close.pico)
                0x000dd8c0                close
 *fill*         0x000dd987        0x9 
 .text          0x000dd990       0x47 libc_pic.a(memset.pico)
                0x000dd990                memset
 *fill*         0x000dd9d7        0x9 
 .text          0x000dd9e0       0x3e libc_pic.a(memcpy.pico)
                0x000dd9e0                memcpy
 *fill*         0x000dda1e        0x2 
 .text          0x000dda20       0xc1 libc_pic.a(strpbrk.pico)
                0x000dda20                strpbrk
 *fill*         0x000ddae1        0xf 
 .text          0x000ddaf0       0x54 libc_pic.a(strncpy.pico)
                0x000ddaf0                strncpy
 *fill*         0x000ddb44        0xc 
 .text          0x000ddb50       0x61 libc_pic.a(strlcpy.pico)
                0x000ddb50                _strlcpy
                0x000ddb50                strlcpy
 *fill*         0x000ddbb1        0xf 
 .text          0x000ddbc0       0x8e libc_pic.a(strlcat.pico)
                0x000ddbc0                _strlcat
                0x000ddbc0                strlcat
 *fill*         0x000ddc4e        0x2 
 .text          0x000ddc50      0x393 libc_pic.a(strtoimax.pico)
                0x000ddc50                _strtoimax
                0x000ddc50                strtoimax
                0x000ddfb0                _strtoimax_l
                0x000ddfb0                strtoimax_l
 *fill*         0x000ddfe3        0xd 
 .text          0x000ddff0      0x7d2 libc_pic.a(qsort.pico)
                0x000ddff0                qsort
 *fill*         0x000de7c2        0x2 
 .text          0x000de7c4        0x0 libc_pic.a(global_locale.pico)
 *fill*         0x000de7c4        0xc 
 .text          0x000de7d0      0x4bb libc_pic.a(isctype.pico)
                0x000de7d0                isalnum
                0x000de800                isalnum_l
                0x000de820                isalpha
                0x000de850                isalpha_l
                0x000de870                isblank
                0x000de8a0                isblank_l
                0x000de8d0                iscntrl
                0x000de900                iscntrl_l
                0x000de920                isdigit
                0x000de950                isdigit_l
                0x000de970                isgraph
                0x000de9a0                isgraph_l
                0x000de9c0                islower
                0x000de9f0                islower_l
                0x000dea10                isprint
                0x000dea40                isprint_l
                0x000dea70                ispunct
                0x000deaa0                ispunct_l
                0x000deac0                isspace
                0x000deaf0                isspace_l
                0x000deb10                isupper
                0x000deb40                isupper_l
                0x000deb70                isxdigit
                0x000deba0                isxdigit_l
                0x000debd0                toupper
                0x000dec00                toupper_l
                0x000dec20                tolower
                0x000dec50                tolower_l
                0x000dec70                _toupper
                0x000dec80                _tolower
 *fill*         0x000dec8b        0x1 
 .text          0x000dec8c      0x10b libc_pic.a(moddi3.pico)
                0x000dec8c                __moddi3
 *fill*         0x000ded97        0x1 
 .text          0x000ded98       0xfd libc_pic.a(divdi3.pico)
                0x000ded98                __divdi3
 *fill*         0x000dee95        0xb 
 .text          0x000deea0      0x13c libc_pic.a(sigprocmask.pico)
                0x000deea0                __sigprocmask14
                0x000deea0                sigprocmask
 *fill*         0x000defdc        0x4 
 .text          0x000defe0       0x4b libc_pic.a(strlen.pico)
                0x000defe0                strlen
 *fill*         0x000df02b        0x5 
 .text          0x000df030       0x8a libc_pic.a(strchr.pico)
                0x000df030                index
                0x000df030                strchr
 *fill*         0x000df0ba        0x2 
 .text          0x000df0bc        0x0 libc_pic.a(runetable.pico)
 .text          0x000df0bc        0x0 libc_pic.a(toupper_.pico)
 .text          0x000df0bc        0x0 libc_pic.a(tolower_.pico)
 .text          0x000df0bc        0x0 libc_pic.a(ctype_.pico)
 *fill*         0x000df0bc        0x4 
 .text          0x000df0c0       0x55 libc_pic.a(citrus_ctype.pico)
                0x000df0c0                _citrus_ctype_open
                0x000df110                _citrus_ctype_close
 *fill*         0x000df115        0xb 
 .text          0x000df120       0x5b libc_pic.a(syscall.pico)
                0x000df120                syscall
                0x000df120                _syscall
 *fill*         0x000df17b        0x5 
 .text          0x000df180       0x79 libc_pic.a(strcmp.pico)
                0x000df180                strcmp
 *fill*         0x000df1f9        0x7 
 .text          0x000df200       0x17 libc_pic.a(_errno.pico)
                0x000df200                __errno
 *fill*         0x000df217        0x9 
 .text          0x000df220      0x67b libc_pic.a(citrus_none.pico)
 *fill*         0x000df89b        0x5 
 .text          0x000df8a0       0x78 libc_pic.a(init.pico)
                0x000df8a0                __minix_init
 *fill*         0x000df918        0x8 
 .text          0x000df920       0x1d libc_pic.a(ipc_minix_kerninfo.pico)
                0x000df920                ipc_minix_kerninfo
 *fill*         0x000df93d        0x3 
 .text          0x000df940       0xb4 libc_pic.a(_ipc.pico)
                0x000df940                _ipc_send_intr
                0x000df960                _ipc_receive_intr
                0x000df980                _ipc_sendrec_intr
                0x000df9a0                _ipc_notify_intr
                0x000df9c0                _ipc_sendnb_intr
                0x000df9e0                _ipc_senda_intr
 *fill*         0x000df9f4        0xc 
 .text          0x000dfa00        0x7 libc_pic.a(_do_kernel_call_intr.pico)
                0x000dfa00                _do_kernel_call_intr
 *fill*         0x000dfa07        0x1 
 .text          0x000dfa08        0x0 /usr/lib/crtendS.o
 .text          0x000dfa08        0x0 /usr/lib/crtn.o
 *(.text.unlikely .text.*_unlikely)
 *(.text.exit .text.exit.*)
 *(.text.startup .text.startup.*)
 *fill*         0x000dfa08        0x8 
 .text.startup  0x000dfa10       0x56 libc_pic.a(initfini.pico)
                0x000dfa10                _libc_init
 *fill*         0x000dfa66        0xa 
 .text.startup  0x000dfa70        0x5 libc_pic.a(atomic_init_cas.pico)
                0x000dfa70                __libc_atomic_init
 *fill*         0x000dfa75        0xb 
 .text.startup  0x000dfa80       0x2b libc_pic.a(stack_protector.pico)
                0x000dfa80                __guard_setup
 *fill*         0x000dfaab        0x5 
 .text.startup  0x000dfab0        0x5 libc_pic.a(atexit.pico)
                0x000dfab0                __libc_atexit_init
 *fill*         0x000dfab5        0xb 
 .text.startup  0x000dfac0       0x31 libc_pic.a(_env.pico)
                0x000dfac0                __libc_env_init
 *(.text.hot .text.hot.*)
 *(.stub .text.* .gnu.linkonce.t.*)
 *fill*         0x000dfaf1        0xf 
 .text.compilerrt_abort_impl
                0x000dfb00       0x15 libc_pic.a(int_util.pico)
                0x000dfb00                compilerrt_abort_impl
 *fill*         0x000dfb15        0xb 
 .text._ZN7_Unwind10CFI_ParserINS_17LocalAddressSpaceENS_13Registers_x86EE11findPCRangeERS1_jRjS5_
                0x000dfb20       0xf4 libc_pic.a(libunwind.pico)
                0x000dfb20                _Unwind::CFI_Parser<_Unwind::LocalAddressSpace, _Unwind::Registers_x86>::findPCRange(_Unwind::LocalAddressSpace&, unsigned int, unsigned int&, unsigned int&)
 *fill*         0x000dfc14        0xc 
 .text._ZN7_Unwind12UnwindCursorINS_17LocalAddressSpaceENS_13Registers_x86EE24setInfoBasedOnIPRegisterEb
                0x000dfc20      0x1d0 libc_pic.a(libunwind.pico)
                0x000dfc20                _Unwind::UnwindCursor<_Unwind::LocalAddressSpace, _Unwind::Registers_x86>::setInfoBasedOnIPRegister(bool)
 .text._ZN7_Unwind17LocalAddressSpace9removeFDEEjjj
                0x000dfdf0      0x1c9 libc_pic.a(libunwind.pico)
                0x000dfdf0                _Unwind::LocalAddressSpace::removeFDE(unsigned int, unsigned int, unsigned int)
 *fill*         0x000dffb9        0x7 
 .text._ZN7_Unwind17DwarfInstructionsINS_17LocalAddressSpaceENS_13Registers_x86EE13stepWithDwarfERS1_jjRS2_PNS_15unw_proc_info_tE
                0x000dffc0      0x2a5 libc_pic.a(libunwind.pico)
                0x000dffc0                _Unwind::DwarfInstructions<_Unwind::LocalAddressSpace, _Unwind::Registers_x86>::stepWithDwarf(_Unwind::LocalAddressSpace&, unsigned int, unsigned int, _Unwind::Registers_x86&, _Unwind::unw_proc_info_t*)
 *fill*         0x000e0265        0xb 
 .text._ZN7_Unwind10CFI_ParserINS_17LocalAddressSpaceENS_13Registers_x86EE9decodeFDEERS1_jPNS3_8FDE_InfoEPNS3_8CIE_InfoEPNS_15unw_proc_info_tE
                0x000e0270      0x1b6 libc_pic.a(libunwind.pico)
                0x000e0270                _Unwind::CFI_Parser<_Unwind::LocalAddressSpace, _Unwind::Registers_x86>::decodeFDE(_Unwind::LocalAddressSpace&, unsigned int, _Unwind::CFI_Parser<_Unwind::LocalAddressSpace, _Unwind::Registers_x86>::FDE_Info*, _Unwind::CFI_Parser<_Unwind::LocalAddressSpace, _Unwind::Registers_x86>::CIE_Info*, _Unwind::unw_proc_info_t*)
 *fill*         0x000e0426        0xa 
 .text._ZN7_Unwind17DwarfInstructionsINS_17LocalAddressSpaceENS_13Registers_x86EE16getSavedRegisterERS1_RKS2_jRKNS_10CFI_ParserIS1_S2_E16RegisterLocationE
                0x000e0430       0xec libc_pic.a(libunwind.pico)
                0x000e0430                _Unwind::DwarfInstructions<_Unwind::LocalAddressSpace, _Unwind::Registers_x86>::getSavedRegister(_Unwind::LocalAddressSpace&, _Unwind::Registers_x86 const&, unsigned int, _Unwind::CFI_Parser<_Unwind::LocalAddressSpace, _Unwind::Registers_x86>::RegisterLocation const&)
 *fill*         0x000e051c        0x4 
 .text._ZN7_Unwind17DwarfInstructionsINS_17LocalAddressSpaceENS_13Registers_x86EE18evaluateExpressionEjRS1_RKS2_j
                0x000e0520      0x710 libc_pic.a(libunwind.pico)
                0x000e0520                _Unwind::DwarfInstructions<_Unwind::LocalAddressSpace, _Unwind::Registers_x86>::evaluateExpression(unsigned int, _Unwind::LocalAddressSpace&, _Unwind::Registers_x86 const&, unsigned int)
 .text._ZN7_Unwind17LocalAddressSpace10getULEB128ERjj
                0x000e0c30      0x14f libc_pic.a(libunwind.pico)
                0x000e0c30                _Unwind::LocalAddressSpace::getULEB128(unsigned int&, unsigned int)
 *fill*         0x000e0d7f        0x1 
 .text._ZN7_Unwind17LocalAddressSpace10getSLEB128ERjj
                0x000e0d80      0x17d libc_pic.a(libunwind.pico)
                0x000e0d80                _Unwind::LocalAddressSpace::getSLEB128(unsigned int&, unsigned int)
 *fill*         0x000e0efd        0x3 
 .text._ZN7_Unwind10CFI_ParserINS_17LocalAddressSpaceENS_13Registers_x86EE17parseInstructionsERS1_jjRKNS3_8CIE_InfoEjRPNS3_20PrologInfoStackEntryEPNS3_10PrologInfoEPNS_15unw_proc_info_tE
                0x000e0f00      0x8e8 libc_pic.a(libunwind.pico)
                0x000e0f00                _Unwind::CFI_Parser<_Unwind::LocalAddressSpace, _Unwind::Registers_x86>::parseInstructions(_Unwind::LocalAddressSpace&, unsigned int, unsigned int, _Unwind::CFI_Parser<_Unwind::LocalAddressSpace, _Unwind::Registers_x86>::CIE_Info const&, unsigned int, _Unwind::CFI_Parser<_Unwind::LocalAddressSpace, _Unwind::Registers_x86>::PrologInfoStackEntry*&, _Unwind::CFI_Parser<_Unwind::LocalAddressSpace, _Unwind::Registers_x86>::PrologInfo*, _Unwind::unw_proc_info_t*)
 *fill*         0x000e17e8        0x8 
 .text._ZN7_Unwind17LocalAddressSpace11getEncodedPERjjhPKNS_15unw_proc_info_tE
                0x000e17f0      0x214 libc_pic.a(libunwind.pico)
                0x000e17f0                _Unwind::LocalAddressSpace::getEncodedP(unsigned int&, unsigned int, unsigned char, _Unwind::unw_proc_info_t const*)
 *fill*         0x000e1a04        0xc 
 .text._ZN7_Unwind10CFI_ParserINS_17LocalAddressSpaceENS_13Registers_x86EE8parseCIEERS1_jPNS3_8CIE_InfoE
                0x000e1a10      0x22c libc_pic.a(libunwind.pico)
                0x000e1a10                _Unwind::CFI_Parser<_Unwind::LocalAddressSpace, _Unwind::Registers_x86>::parseCIE(_Unwind::LocalAddressSpace&, unsigned int, _Unwind::CFI_Parser<_Unwind::LocalAddressSpace, _Unwind::Registers_x86>::CIE_Info*)
 *fill*         0x000e1c3c        0x4 
 .text._ZN7_Unwind17LocalAddressSpace7findFDEEjRjS1_
                0x000e1c40       0xe5 libc_pic.a(libunwind.pico)
                0x000e1c40                _Unwind::LocalAddressSpace::findFDE(unsigned int, unsigned int&, unsigned int&)
 *fill*         0x000e1d25        0xb 
 .text._ZN7_Unwind17LocalAddressSpace6addDSOEjj
                0x000e1d30      0x12c libc_pic.a(libunwind.pico)
                0x000e1d30                _Unwind::LocalAddressSpace::addDSO(unsigned int, unsigned int)
 *fill*         0x000e1e5c        0x4 
 .text._ZN7_Unwind12UnwindCursorINS_17LocalAddressSpaceENS_13Registers_x86EE6jumptoEv
                0x000e1e60       0x1f libc_pic.a(libunwind.pico)
                0x000e1e60                _Unwind::UnwindCursor<_Unwind::LocalAddressSpace, _Unwind::Registers_x86>::jumpto()
 *(.gnu.warning)

.fini           0x000e1e80        0xa
 *(SORT(.fini))
 .fini          0x000e1e80        0x3 /usr/lib/crti.o
                0x000e1e80                _fini
 .fini          0x000e1e83        0x5 /usr/lib/crtbeginS.o
 .fini          0x000e1e88        0x2 /usr/lib/crtn.o
                0x000e1e8a                PROVIDE (__etext, .)
                0x000e1e8a                PROVIDE (_etext, .)
                0x000e1e8a                PROVIDE (etext, .)

.rodata         0x000e1e90     0xb206
 *(.rodata .rodata.* .gnu.linkonce.r.*)
 .rodata.cst16  0x000e1e90       0x10 libc_pic.a(uuid_to_string.pico)
 .rodata.str1.1
                0x000e1ea0       0x31 libc_pic.a(uuid_to_string.pico)
 .rodata.str1.1
                0x000e1ed1       0x38 libc_pic.a(uuid_from_string.pico)
 .rodata.str1.1
                0x000e1f09        0xc libc_pic.a(uuid_create.pico)
 *fill*         0x000e1f15        0x3 
 .rodata        0x000e1f18       0x4c libc_pic.a(_cpufeature.pico)
 .rodata.str1.1
                0x000e1f64       0x1a libc_pic.a(_cpufeature.pico)
 .rodata.str1.1
                0x000e1f7e       0x1f libc_pic.a(sizeup.pico)
 *fill*         0x000e1f9d        0x3 
 .rodata        0x000e1fa0       0x18 libc_pic.a(futimens.pico)
 .rodata.str1.1
                0x000e1fb8        0x4 libc_pic.a(shmget.pico)
 .rodata.str1.1
                0x00000000        0x4 libc_pic.a(shmat.pico)
 .rodata.str1.1
                0x00000000        0x4 libc_pic.a(sem.pico)
 .rodata.str1.1
                0x000e1fbc       0x9c libc_pic.a(mount.pico)
                                 0xa6 (size before relaxing)
 .rodata        0x000e2058      0x1c0 libc_pic.a(strptime.pico)
 .rodata.str1.1
                0x000e2218       0x41 libc_pic.a(strptime.pico)
 .rodata.cst4   0x000e2259        0x4 libc_pic.a(strptime.pico)
 .rodata.str1.1
                0x000e225d        0x8 libc_pic.a(getdate.pico)
                                  0xb (size before relaxing)
 *fill*         0x000e2265        0x3 
 .rodata.cst8   0x000e2268        0x8 libc_pic.a(difftime.pico)
 .rodata        0x000e2270        0xc libc_pic.a(tcsendbreak.pico)
 .rodata.cst8   0x000e227c        0x8 libc_pic.a(strspn.pico)
 .rodata        0x000e2284      0x100 libc_pic.a(bm.pico)
 .rodata.str1.1
                0x000e2384       0x55 libc_pic.a(mtab.pico)
                                 0x57 (size before relaxing)
 *fill*         0x000e23d9        0x3 
 .rodata        0x000e23dc       0x58 libc_pic.a(configfile.pico)
 .rodata.str1.1
                0x000e2434       0xf6 libc_pic.a(configfile.pico)
                                 0xf8 (size before relaxing)
 .rodata.str1.1
                0x000e252a        0x8 libc_pic.a(strfmon.pico)
 .rodata.str1.1
                0x000e2532        0xb libc_pic.a(system.pico)
                                  0xe (size before relaxing)
 .rodata.str1.1
                0x00000000        0xb libc_pic.a(strtonum.pico)
                                 0x1c (size before relaxing)
 .rodata.str1.1
                0x000e253d       0x75 libc_pic.a(strsuftoll.pico)
                                 0x78 (size before relaxing)
 .rodata.str1.1
                0x000e25b2        0xa libc_pic.a(posix_openpt.pico)
 .rodata.str1.1
                0x000e25bc       0x10 libc_pic.a(getopt_long.pico)
                                 0x11 (size before relaxing)
 .rodata        0x000e25cc       0xaf libc_pic.a(getopt_long.pico)
 .rodata.str1.1
                0x000e267b       0x41 libc_pic.a(getopt.pico)
                                 0x42 (size before relaxing)
 .rodata.str1.1
                0x000e26bc       0x1f libc_pic.a(tmpnam.pico)
 .rodata.str1.1
                0x000e26db       0x1d libc_pic.a(tempnam.pico)
                                 0x30 (size before relaxing)
 .rodata.str1.1
                0x000e26f8       0x4c libc_pic.a(open_wmemstream.pico)
 .rodata.str1.1
                0x000e2744       0x29 libc_pic.a(open_memstream.pico)
                                 0x4a (size before relaxing)
 .rodata.str1.1
                0x000e276d       0x12 libc_pic.a(tmpfile.pico)
                                 0x18 (size before relaxing)
 .rodata.str1.1
                0x000e277f       0xa6 libc_pic.a(herror.pico)
                                 0xab (size before relaxing)
 .rodata.str1.1
                0x000e2825      0x282 libc_pic.a(regerror.pico)
                                0x288 (size before relaxing)
 *fill*         0x000e2aa7        0x1 
 .rodata        0x000e2aa8       0x7c libc_pic.a(regcomp.pico)
 .rodata.str1.1
                0x000e2b24      0x48a libc_pic.a(regcomp.pico)
                                0x520 (size before relaxing)
 *fill*         0x000e2fae        0x2 
 .rodata        0x000e2fb0       0x50 libc_pic.a(vars6.pico)
                0x000e2fb0                _in6addr_any
                0x000e2fb0                in6addr_any
                0x000e2fc0                _in6addr_loopback
                0x000e2fc0                in6addr_loopback
                0x000e2fd0                _in6addr_nodelocal_allnodes
                0x000e2fd0                in6addr_nodelocal_allnodes
                0x000e2fe0                in6addr_linklocal_allnodes
                0x000e2fe0                _in6addr_linklocal_allnodes
                0x000e2ff0                _in6addr_linklocal_allrouters
                0x000e2ff0                in6addr_linklocal_allrouters
 .rodata.str1.1
                0x000e3000      0x258 libc_pic.a(rcmd.pico)
                                0x28b (size before relaxing)
 .rodata        0x000e3258       0x34 libc_pic.a(linkaddr.pico)
 .rodata.cst16  0x000e328c       0x10 libc_pic.a(linkaddr.pico)
 .rodata        0x000e329c       0x1c libc_pic.a(iso_addr.pico)
 .rodata.cst16  0x00000000       0x10 libc_pic.a(iso_addr.pico)
 .rodata        0x000e32b8       0x10 libc_pic.a(getnetnamadr.pico)
 .rodata.str1.1
                0x000e32c8       0x89 libc_pic.a(getnetnamadr.pico)
                                 0x98 (size before relaxing)
 .rodata.str1.1
                0x000e3351       0x3e libc_pic.a(ethers.pico)
                                 0x41 (size before relaxing)
 .rodata        0x000e338f       0x1a libc_pic.a(ethers.pico)
 .rodata.str1.1
                0x000e33a9       0x11 libc_pic.a(md5hl.pico)
 .rodata.str1.1
                0x00000000       0x11 libc_pic.a(md4hl.pico)
 .rodata        0x000e33ba       0x40 libc_pic.a(md4c.pico)
 *fill*         0x000e33fa        0x6 
 .rodata        0x000e3400      0x12c libc_pic.a(wcstoull.pico)
 *fill*         0x000e352c        0x4 
 .rodata        0x000e3530      0x12c libc_pic.a(wcstoul.pico)
 *fill*         0x000e365c        0x4 
 .rodata        0x000e3660      0x12c libc_pic.a(wcstoll.pico)
 *fill*         0x000e378c        0x4 
 .rodata        0x000e3790      0x12c libc_pic.a(wcstol.pico)
 .rodata.str1.1
                0x00000000        0x1 libc_pic.a(nl_langinfo.pico)
 .rodata        0x000e38bc       0xac libc_pic.a(nl_langinfo.pico)
 .rodata.str1.1
                0x00000000       0x11 libc_pic.a(newlocale.pico)
                                  0x2 (size before relaxing)
 .rodata.str1.1
                0x000e3968       0x3b libc_pic.a(assertions.pico)
                                 0x3f (size before relaxing)
 .rodata.str1.1
                0x000e39a3       0x12 libc_pic.a(inet_ntoa.pico)
 .rodata.str1.1
                0x000e39b5        0x8 libc_pic.a(inet_neta.pico)
                                  0xb (size before relaxing)
 .rodata        0x000e39bd       0x54 libc_pic.a(inet_net_pton.pico)
 .rodata.str1.1
                0x000e3a11        0x4 libc_pic.a(inet_net_ntop.pico)
                                  0xa (size before relaxing)
 .rodata        0x000e3a15       0x2d libc_pic.a(inet_cidr_pton.pico)
 .rodata.str1.1
                0x00000000        0xa libc_pic.a(inet_cidr_ntop.pico)
 .rodata.str1.1
                0x000e3a42       0x16 libc_pic.a(iconv.pico)
 .rodata.str1.1
                0x00000000       0x11 libc_pic.a(sha512hl.pico)
 .rodata.str1.1
                0x00000000       0x11 libc_pic.a(sha384hl.pico)
 .rodata.str1.1
                0x00000000       0x11 libc_pic.a(sha256hl.pico)
 .rodata.str1.1
                0x00000000       0x11 libc_pic.a(sha224hl.pico)
 .rodata.str1.1
                0x00000000       0x11 libc_pic.a(sha1hl.pico)
 .rodata.str1.1
                0x000e3a58        0x2 libc_pic.a(sha1.pico)
 .rodata        0x000e3a5a        0x2 libc_pic.a(sha1.pico)
 .rodata.str1.1
                0x00000000       0x11 libc_pic.a(rmd160hl.pico)
 .rodata        0x000e3a5c       0x40 libc_pic.a(rmd160.pico)
 .rodata.str1.1
                0x00000000       0x11 libc_pic.a(md2hl.pico)
 .rodata        0x000e3a9c      0x100 libc_pic.a(md2.pico)
 .rodata.str1.1
                0x000e3b9c       0x98 libc_pic.a(md2.pico)
                                 0x99 (size before relaxing)
 .rodata        0x000e3c34        0xc libc_pic.a(infinityl.pico)
                0x000e3c34                __infinityl
 .rodata        0x000e3c40        0x4 libc_pic.a(nanf.pico)
                0x000e3c40                __nanf
 .rodata        0x000e3c44        0x8 libc_pic.a(infinity_ieee754.pico)
                0x000e3c44                __infinity
 .rodata        0x000e3c4c        0x4 libc_pic.a(infinityf_ieee754.pico)
                0x000e3c4c                __infinityf
 .rodata        0x000e3c50       0x20 libc_pic.a(wordexp.pico)
 .rodata.str1.1
                0x000e3c70       0x21 libc_pic.a(wordexp.pico)
                                 0x35 (size before relaxing)
 .rodata.str1.1
                0x00000000       0x21 libc_pic.a(ttyslot.pico)
                                  0x6 (size before relaxing)
 .rodata.str1.1
                0x000e3c91        0x6 libc_pic.a(ttyname.pico)
 .rodata.str1.1
                0x000e3c97      0x124 libc_pic.a(signame.pico)
                                0x132 (size before relaxing)
 .rodata.str1.1
                0x000e3dbb        0x5 libc_pic.a(setproctitle.pico)
                                  0x8 (size before relaxing)
 .rodata        0x000e3dc0       0x48 libc_pic.a(setmode.pico)
 .rodata.str1.1
                0x000e3e08       0x10 libc_pic.a(setjmperr.pico)
 .rodata.str1.1
                0x000e3e18       0x9c libc_pic.a(pw_scan.pico)
                                 0xae (size before relaxing)
 .rodata.str1.1
                0x00000000        0x5 libc_pic.a(psignal.pico)
 .rodata.str1.1
                0x00000000       0x9c libc_pic.a(posix_spawnp.pico)
                                  0xd (size before relaxing)
 .rodata.str1.1
                0x000e3eb4        0x3 libc_pic.a(popen.pico)
                                 0x15 (size before relaxing)
 *fill*         0x000e3eb7        0x1 
 .rodata        0x000e3eb8       0x34 libc_pic.a(nftw.pico)
 .rodata        0x000e3eec       0x38 libc_pic.a(humanize_number.pico)
 .rodata.str1.1
                0x000e3f24       0x18 libc_pic.a(humanize_number.pico)
                                 0x1b (size before relaxing)
 .rodata.str1.1
                0x000e3f3c        0x5 libc_pic.a(glob.pico)
                                  0x7 (size before relaxing)
 .rodata.str1.1
                0x000e3f41       0x3c libc_pic.a(getusershell.pico)
                                 0x54 (size before relaxing)
 .rodata.str1.1
                0x000e3f7d       0x6b libc_pic.a(getttyent.pico)
                                 0x7d (size before relaxing)
 .rodata        0x000e3fe8        0x8 libc_pic.a(getttyent.pico)
 .rodata.str1.1
                0x000e3ff0        0x9 libc_pic.a(getpass.pico)
 *fill*         0x000e3ff9        0x3 
 .rodata        0x000e3ffc        0x8 libc_pic.a(getloadavg.pico)
 .rodata        0x000e4004       0x28 libc_pic.a(getcap.pico)
 .rodata.str1.1
                0x000e402c        0x6 libc_pic.a(getcap.pico)
                                  0xc (size before relaxing)
 .rodata.str1.1
                0x000e4032       0x64 libc_pic.a(getbsize.pico)
                                 0x6b (size before relaxing)
 *fill*         0x000e4096        0x2 
 .rodata        0x000e4098       0x34 libc_pic.a(ftw.pico)
 .rodata.str1.1
                0x000e40cc       0x49 libc_pic.a(fstab.pico)
                                 0x57 (size before relaxing)
 .rodata        0x000e4115        0x7 libc_pic.a(fstab.pico)
 .rodata.str1.1
                0x000e411c       0x57 libc_pic.a(fmtmsg.pico)
                                 0x5f (size before relaxing)
 .rodata        0x000e4173       0x28 libc_pic.a(fmtmsg.pico)
 .rodata.str1.1
                0x000e419b       0x16 libc_pic.a(fmtcheck.pico)
 .rodata.str1.1
                0x00000000        0x4 libc_pic.a(dirname.pico)
 .rodata.str1.1
                0x00000000        0xc libc_pic.a(daemon.pico)
 .rodata.str1.1
                0x00000000        0x4 libc_pic.a(basename.pico)
 .rodata.str1.1
                0x000e41b1       0x23 libc_pic.a(fsversion.pico)
                                 0x31 (size before relaxing)
 .rodata        0x000e41d4       0x20 libc_pic.a(dlfcn_elf.pico)
 .rodata.str1.1
                0x000e41f4       0x22 libc_pic.a(InstrProfilingFile.pico)
                                 0x29 (size before relaxing)
 .rodata        0x000e4216        0x8 libc_pic.a(InstrProfilingFile.pico)
 .rodata.str1.1
                0x000e421e      0x101 libc_pic.a(GCDAProfiling.pico)
 .rodata.str1.1
                0x000e431f       0x4c libc_pic.a(negvdi2.pico)
 .rodata.str1.1
                0x000e436b       0x4c libc_pic.a(mulvdi3.pico)
 .rodata.str1.1
                0x000e43b7       0x4c libc_pic.a(absvdi2.pico)
 .rodata.str1.1
                0x000e4403       0x4c libc_pic.a(negvsi2.pico)
 .rodata.str1.1
                0x000e444f       0x4c libc_pic.a(mulvsi3.pico)
 *fill*         0x000e449b        0x1 
 .rodata.cst4   0x000e449c        0x4 libc_pic.a(muldc3.pico)
 .rodata        0x000e44a0       0x28 libc_pic.a(floatundixf.pico)
 *fill*         0x000e44c8        0x8 
 .rodata        0x000e44d0       0x24 libc_pic.a(floatundisf.pico)
 *fill*         0x000e44f4        0xc 
 .rodata        0x000e4500       0x28 libc_pic.a(floatundidf.pico)
 *fill*         0x000e4528        0x8 
 .rodata        0x000e4530       0x18 libc_pic.a(floatdidf.pico)
 .rodata.str1.1
                0x000e4548       0x4c libc_pic.a(absvsi2.pico)
 .rodata        0x000e4594       0x34 libc_pic.a(gcc_personality_v0.pico)
 .rodata.str1.1
                0x000e45c8       0x60 libc_pic.a(gcc_personality_v0.pico)
 .rodata.str1.1
                0x000e4628        0x5 libc_pic.a(citrus_stdenc.pico)
 .rodata.str1.1
                0x000e462d       0x29 libc_pic.a(citrus_iconv.pico)
                                 0x37 (size before relaxing)
 .rodata.str1.1
                0x000e4656       0x89 libc_pic.a(citrus_esdb.pico)
                                 0xb3 (size before relaxing)
 .rodata        0x000e46df        0x9 libc_pic.a(citrus_esdb.pico)
 .rodata.str1.1
                0x000e46e8       0xc2 libc_pic.a(citrus_csmapper.pico)
                                 0xce (size before relaxing)
 .rodata        0x000e47aa        0x9 libc_pic.a(citrus_csmapper.pico)
 .rodata.str1.1
                0x00000000       0xc2 libc_pic.a(ndbm.pico)
                                  0x4 (size before relaxing)
 .rodata.cst8   0x000e47b3        0x8 libc_pic.a(cdbw.pico)
 *fill*         0x000e47bb        0x1 
 .rodata.cst8   0x000e47bc        0x8 libc_pic.a(compat_localtime.pico)
 .rodata        0x000e47c4       0x68 libc_pic.a(compat_localtime.pico)
 .rodata.str1.1
                0x000e482c       0xb7 libc_pic.a(compat_localtime.pico)
                                 0xb8 (size before relaxing)
 .rodata.str1.1
                0x00000000       0xb7 libc_pic.a(compat_ns_ntoa.pico)
                                  0xf (size before relaxing)
 *fill*         0x000e48e3        0x1 
 .rodata        0x000e48e4       0xf0 libc_pic.a(compat_ns_addr.pico)
 .rodata.str1.1
                0x000e49d4       0x48 libc_pic.a(compat_ns_addr.pico)
 .rodata.str1.1
                0x000e4a1c       0x3c libc_pic.a(compat___fts50.pico)
                                 0x41 (size before relaxing)
 .rodata.str1.1
                0x000e4a58       0x44 libc_pic.a(compat_timezone.pico)
                                 0x64 (size before relaxing)
 .rodata.str1.1
                0x00000000       0x9d libc_pic.a(compat_signame.pico)
 .rodata.str1.1
                0x000e4a9c      0x1ed libc_pic.a(compat_siglist.pico)
                                0x1f6 (size before relaxing)
 .rodata.str1.1
                0x00000000        0x7 libc_pic.a(compat___glob13.pico)
 .rodata.str1.1
                0x00000000        0x7 libc_pic.a(compat_glob.pico)
 .rodata.str1.1
                0x000e4c89        0xa libc_pic.a(compat_fts.pico)
                                 0x3e (size before relaxing)
 .rodata.str1.1
                0x000e4c93      0x737 libc_pic.a(compat_errlist.pico)
                                0x743 (size before relaxing)
 *fill*         0x000e53ca        0x2 
 .rodata        0x000e53cc        0x4 libc_pic.a(compat_errlist.pico)
                0x000e53cc                __sys_nerr
                0x000e53cc                sys_nerr
                0x000e53cc                _sys_nerr
 .rodata        0x000e53d0       0x10 libc_pic.a(uuid_is_nil.pico)
 .rodata.str1.1
                0x000e53e0      0x74f libc_pic.a(libunwind.pico)
 *fill*         0x000e5b2f        0x1 
 .rodata        0x000e5b30       0x18 libc_pic.a(utimensat.pico)
 .rodata.str1.1
                0x000e5b48        0x9 libc_pic.a(socketpair.pico)
 .rodata.str1.1
                0x00000000        0x4 libc_pic.a(shmctl.pico)
 .rodata.str1.1
                0x000e5b51        0x9 libc_pic.a(accept.pico)
                                 0x12 (size before relaxing)
 .rodata.str1.1
                0x000e5b5a       0x2c libc_pic.a(__strsignal.pico)
 *fill*         0x000e5b86        0x2 
 .rodata        0x000e5b88       0x28 libc_pic.a(random.pico)
 .rodata        0x000e5bb0      0x2b2 libc_pic.a(vfwscanf.pico)
 .rodata.str1.1
                0x000e5e62        0x8 libc_pic.a(vfwscanf.pico)
                                 0x10 (size before relaxing)
 *fill*         0x000e5e6a        0x2 
 .rodata        0x000e5e6c      0x3e0 libc_pic.a(vfwprintf.pico)
 .rodata.str1.1
                0x00000000        0x8 libc_pic.a(vfwprintf.pico)
                                  0x2 (size before relaxing)
 .rodata.str4.4
                0x000e624c       0x5c libc_pic.a(vfwprintf.pico)
 .rodata.str1.1
                0x00000000        0x8 libc_pic.a(perror.pico)
                                  0xc (size before relaxing)
 .rodata        0x000e62a8       0x3f libc_pic.a(gettemp.pico)
 .rodata.str1.1
                0x000e62e7       0x11 libc_pic.a(getnetent.pico)
                                 0x17 (size before relaxing)
 .rodata.str1.1
                0x000e62f8       0x49 libc_pic.a(stack_protector.pico)
                                 0x4c (size before relaxing)
 *fill*         0x000e6341        0xf 
 .rodata        0x000e6350      0x12c libc_pic.a(wcstoumax.pico)
 *fill*         0x000e647c        0x4 
 .rodata        0x000e6480      0x12c libc_pic.a(wcstoimax.pico)
 .rodata.str1.1
                0x00000000        0x5 libc_pic.a(verrx.pico)
 .rodata.str1.1
                0x000e65ac       0x30 libc_pic.a(utmpx.pico)
                                 0x33 (size before relaxing)
 .rodata        0x000e65dc        0xb libc_pic.a(utmpx.pico)
 .rodata.str1.1
                0x00000000        0x3 libc_pic.a(utmp.pico)
 *fill*         0x000e65e7        0x1 
 .rodata        0x000e65e8      0x3cc libc_pic.a(unvis.pico)
 .rodata        0x000e69b4        0x4 libc_pic.a(siglist.pico)
                0x000e69b4                __sys_nsig14
 .rodata.str1.1
                0x000e69b8      0x275 libc_pic.a(siglist.pico)
                                0x46b (size before relaxing)
 .rodata.str1.1
                0x000e6c2d        0x4 libc_pic.a(pwcache.pico)
 *fill*         0x000e6c31        0x3 
 .rodata        0x000e6c34       0x30 libc_pic.a(nlist_elf32.pico)
 .rodata.str1.1
                0x000e6c64        0x5 libc_pic.a(nlist_elf32.pico)
 *fill*         0x000e6c69        0x3 
 .rodata        0x000e6c6c       0x10 libc_pic.a(lockf.pico)
 .rodata        0x000e6c7c        0x6 libc_pic.a(getpwent.pico)
                0x000e6c7c                __yp_token
 .rodata.str1.1
                0x000e6c82       0xca libc_pic.a(getpwent.pico)
                                 0xd7 (size before relaxing)
 .rodata        0x000e6d4c       0x22 libc_pic.a(getnetgrent.pico)
 .rodata.str1.1
                0x000e6d6e       0x87 libc_pic.a(getnetgrent.pico)
                                 0x98 (size before relaxing)
 .rodata.str1.1
                0x000e6df5       0x20 libc_pic.a(getgroupmembership.pico)
                                 0x33 (size before relaxing)
 .rodata.str1.1
                0x000e6e15       0x98 libc_pic.a(getgrent.pico)
                                 0xc0 (size before relaxing)
 .rodata.str1.1
                0x000e6ead       0x44 libc_pic.a(execvp.pico)
                                 0x54 (size before relaxing)
 .rodata        0x000e6ef1        0x6 libc_pic.a(devname.pico)
 .rodata.str1.1
                0x000e6ef7       0x24 libc_pic.a(devname.pico)
 .rodata        0x000e6f1b       0x20 libc_pic.a(arc4random.pico)
                0x000e6f1b                crypto_core_constant32
 .rodata.str1.1
                0x000e6f3b        0xd libc_pic.a(arc4random.pico)
 .rodata.str1.1
                0x000e6f48        0xb libc_pic.a(citrus_mapper.pico)
                                 0x18 (size before relaxing)
 .rodata.str1.1
                0x00000000        0x5 libc_pic.a(__getcwd.pico)
 *fill*         0x000e6f53        0x1 
 .rodata        0x000e6f54      0x2b2 libc_pic.a(vfscanf.pico)
 .rodata.str1.1
                0x00000000       0x10 libc_pic.a(vfscanf.pico)
 .rodata.str1.1
                0x000e7206        0xf libc_pic.a(getprotoent_r.pico)
                                 0x15 (size before relaxing)
 *fill*         0x000e7215        0x3 
 .rodata        0x000e7218      0x440 libc_pic.a(sha2.pico)
 .rodata.str1.1
                0x00000000        0xf libc_pic.a(verrc.pico)
                                  0xc (size before relaxing)
 .rodata        0x000e7658       0x1c libc_pic.a(vis.pico)
 .rodata.str1.1
                0x00000000        0x1 libc_pic.a(vis.pico)
 .rodata.str4.4
                0x000e7674       0xbc libc_pic.a(vis.pico)
 .rodata.str1.1
                0x000e7730        0xd libc_pic.a(getdevmajor.pico)
 .rodata.str1.1
                0x00000000       0x3e libc_pic.a(fts.pico)
 *fill*         0x000e773d        0x3 
 .rodata.cst4   0x000e7740        0xc libc_pic.a(strtod.pico)
 *fill*         0x000e774c        0x4 
 .rodata.cst8   0x000e7750       0x20 libc_pic.a(strtod.pico)
 .rodata.str1.1
                0x00000000        0xd libc_pic.a(strtod.pico)
                                  0xc (size before relaxing)
 .rodata        0x000e7770       0x28 libc_pic.a(strtod.pico)
 .rodata.cst4   0x00000000        0x8 libc_pic.a(strtof.pico)
 .rodata        0x000e7798       0x3c libc_pic.a(strtof.pico)
 .rodata.str1.1
                0x000e77d4       0x56 libc_pic.a(kernel_utils.pico)
 .rodata.str1.1
                0x00000000        0xc libc_pic.a(vwarnc.pico)
 .rodata.str1.1
                0x00000000        0x5 libc_pic.a(vwarnx.pico)
 *fill*         0x000e782a        0x2 
 .rodata        0x000e782c       0x4c libc_pic.a(strtord.pico)
 .rodata.cst8   0x000e7878        0x8 libc_pic.a(ulp.pico)
 .rodata        0x000e7880       0x30 libc_pic.a(strtopx.pico)
 .rodata.str1.1
                0x000e78b0       0x11 libc_pic.a(socket.pico)
                                 0x23 (size before relaxing)
 .rodata.str1.1
                0x000e78c1       0x8b libc_pic.a(vectorio.pico)
 .rodata.str1.1
                0x000e794c       0x45 libc_pic.a(sendto.pico)
 .rodata.str1.1
                0x000e7991       0x40 libc_pic.a(ioctl.pico)
                                 0x42 (size before relaxing)
 *fill*         0x000e79d1        0x3 
 .rodata        0x000e79d4      0x140 libc_pic.a(strftime.pico)
 .rodata.str1.1
                0x000e7b14       0xc5 libc_pic.a(strftime.pico)
                                 0xfb (size before relaxing)
 *fill*         0x000e7bd9        0x3 
 .rodata        0x000e7bdc       0x24 libc_pic.a(malloc.pico)
 .rodata.str1.1
                0x000e7c00      0x215 libc_pic.a(malloc.pico)
 *fill*         0x000e7e15        0x3 
 .rodata        0x000e7e18       0x20 libc_pic.a(res_send.pico)
 .rodata.str1.1
                0x000e7e38      0x1d3 libc_pic.a(res_send.pico)
                                0x1e5 (size before relaxing)
 .rodata.str1.1
                0x000e800b       0x71 libc_pic.a(recvfrom.pico)
                                 0x7a (size before relaxing)
 .rodata.str1.1
                0x000e807c       0x28 libc_pic.a(getnameinfo.pico)
                                 0x3c (size before relaxing)
 .rodata        0x000e80a4       0x30 libc_pic.a(getnameinfo.pico)
 .rodata.str1.1
                0x000e80d4       0x7e libc_pic.a(assert.pico)
                                 0x8c (size before relaxing)
 .rodata.str1.1
                0x000e8152       0x7e libc_pic.a(res_query.pico)
                                 0x87 (size before relaxing)
 .rodata.str1.16
                0x000e81d0       0x6d libc_pic.a(res_query.pico)
 .rodata.str1.1
                0x000e823d       0x2f libc_pic.a(res_mkquery.pico)
 *fill*         0x000e826c        0x4 
 .rodata.str1.16
                0x000e8270       0x34 libc_pic.a(res_mkquery.pico)
 .rodata.str1.1
                0x000e82a4      0x175 libc_pic.a(res_init.pico)
                                0x1a0 (size before relaxing)
 .rodata        0x000e8419        0x3 libc_pic.a(res_init.pico)
 *fill*         0x000e841c        0x4 
 .rodata.str1.16
                0x000e8420       0x30 libc_pic.a(res_init.pico)
                                 0x26 (size before relaxing)
 .rodata.str1.1
                0x000e8450        0x7 libc_pic.a(puts.pico)
                                  0x9 (size before relaxing)
 *fill*         0x000e8457        0x1 
 .rodata        0x000e8458       0x77 libc_pic.a(getaddrinfo.pico)
 .rodata.str1.1
                0x000e84cf      0x238 libc_pic.a(getaddrinfo.pico)
                                0x25f (size before relaxing)
 .rodata        0x000e8707       0x40 libc_pic.a(md5c.pico)
 .rodata.str1.1
                0x000e8747       0x26 libc_pic.a(getservent_r.pico)
                                 0x2c (size before relaxing)
 *fill*         0x000e876d        0x3 
 .rodata        0x000e8770       0x18 libc_pic.a(getifaddrs.pico)
 .rodata        0x000e8788        0x9 libc_pic.a(cdbr.pico)
 *fill*         0x000e8791        0x3 
 .rodata        0x000e8794       0x20 libc_pic.a(mi_vector_hash.pico)
 .rodata.cst16  0x000e87b4       0x10 libc_pic.a(mi_vector_hash.pico)
 .rodata        0x000e87c4       0x48 libc_pic.a(res_debug.pico)
 .rodata.str1.1
                0x000e880c      0x9de libc_pic.a(res_debug.pico)
                                0xac3 (size before relaxing)
 .rodata.str1.1
                0x00000000        0x7 libc_pic.a(fputs.pico)
 *fill*         0x000e91ea        0x2 
 .rodata        0x000e91ec      0x1c0 libc_pic.a(ns_print.pico)
 .rodata.str1.1
                0x000e93ac      0x14f libc_pic.a(ns_print.pico)
                                0x185 (size before relaxing)
 *fill*         0x000e94fb        0x1 
 .rodata        0x000e94fc       0x51 libc_pic.a(base64.pico)
 .rodata.str1.1
                0x000e954d        0xc libc_pic.a(inet_ntop.pico)
                                  0xf (size before relaxing)
 .rodata.str1.1
                0x000e9559        0x5 libc_pic.a(ns_ttl.pico)
 .rodata.str1.1
                0x00000000        0xe libc_pic.a(sethostent.pico)
 .rodata.str1.1
                0x000e955e       0x2f libc_pic.a(res_data.pico)
                                 0x50 (size before relaxing)
 .rodata.str1.1
                0x000e958d       0x23 libc_pic.a(gethnamaddr.pico)
                                 0x92 (size before relaxing)
 .rodata        0x000e95b0       0x2f libc_pic.a(gethnamaddr.pico)
 .rodata        0x000e95df       0x22 libc_pic.a(inet_pton.pico)
 .rodata        0x000e9601        0x3 libc_pic.a(fparseln.pico)
 .rodata        0x000e9604      0x10b libc_pic.a(ns_name.pico)
 .rodata.str1.1
                0x000e970f        0x9 libc_pic.a(ns_name.pico)
                                  0xe (size before relaxing)
 .rodata        0x000e9718      0x824 libc_pic.a(nsparser.pico)
 .rodata.str1.1
                0x000e9f3c       0xcb libc_pic.a(nsparser.pico)
                                 0xd2 (size before relaxing)
 *fill*         0x000ea007        0x1 
 .rodata        0x000ea008      0x436 libc_pic.a(nslexer.pico)
 .rodata.str1.1
                0x000ea43e      0x1fb libc_pic.a(nslexer.pico)
                                0x212 (size before relaxing)
 .rodata.str1.1
                0x000ea639       0x81 libc_pic.a(nsdispatch.pico)
                                 0xab (size before relaxing)
 .rodata        0x000ea6ba       0x71 libc_pic.a(syslog.pico)
 .rodata.str1.1
                0x000ea72b       0x50 libc_pic.a(syslog.pico)
                                 0x6e (size before relaxing)
 *fill*         0x000ea77b        0x1 
 .rodata        0x000ea77c       0x68 libc_pic.a(localtime.pico)
 .rodata.cst8   0x00000000        0x8 libc_pic.a(localtime.pico)
 .rodata.str1.1
                0x00000000       0xb8 libc_pic.a(localtime.pico)
 .rodata        0x000ea7e4       0x39 libc_pic.a(asctime.pico)
 .rodata.str1.1
                0x000ea81d       0x6a libc_pic.a(asctime.pico)
                                 0x6d (size before relaxing)
 .rodata.str1.1
                0x000ea887       0x12 libc_pic.a(strerror_r.pico)
                                 0x17 (size before relaxing)
 .rodata.str1.1
                0x000ea899       0x54 libc_pic.a(catopen.pico)
                                 0x56 (size before relaxing)
 *fill*         0x000ea8ed        0x3 
 .rodata        0x000ea8f0        0x4 libc_pic.a(errlist.pico)
                0x000ea8f0                __sys_nerr14
 .rodata.str1.1
                0x000ea8f4      0xba6 libc_pic.a(errlist.pico)
                               0x12fd (size before relaxing)
 *fill*         0x000eb49a        0x2 
 .rodata        0x000eb49c       0xa0 libc_pic.a(vsnprintf_ss.pico)
 .rodata.cst16  0x000eb53c       0x10 libc_pic.a(vsnprintf_ss.pico)
                                 0x20 (size before relaxing)
 .rodata.str1.1
                0x000eb54c        0xd libc_pic.a(vsnprintf_ss.pico)
                                 0x14 (size before relaxing)
 .rodata.str1.1
                0x000eb559       0x11 libc_pic.a(dummy_lc_collate.pico)
                                 0x13 (size before relaxing)
 .rodata.str1.1
                0x00000000        0x2 libc_pic.a(generic_lc_all.pico)
 .rodata.str1.1
                0x000eb56a       0x25 libc_pic.a(setlocale.pico)
                                 0x2c (size before relaxing)
 .rodata.str1.1
                0x000eb58f       0x6d libc_pic.a(citrus_lc_messages.pico)
                                 0x81 (size before relaxing)
 .rodata.str1.1
                0x000eb5fc       0xd2 libc_pic.a(citrus_lc_time.pico)
                                0x178 (size before relaxing)
 .rodata.str1.1
                0x000eb6ce       0x1a libc_pic.a(citrus_lc_numeric.pico)
                                 0x77 (size before relaxing)
 .rodata.str1.1
                0x000eb6e8      0x102 libc_pic.a(citrus_lc_monetary.pico)
                                0x19a (size before relaxing)
 .rodata.str1.1
                0x000eb7ea        0xf libc_pic.a(citrus_lc_ctype.pico)
                                 0x43 (size before relaxing)
 .rodata.str1.1
                0x00000000        0xb libc_pic.a(citrus_lookup.pico)
 .rodata        0x000eb7f9        0x9 libc_pic.a(citrus_lookup.pico)
 .rodata.str1.1
                0x000eb802       0x22 libc_pic.a(rune.pico)
 .rodata        0x000eb824        0x2 libc_pic.a(fix_grouping.pico)
 *fill*         0x000eb826        0x2 
 .rodata.cst4   0x000eb828        0x4 libc_pic.a(strtodg.pico)
                                  0xc (size before relaxing)
 *fill*         0x000eb82c        0x4 
 .rodata.cst8   0x000eb830        0x8 libc_pic.a(strtodg.pico)
                                 0x10 (size before relaxing)
 .rodata.str1.1
                0x00000000        0xc libc_pic.a(strtodg.pico)
 .rodata        0x000eb838       0x5c libc_pic.a(strtodg.pico)
 .rodata        0x000eb894       0x2c libc_pic.a(rec_put.pico)
 .rodata.str1.1
                0x00000000        0x2 libc_pic.a(rec_open.pico)
 .rodata        0x000eb8c0       0x24 libc_pic.a(rec_seq.pico)
 .rodata.str1.1
                0x000eb8e4       0x10 libc_pic.a(makebuf.pico)
 .rodata        0x000eb8f4      0x360 libc_pic.a(vfprintf.pico)
 .rodata.str1.1
                0x000ebc54       0x10 libc_pic.a(vfprintf.pico)
                                 0x19 (size before relaxing)
 *fill*         0x000ebc64        0x4 
 .rodata.cst8   0x000ebc68        0x8 libc_pic.a(hdtoa.pico)
                                 0x10 (size before relaxing)
 .rodata        0x000ebc70       0x28 libc_pic.a(hdtoa.pico)
 .rodata.str1.1
                0x000ebc98        0xd libc_pic.a(hdtoa.pico)
                                  0xf (size before relaxing)
 *fill*         0x000ebca5        0x3 
 .rodata        0x000ebca8       0x14 libc_pic.a(ldtoa.pico)
 .rodata.cst4   0x000ebcbc       0x14 libc_pic.a(dtoa.pico)
                                 0x18 (size before relaxing)
 .rodata.cst8   0x000ebcd0       0x18 libc_pic.a(dtoa.pico)
 .rodata        0x000ebce8       0x18 libc_pic.a(dtoa.pico)
 .rodata.str1.1
                0x00000000        0xf libc_pic.a(dtoa.pico)
 .rodata.cst4   0x000ebd00        0x4 libc_pic.a(gdtoa.pico)
                                 0x20 (size before relaxing)
 *fill*         0x000ebd04        0x4 
 .rodata.cst8   0x000ebd08       0x10 libc_pic.a(gdtoa.pico)
                                 0x28 (size before relaxing)
 .rodata        0x000ebd18       0x2c libc_pic.a(gdtoa.pico)
 .rodata.str1.1
                0x00000000        0xf libc_pic.a(gdtoa.pico)
 *fill*         0x000ebd44        0x4 
 .rodata        0x000ebd48      0x118 libc_pic.a(misc.pico)
                0x000ebd58                __bigtens_D2A
                0x000ebd80                __tinytens_D2A
                0x000ebda8                __tens_D2A
 .rodata.str1.1
                0x000ebe60       0x38 libc_pic.a(hash_page.pico)
 .rodata        0x000ebe98       0x10 libc_pic.a(hash.pico)
 .rodata.str1.1
                0x000ebea8        0xc libc_pic.a(hash.pico)
 .rodata.str1.1
                0x000ebeb4        0x4 libc_pic.a(bt_open.pico)
 .rodata        0x000ebeb8       0x20 libc_pic.a(hash_func.pico)
 .rodata.str1.1
                0x000ebed8        0xc libc_pic.a(dbfile.pico)
                                 0x19 (size before relaxing)
 .rodata.str1.1
                0x00000000        0x2 libc_pic.a(_env.pico)
 .rodata        0x000ebee4       0x24 libc_pic.a(bt_seq.pico)
 .rodata.cst8   0x00000000        0x8 libc_pic.a(strcspn.pico)
 .rodata.str1.1
                0x000ebf08       0x26 libc_pic.a(mpool.pico)
 *fill*         0x000ebf2e        0x2 
 .rodata        0x000ebf30      0x1e4 libc_pic.a(sysconf.pico)
 .rodata.str1.1
                0x000ec114       0xc3 libc_pic.a(sysconf.pico)
                                 0xc9 (size before relaxing)
 *fill*         0x000ec1d7        0x1 
 .rodata        0x000ec1d8       0x24 libc_pic.a(fpathconf.pico)
 .rodata.str1.1
                0x000ec1fc        0x3 libc_pic.a(sysctlgetmibinfo.pico)
 .rodata.str1.1
                0x000ec1ff      0x66b libc_pic.a(sysctl.pico)
 .rodata        0x000ec86a        0x2 libc_pic.a(global_locale.pico)
 .rodata.str1.1
                0x000ec86c      0x10b libc_pic.a(global_locale.pico)
                                0x126 (size before relaxing)
 .rodata.str1.1
                0x000ec977       0x16 libc_pic.a(runetable.pico)
                                 0x5f (size before relaxing)
 *fill*         0x000ec98d        0x1 
 .rodata        0x000ec98e      0x202 libc_pic.a(toupper_.pico)
                0x000ec98e                _C_toupper_tab_
                0x000ec98e                _C_toupper_
 .rodata        0x000ecb90      0x202 libc_pic.a(tolower_.pico)
                0x000ecb90                _C_tolower_
                0x000ecb90                _C_tolower_tab_
 .rodata        0x000ecd92      0x304 libc_pic.a(ctype_.pico)
                0x000ecd92                _C_ctype_
                0x000ecd92                _C_compat_bsdctype
                0x000ece94                _C_ctype_tab_
 .rodata.str1.1
                0x00000000        0x5 libc_pic.a(citrus_ctype.pico)

.rodata1
 *(.rodata1)

.eh_frame_hdr   0x000ed098     0x475c
 *(.eh_frame_hdr)
 .eh_frame_hdr  0x000ed098     0x475c libc_pic.a(uuid_to_string.pico)

.eh_frame       0x000f17f4    0x11180
 *(.eh_frame)
 .eh_frame      0x000f17f4       0x3c /usr/lib/crti.o
                                 0x40 (size before relaxing)
 .eh_frame      0x000f1830        0x0 /usr/lib/crtbeginS.o
 .eh_frame      0x000f1830       0x38 libc_pic.a(uuid_to_string.pico)
 .eh_frame      0x000f1868       0x70 libc_pic.a(uuid_stream.pico)
                                 0x88 (size before relaxing)
 .eh_frame      0x000f18d8       0x1c libc_pic.a(uuid_hash.pico)
                                 0x34 (size before relaxing)
 .eh_frame      0x000f18f4       0x20 libc_pic.a(uuid_from_string.pico)
                                 0x38 (size before relaxing)
 .eh_frame      0x000f1914       0x1c libc_pic.a(uuid_equal.pico)
                                 0x34 (size before relaxing)
 .eh_frame      0x000f1930       0x1c libc_pic.a(uuid_create_nil.pico)
                                 0x34 (size before relaxing)
 .eh_frame      0x000f194c       0x40 libc_pic.a(uuid_create.pico)
                                 0x58 (size before relaxing)
 .eh_frame      0x000f198c       0x20 libc_pic.a(uuid_compare.pico)
                                 0x38 (size before relaxing)
 .eh_frame      0x000f19ac       0x20 libc_pic.a(_cpufeature.pico)
                                 0x38 (size before relaxing)
 .eh_frame      0x000f19cc       0x1c libc_pic.a(sprofile.pico)
                                 0x34 (size before relaxing)
 .eh_frame      0x000f19e8       0x20 libc_pic.a(sizeup.pico)
                                 0x38 (size before relaxing)
 .eh_frame      0x000f1a08       0x1c libc_pic.a(futimens.pico)
                                 0x34 (size before relaxing)
 .eh_frame      0x000f1a24       0x20 libc_pic.a(truncate.pico)
                                 0x38 (size before relaxing)
 .eh_frame      0x000f1a44       0x1c libc_pic.a(sync.pico)
                                 0x34 (size before relaxing)
 .eh_frame      0x000f1a60       0x20 libc_pic.a(symlink.pico)
                                 0x38 (size before relaxing)
 .eh_frame      0x000f1a80       0x1c libc_pic.a(svrctl.pico)
                                 0x34 (size before relaxing)
 .eh_frame      0x000f1a9c       0x40 libc_pic.a(statvfs.pico)
                                 0x58 (size before relaxing)
 .eh_frame      0x000f1adc       0x1c libc_pic.a(sigpending.pico)
                                 0x34 (size before relaxing)
 .eh_frame      0x000f1af8       0x20 libc_pic.a(shutdown.pico)
                                 0x38 (size before relaxing)
 .eh_frame      0x000f1b18       0x1c libc_pic.a(stime.pico)
                                 0x34 (size before relaxing)
 .eh_frame      0x000f1b34       0x1c libc_pic.a(shmget.pico)
                                 0x34 (size before relaxing)
 .eh_frame      0x000f1b50       0x38 libc_pic.a(shmat.pico)
                                 0x50 (size before relaxing)
 .eh_frame      0x000f1b88       0x20 libc_pic.a(sendmsg.pico)
                                 0x38 (size before relaxing)
 .eh_frame      0x000f1ba8       0x58 libc_pic.a(sem.pico)
                                 0x70 (size before relaxing)
 .eh_frame      0x000f1c00       0x20 libc_pic.a(rename.pico)
                                 0x38 (size before relaxing)
 .eh_frame      0x000f1c20       0x20 libc_pic.a(recvmsg.pico)
                                 0x38 (size before relaxing)
 .eh_frame      0x000f1c40       0x1c libc_pic.a(reboot.pico)
                                 0x34 (size before relaxing)
 .eh_frame      0x000f1c5c       0x20 libc_pic.a(ptrace.pico)
                                 0x38 (size before relaxing)
 .eh_frame      0x000f1c7c       0x60 libc_pic.a(mount.pico)
                                 0x78 (size before relaxing)
 .eh_frame      0x000f1cdc       0x1c libc_pic.a(mkfifo.pico)
                                 0x34 (size before relaxing)
 .eh_frame      0x000f1cf8       0x20 libc_pic.a(link.pico)
                                 0x38 (size before relaxing)
 .eh_frame      0x000f1d18       0x20 libc_pic.a(setsockopt.pico)
                                 0x38 (size before relaxing)
 .eh_frame      0x000f1d38       0x20 libc_pic.a(getsockname.pico)
                                 0x38 (size before relaxing)
 .eh_frame      0x000f1d58       0x1c libc_pic.a(getppid.pico)
                                 0x34 (size before relaxing)
 .eh_frame      0x000f1d74       0x1c libc_pic.a(getpgrp.pico)
                                 0x34 (size before relaxing)
 .eh_frame      0x000f1d90       0x1c libc_pic.a(getgroups.pico)
                                 0x34 (size before relaxing)
 .eh_frame      0x000f1dac       0x20 libc_pic.a(gcov_flush_sys.pico)
                                 0x38 (size before relaxing)
 .eh_frame      0x000f1dcc       0x1c libc_pic.a(fstatfs.pico)
                                 0x34 (size before relaxing)
 .eh_frame      0x000f1de8       0x1c libc_pic.a(flock.pico)
                                 0x34 (size before relaxing)
 .eh_frame      0x000f1e04       0x1c libc_pic.a(dup.pico)
                                 0x34 (size before relaxing)
 .eh_frame      0x000f1e20       0x20 libc_pic.a(chroot.pico)
                                 0x38 (size before relaxing)
 .eh_frame      0x000f1e40       0x1c libc_pic.a(fchown.pico)
                                 0x34 (size before relaxing)
 .eh_frame      0x000f1e5c       0x1c libc_pic.a(fchmod.pico)
                                 0x34 (size before relaxing)
 .eh_frame      0x000f1e78       0x1c libc_pic.a(getsid.pico)
                                 0x34 (size before relaxing)
 .eh_frame      0x000f1e94       0x20 libc_pic.a(m_closefrom.pico)
                                 0x38 (size before relaxing)
 .eh_frame      0x000f1eb4       0x40 libc_pic.a(strptime.pico)
                                 0x58 (size before relaxing)
 .eh_frame      0x000f1ef4       0x20 libc_pic.a(getdate.pico)
                                 0x38 (size before relaxing)
 .eh_frame      0x000f1f14       0x20 libc_pic.a(difftime.pico)
                                 0x38 (size before relaxing)
 .eh_frame      0x000f1f34       0x1c libc_pic.a(tcsetpgrp.pico)
                                 0x34 (size before relaxing)
 .eh_frame      0x000f1f50       0x20 libc_pic.a(tcsendbreak.pico)
                                 0x38 (size before relaxing)
 .eh_frame      0x000f1f70       0x1c libc_pic.a(tcgetpgrp.pico)
                                 0x34 (size before relaxing)
 .eh_frame      0x000f1f8c       0x1c libc_pic.a(tcflush.pico)
                                 0x34 (size before relaxing)
 .eh_frame      0x000f1fa8       0x20 libc_pic.a(tcflow.pico)
                                 0x38 (size before relaxing)
 .eh_frame      0x000f1fc8       0x1c libc_pic.a(tcdrain.pico)
                                 0x34 (size before relaxing)
 .eh_frame      0x000f1fe4       0x1c libc_pic.a(cfsetspeed.pico)
                                 0x34 (size before relaxing)
 .eh_frame      0x000f2000       0x1c libc_pic.a(cfsetospeed.pico)
                                 0x34 (size before relaxing)
 .eh_frame      0x000f201c       0x1c libc_pic.a(cfsetispeed.pico)
                                 0x34 (size before relaxing)
 .eh_frame      0x000f2038       0x1c libc_pic.a(cfmakeraw.pico)
                                 0x34 (size before relaxing)
 .eh_frame      0x000f2054       0x1c libc_pic.a(cfgetospeed.pico)
                                 0x34 (size before relaxing)
 .eh_frame      0x000f2070       0x1c libc_pic.a(cfgetispeed.pico)
                                 0x34 (size before relaxing)
 .eh_frame      0x000f208c       0x20 libc_pic.a(wmemmove.pico)
                                 0x38 (size before relaxing)
 .eh_frame      0x000f20ac       0x20 libc_pic.a(wmemcmp.pico)
                                 0x38 (size before relaxing)
 .eh_frame      0x000f20cc       0x20 libc_pic.a(wcswcs.pico)
                                 0x38 (size before relaxing)
 .eh_frame      0x000f20ec       0x20 libc_pic.a(wcstok.pico)
                                 0x38 (size before relaxing)
 .eh_frame      0x000f210c       0x20 libc_pic.a(wcsstr.pico)
                                 0x38 (size before relaxing)
 .eh_frame      0x000f212c       0x20 libc_pic.a(wcsspn.pico)
                                 0x38 (size before relaxing)
 .eh_frame      0x000f214c       0x1c libc_pic.a(wcsrchr.pico)
                                 0x34 (size before relaxing)
 .eh_frame      0x000f2168       0x20 libc_pic.a(wcspbrk.pico)
                                 0x38 (size before relaxing)
 .eh_frame      0x000f2188       0x20 libc_pic.a(wcsncpy.pico)
                                 0x38 (size before relaxing)
 .eh_frame      0x000f21a8       0x20 libc_pic.a(wcsncmp.pico)
                                 0x38 (size before relaxing)
 .eh_frame      0x000f21c8       0x40 libc_pic.a(wcsncasecmp.pico)
                                 0x58 (size before relaxing)
 .eh_frame      0x000f2208       0x20 libc_pic.a(wcsdup.pico)
                                 0x38 (size before relaxing)
 .eh_frame      0x000f2228       0x40 libc_pic.a(wcscasecmp.pico)
                                 0x58 (size before relaxing)
 .eh_frame      0x000f2268       0x20 libc_pic.a(wcsncat.pico)
                                 0x38 (size before relaxing)
 .eh_frame      0x000f2288       0x20 libc_pic.a(wcslcpy.pico)
                                 0x38 (size before relaxing)
 .eh_frame      0x000f22a8       0x20 libc_pic.a(wcslcat.pico)
                                 0x38 (size before relaxing)
 .eh_frame      0x000f22c8       0x20 libc_pic.a(wcscspn.pico)
                                 0x38 (size before relaxing)
 .eh_frame      0x000f22e8       0x1c libc_pic.a(wcscat.pico)
                                 0x34 (size before relaxing)
 .eh_frame      0x000f2304       0x20 libc_pic.a(popcount64.pico)
                                 0x38 (size before relaxing)
 .eh_frame      0x000f2324       0x1c libc_pic.a(popcount32.pico)
                                 0x34 (size before relaxing)
 .eh_frame      0x000f2340       0x20 libc_pic.a(memmem.pico)
                                 0x38 (size before relaxing)
 .eh_frame      0x000f2360       0x20 libc_pic.a(memccpy.pico)
                                 0x38 (size before relaxing)
 .eh_frame      0x000f2380       0x20 libc_pic.a(consttime_memequal.pico)
                                 0x38 (size before relaxing)
 .eh_frame      0x000f23a0       0x20 libc_pic.a(strnstr.pico)
                                 0x38 (size before relaxing)
 .eh_frame      0x000f23c0       0x20 libc_pic.a(strspn.pico)
                                 0x38 (size before relaxing)
 .eh_frame      0x000f23e0       0x20 libc_pic.a(memrchr.pico)
                                 0x38 (size before relaxing)
 .eh_frame      0x000f2400       0x40 libc_pic.a(strxfrm.pico)
                                 0x58 (size before relaxing)
 .eh_frame      0x000f2440       0x1c libc_pic.a(strtok.pico)
                                 0x34 (size before relaxing)
 .eh_frame      0x000f245c       0x1c libc_pic.a(strsignal.pico)
                                 0x34 (size before relaxing)
 .eh_frame      0x000f2478       0x20 libc_pic.a(strmode.pico)
                                 0x38 (size before relaxing)
 .eh_frame      0x000f2498       0x1c libc_pic.a(strnlen.pico)
                                 0x34 (size before relaxing)
 .eh_frame      0x000f24b4       0x20 libc_pic.a(strcasestr.pico)
                                 0x38 (size before relaxing)
 .eh_frame      0x000f24d4       0x1c libc_pic.a(stpcpy.pico)
                                 0x34 (size before relaxing)
 .eh_frame      0x000f24f0       0x60 libc_pic.a(bm.pico)
                                 0x78 (size before relaxing)
 .eh_frame      0x000f2550       0x40 libc_pic.a(mtab.pico)
                                 0x58 (size before relaxing)
 .eh_frame      0x000f2590       0xf4 libc_pic.a(configfile.pico)
                                0x10c (size before relaxing)
 .eh_frame      0x000f2684       0x60 libc_pic.a(strfmon.pico)
                                 0x78 (size before relaxing)
 .eh_frame      0x000f26e4       0x20 libc_pic.a(unsetenv.pico)
                                 0x38 (size before relaxing)
 .eh_frame      0x000f2704       0x3c libc_pic.a(twalk.pico)
                                 0x54 (size before relaxing)
 .eh_frame      0x000f2740       0x20 libc_pic.a(tsearch.pico)
                                 0x38 (size before relaxing)
 .eh_frame      0x000f2760       0x20 libc_pic.a(tfind.pico)
                                 0x38 (size before relaxing)
 .eh_frame      0x000f2780       0x20 libc_pic.a(tdelete.pico)
                                 0x38 (size before relaxing)
 .eh_frame      0x000f27a0       0x20 libc_pic.a(system.pico)
                                 0x38 (size before relaxing)
 .eh_frame      0x000f27c0       0x60 libc_pic.a(strtouq.pico)
                                 0x78 (size before relaxing)
 .eh_frame      0x000f2820       0x60 libc_pic.a(strtoull.pico)
                                 0x78 (size before relaxing)
 .eh_frame      0x000f2880       0x60 libc_pic.a(strtoq.pico)
                                 0x78 (size before relaxing)
 .eh_frame      0x000f28e0       0x20 libc_pic.a(strtonum.pico)
                                 0x38 (size before relaxing)
 .eh_frame      0x000f2900       0x60 libc_pic.a(strtou.pico)
                                 0x78 (size before relaxing)
 .eh_frame      0x000f2960       0x60 libc_pic.a(strsuftoll.pico)
                                 0x78 (size before relaxing)
 .eh_frame      0x000f29c0       0x1c libc_pic.a(srand48.pico)
                                 0x34 (size before relaxing)
 .eh_frame      0x000f29dc       0x20 libc_pic.a(seed48.pico)
                                 0x38 (size before relaxing)
 .eh_frame      0x000f29fc       0x20 libc_pic.a(reallocarray.pico)
                                 0x38 (size before relaxing)
 .eh_frame      0x000f2a1c       0x1c libc_pic.a(remque.pico)
                                 0x34 (size before relaxing)
 .eh_frame      0x000f2a38       0x1c libc_pic.a(rand_r.pico)
                                 0x34 (size before relaxing)
 .eh_frame      0x000f2a54       0x38 libc_pic.a(rand.pico)
                                 0x50 (size before relaxing)
 .eh_frame      0x000f2a8c       0x80 libc_pic.a(radixsort.pico)
                                 0x98 (size before relaxing)
 .eh_frame      0x000f2b0c       0x3c libc_pic.a(quick_exit.pico)
                                 0x54 (size before relaxing)
 .eh_frame      0x000f2b48       0x74 libc_pic.a(pty.pico)
                                 0x8c (size before relaxing)
 .eh_frame      0x000f2bbc       0x1c libc_pic.a(posix_openpt.pico)
                                 0x34 (size before relaxing)
 .eh_frame      0x000f2bd8       0x20 libc_pic.a(qdiv.pico)
                                 0x38 (size before relaxing)
 .eh_frame      0x000f2bf8       0x1c libc_pic.a(qabs.pico)
                                 0x34 (size before relaxing)
 .eh_frame      0x000f2c14       0x20 libc_pic.a(putenv.pico)
                                 0x38 (size before relaxing)
 .eh_frame      0x000f2c34       0x20 libc_pic.a(nrand48.pico)
                                 0x38 (size before relaxing)
 .eh_frame      0x000f2c54       0x20 libc_pic.a(mrand48.pico)
                                 0x38 (size before relaxing)
 .eh_frame      0x000f2c74       0x40 libc_pic.a(lsearch.pico)
                                 0x58 (size before relaxing)
 .eh_frame      0x000f2cb4       0x20 libc_pic.a(lrand48.pico)
                                 0x38 (size before relaxing)
 .eh_frame      0x000f2cd4       0x1c libc_pic.a(lcong48.pico)
                                 0x34 (size before relaxing)
 .eh_frame      0x000f2cf0       0x20 libc_pic.a(lldiv.pico)
                                 0x38 (size before relaxing)
 .eh_frame      0x000f2d10       0x3c libc_pic.a(l64a.pico)
                                 0x54 (size before relaxing)
 .eh_frame      0x000f2d4c       0x20 libc_pic.a(jrand48.pico)
                                 0x38 (size before relaxing)
 .eh_frame      0x000f2d6c       0x1c libc_pic.a(insque.pico)
                                 0x34 (size before relaxing)
 .eh_frame      0x000f2d88       0x20 libc_pic.a(imaxdiv.pico)
                                 0x38 (size before relaxing)
 .eh_frame      0x000f2da8       0x20 libc_pic.a(heapsort.pico)
                                 0x38 (size before relaxing)
 .eh_frame      0x000f2dc8      0x100 libc_pic.a(hcreate.pico)
                                0x118 (size before relaxing)
 .eh_frame      0x000f2ec8       0x20 libc_pic.a(getsubopt.pico)
                                 0x38 (size before relaxing)
 .eh_frame      0x000f2ee8       0x20 libc_pic.a(getopt_long.pico)
                                 0x38 (size before relaxing)
 .eh_frame      0x000f2f08       0x20 libc_pic.a(getopt.pico)
                                 0x38 (size before relaxing)
 .eh_frame      0x000f2f28       0x1c libc_pic.a(drand48.pico)
                                 0x34 (size before relaxing)
 .eh_frame      0x000f2f44       0x1c libc_pic.a(atoll.pico)
                                 0x34 (size before relaxing)
 .eh_frame      0x000f2f60       0x1c libc_pic.a(atol.pico)
                                 0x34 (size before relaxing)
 .eh_frame      0x000f2f7c       0x1c libc_pic.a(atof.pico)
                                 0x34 (size before relaxing)
 .eh_frame      0x000f2f98       0x20 libc_pic.a(a64l.pico)
                                 0x38 (size before relaxing)
 .eh_frame      0x000f2fb8       0x20 libc_pic.a(tmpnam.pico)
                                 0x38 (size before relaxing)
 .eh_frame      0x000f2fd8       0x20 libc_pic.a(tempnam.pico)
                                 0x38 (size before relaxing)
 .eh_frame      0x000f2ff8       0x7c libc_pic.a(open_wmemstream.pico)
                                 0x94 (size before relaxing)
 .eh_frame      0x000f3074       0x7c libc_pic.a(open_memstream.pico)
                                 0x94 (size before relaxing)
 .eh_frame      0x000f30f0       0xbc libc_pic.a(fmemopen.pico)
                                 0xd4 (size before relaxing)
 .eh_frame      0x000f31ac       0x38 libc_pic.a(wscanf.pico)
                                 0x50 (size before relaxing)
 .eh_frame      0x000f31e4       0x38 libc_pic.a(wprintf.pico)
                                 0x50 (size before relaxing)
 .eh_frame      0x000f321c       0x38 libc_pic.a(vwscanf.pico)
                                 0x50 (size before relaxing)
 .eh_frame      0x000f3254       0x38 libc_pic.a(vwprintf.pico)
                                 0x50 (size before relaxing)
 .eh_frame      0x000f328c       0x38 libc_pic.a(vscanf.pico)
                                 0x50 (size before relaxing)
 .eh_frame      0x000f32c4       0x38 libc_pic.a(vprintf.pico)
                                 0x50 (size before relaxing)
 .eh_frame      0x000f32fc       0x20 libc_pic.a(tmpfile.pico)
                                 0x38 (size before relaxing)
 .eh_frame      0x000f331c       0x3c libc_pic.a(swscanf.pico)
                                 0x54 (size before relaxing)
 .eh_frame      0x000f3358       0x40 libc_pic.a(swprintf.pico)
                                 0x58 (size before relaxing)
 .eh_frame      0x000f3398       0x3c libc_pic.a(setbuffer.pico)
                                 0x54 (size before relaxing)
 .eh_frame      0x000f33d4       0x1c libc_pic.a(setbuf.pico)
                                 0x34 (size before relaxing)
 .eh_frame      0x000f33f0       0x38 libc_pic.a(scanf.pico)
                                 0x50 (size before relaxing)
 .eh_frame      0x000f3428       0x20 libc_pic.a(remove.pico)
                                 0x38 (size before relaxing)
 .eh_frame      0x000f3448       0x1c libc_pic.a(putwchar.pico)
                                 0x34 (size before relaxing)
 .eh_frame      0x000f3464       0x1c libc_pic.a(putwc.pico)
                                 0x34 (size before relaxing)
 .eh_frame      0x000f3480       0x1c libc_pic.a(putw.pico)
                                 0x34 (size before relaxing)
 .eh_frame      0x000f349c       0x40 libc_pic.a(putc.pico)
                                 0x58 (size before relaxing)
 .eh_frame      0x000f34dc       0x1c libc_pic.a(mkostemps.pico)
                                 0x34 (size before relaxing)
 .eh_frame      0x000f34f8       0x1c libc_pic.a(mkostemp.pico)
                                 0x34 (size before relaxing)
 .eh_frame      0x000f3514       0x1c libc_pic.a(mkstemps.pico)
                                 0x34 (size before relaxing)
 .eh_frame      0x000f3530       0x1c libc_pic.a(mkstemp.pico)
                                 0x34 (size before relaxing)
 .eh_frame      0x000f354c       0x20 libc_pic.a(mkdtemp.pico)
                                 0x38 (size before relaxing)
 .eh_frame      0x000f356c       0x1c libc_pic.a(getwchar.pico)
                                 0x34 (size before relaxing)
 .eh_frame      0x000f3588       0x1c libc_pic.a(getwc.pico)
                                 0x34 (size before relaxing)
 .eh_frame      0x000f35a4       0x1c libc_pic.a(getw.pico)
                                 0x34 (size before relaxing)
 .eh_frame      0x000f35c0       0x1c libc_pic.a(getline.pico)
                                 0x34 (size before relaxing)
 .eh_frame      0x000f35dc       0x38 libc_pic.a(getchar.pico)
                                 0x50 (size before relaxing)
 .eh_frame      0x000f3614       0x38 libc_pic.a(getc.pico)
                                 0x50 (size before relaxing)
 .eh_frame      0x000f364c       0x3c libc_pic.a(fwscanf.pico)
                                 0x54 (size before relaxing)
 .eh_frame      0x000f3688       0x3c libc_pic.a(fwprintf.pico)
                                 0x54 (size before relaxing)
 .eh_frame      0x000f36c4       0x1c libc_pic.a(fwide.pico)
                                 0x34 (size before relaxing)
 .eh_frame      0x000f36e0       0xc0 libc_pic.a(funopen.pico)
                                 0xd8 (size before relaxing)
 .eh_frame      0x000f37a0       0x20 libc_pic.a(fsetpos.pico)
                                 0x38 (size before relaxing)
 .eh_frame      0x000f37c0       0x3c libc_pic.a(fscanf.pico)
                                 0x54 (size before relaxing)
 .eh_frame      0x000f37fc       0x20 libc_pic.a(freopen.pico)
                                 0x38 (size before relaxing)
 .eh_frame      0x000f381c       0x20 libc_pic.a(fputws.pico)
                                 0x38 (size before relaxing)
 .eh_frame      0x000f383c       0x20 libc_pic.a(fpurge.pico)
                                 0x38 (size before relaxing)
 .eh_frame      0x000f385c       0x54 libc_pic.a(flockfile.pico)
                                 0x6c (size before relaxing)
 .eh_frame      0x000f38b0       0x1c libc_pic.a(fileno.pico)
                                 0x34 (size before relaxing)
 .eh_frame      0x000f38cc       0x20 libc_pic.a(fgetws.pico)
                                 0x38 (size before relaxing)
 .eh_frame      0x000f38ec       0x20 libc_pic.a(fgetwln.pico)
                                 0x38 (size before relaxing)
 .eh_frame      0x000f390c       0x20 libc_pic.a(fgetpos.pico)
                                 0x38 (size before relaxing)
 .eh_frame      0x000f392c       0x1c libc_pic.a(fgetc.pico)
                                 0x34 (size before relaxing)
 .eh_frame      0x000f3948       0x1c libc_pic.a(ferror.pico)
                                 0x34 (size before relaxing)
 .eh_frame      0x000f3964       0x1c libc_pic.a(feof.pico)
                                 0x34 (size before relaxing)
 .eh_frame      0x000f3980       0x3c libc_pic.a(dprintf.pico)
                                 0x54 (size before relaxing)
 .eh_frame      0x000f39bc       0x1c libc_pic.a(clrerr.pico)
                                 0x34 (size before relaxing)
 .eh_frame      0x000f39d8       0x20 libc_pic.a(vsprintf_chk.pico)
                                 0x38 (size before relaxing)
 .eh_frame      0x000f39f8       0x20 libc_pic.a(vsnprintf_chk.pico)
                                 0x38 (size before relaxing)
 .eh_frame      0x000f3a18       0x20 libc_pic.a(strncpy_chk.pico)
                                 0x38 (size before relaxing)
 .eh_frame      0x000f3a38       0x20 libc_pic.a(strncat_chk.pico)
                                 0x38 (size before relaxing)
 .eh_frame      0x000f3a58       0x20 libc_pic.a(strcpy_chk.pico)
                                 0x38 (size before relaxing)
 .eh_frame      0x000f3a78       0x20 libc_pic.a(strcat_chk.pico)
                                 0x38 (size before relaxing)
 .eh_frame      0x000f3a98       0x20 libc_pic.a(stpncpy_chk.pico)
                                 0x38 (size before relaxing)
 .eh_frame      0x000f3ab8       0x20 libc_pic.a(stpcpy_chk.pico)
                                 0x38 (size before relaxing)
 .eh_frame      0x000f3ad8       0x20 libc_pic.a(sprintf_chk.pico)
                                 0x38 (size before relaxing)
 .eh_frame      0x000f3af8       0x20 libc_pic.a(snprintf_chk.pico)
                                 0x38 (size before relaxing)
 .eh_frame      0x000f3b18       0x20 libc_pic.a(memset_chk.pico)
                                 0x38 (size before relaxing)
 .eh_frame      0x000f3b38       0x20 libc_pic.a(memmove_chk.pico)
                                 0x38 (size before relaxing)
 .eh_frame      0x000f3b58       0x20 libc_pic.a(memcpy_chk.pico)
                                 0x38 (size before relaxing)
 .eh_frame      0x000f3b78       0x20 libc_pic.a(fgets_chk.pico)
                                 0x38 (size before relaxing)
 .eh_frame      0x000f3b98       0x20 libc_pic.a(gets_chk.pico)
                                 0x38 (size before relaxing)
 .eh_frame      0x000f3bb8       0x3c libc_pic.a(res_state.pico)
                                 0x54 (size before relaxing)
 .eh_frame      0x000f3bf4       0x3c libc_pic.a(herror.pico)
                                 0x54 (size before relaxing)
 .eh_frame      0x000f3c30      0x120 libc_pic.a(regexec.pico)
                                0x138 (size before relaxing)
 .eh_frame      0x000f3d50       0x20 libc_pic.a(regerror.pico)
                                 0x38 (size before relaxing)
 .eh_frame      0x000f3d70      0x160 libc_pic.a(regcomp.pico)
                                0x178 (size before relaxing)
 .eh_frame      0x000f3ed0       0x3c libc_pic.a(if_nameindex.pico)
                                 0x54 (size before relaxing)
 .eh_frame      0x000f3f0c       0x38 libc_pic.a(inet6_scopeid.pico)
                                 0x50 (size before relaxing)
 .eh_frame      0x000f3f44      0x184 libc_pic.a(rthdr.pico)
                                0x19c (size before relaxing)
 .eh_frame      0x000f40c8      0x194 libc_pic.a(ip6opt.pico)
                                0x1ac (size before relaxing)
 .eh_frame      0x000f425c       0x1c libc_pic.a(sockatmark.pico)
                                 0x34 (size before relaxing)
 .eh_frame      0x000f4278       0x20 libc_pic.a(recv.pico)
                                 0x38 (size before relaxing)
 .eh_frame      0x000f4298      0x1d8 libc_pic.a(rcmd.pico)
                                0x1f0 (size before relaxing)
 .eh_frame      0x000f4470       0x40 libc_pic.a(linkaddr.pico)
                                 0x58 (size before relaxing)
 .eh_frame      0x000f44b0       0x40 libc_pic.a(iso_addr.pico)
                                 0x58 (size before relaxing)
 .eh_frame      0x000f44f0       0x54 libc_pic.a(getservent.pico)
                                 0x6c (size before relaxing)
 .eh_frame      0x000f4544       0x1c libc_pic.a(getservbyport.pico)
                                 0x34 (size before relaxing)
 .eh_frame      0x000f4560       0x1c libc_pic.a(getservbyname.pico)
                                 0x34 (size before relaxing)
 .eh_frame      0x000f457c       0x54 libc_pic.a(getprotoent.pico)
                                 0x6c (size before relaxing)
 .eh_frame      0x000f45d0       0x1c libc_pic.a(getprotobynumber.pico)
                                 0x34 (size before relaxing)
 .eh_frame      0x000f45ec       0x1c libc_pic.a(getprotobyname.pico)
                                 0x34 (size before relaxing)
 .eh_frame      0x000f4608       0x1c libc_pic.a(getpeereid.pico)
                                 0x34 (size before relaxing)
 .eh_frame      0x000f4624       0xe0 libc_pic.a(getnetnamadr.pico)
                                 0xf8 (size before relaxing)
 .eh_frame      0x000f4704       0xa0 libc_pic.a(ethers.pico)
                                 0xb8 (size before relaxing)
 .eh_frame      0x000f47a4       0x38 libc_pic.a(initfini.pico)
                                 0x50 (size before relaxing)
 .eh_frame      0x000f47dc       0x60 libc_pic.a(md5hl.pico)
                                 0x78 (size before relaxing)
 .eh_frame      0x000f483c       0x60 libc_pic.a(md4hl.pico)
                                 0x78 (size before relaxing)
 .eh_frame      0x000f489c       0x7c libc_pic.a(md4c.pico)
                                 0x94 (size before relaxing)
 .eh_frame      0x000f4918       0x40 libc_pic.a(wcsftime.pico)
                                 0x58 (size before relaxing)
 .eh_frame      0x000f4958       0x40 libc_pic.a(wcsxfrm.pico)
                                 0x58 (size before relaxing)
 .eh_frame      0x000f4998       0x38 libc_pic.a(wcscoll.pico)
                                 0x50 (size before relaxing)
 .eh_frame      0x000f49d0       0x60 libc_pic.a(wcstoull.pico)
                                 0x78 (size before relaxing)
 .eh_frame      0x000f4a30       0x60 libc_pic.a(wcstoul.pico)
                                 0x78 (size before relaxing)
 .eh_frame      0x000f4a90       0x60 libc_pic.a(wcstoll.pico)
                                 0x78 (size before relaxing)
 .eh_frame      0x000f4af0       0x60 libc_pic.a(wcstol.pico)
                                 0x78 (size before relaxing)
 .eh_frame      0x000f4b50       0x38 libc_pic.a(nl_langinfo.pico)
                                 0x50 (size before relaxing)
 .eh_frame      0x000f4b88       0x20 libc_pic.a(newlocale.pico)
                                 0x38 (size before relaxing)
 .eh_frame      0x000f4ba8       0x1c libc_pic.a(freelocale.pico)
                                 0x34 (size before relaxing)
 .eh_frame      0x000f4bc4       0x20 libc_pic.a(duplocale.pico)
                                 0x38 (size before relaxing)
 .eh_frame      0x000f4be4       0x58 libc_pic.a(assertions.pico)
                                 0x70 (size before relaxing)
 .eh_frame      0x000f4c3c       0x20 libc_pic.a(inet_ntoa.pico)
                                 0x38 (size before relaxing)
 .eh_frame      0x000f4c5c       0x1c libc_pic.a(inet_netof.pico)
                                 0x34 (size before relaxing)
 .eh_frame      0x000f4c78       0x20 libc_pic.a(inet_neta.pico)
                                 0x38 (size before relaxing)
 .eh_frame      0x000f4c98       0x20 libc_pic.a(inet_net_pton.pico)
                                 0x38 (size before relaxing)
 .eh_frame      0x000f4cb8       0x20 libc_pic.a(inet_net_ntop.pico)
                                 0x38 (size before relaxing)
 .eh_frame      0x000f4cd8       0x1c libc_pic.a(inet_makeaddr.pico)
                                 0x34 (size before relaxing)
 .eh_frame      0x000f4cf4       0x1c libc_pic.a(inet_lnaof.pico)
                                 0x34 (size before relaxing)
 .eh_frame      0x000f4d10       0x40 libc_pic.a(inet_cidr_pton.pico)
                                 0x58 (size before relaxing)
 .eh_frame      0x000f4d50       0x20 libc_pic.a(inet_cidr_ntop.pico)
                                 0x38 (size before relaxing)
 .eh_frame      0x000f4d70       0xb8 libc_pic.a(iconv.pico)
                                 0xd0 (size before relaxing)
 .eh_frame      0x000f4e28       0x20 libc_pic.a(murmurhash.pico)
                                 0x38 (size before relaxing)
 .eh_frame      0x000f4e48       0x7c libc_pic.a(sha512hl.pico)
                                 0x94 (size before relaxing)
 .eh_frame      0x000f4ec4       0x7c libc_pic.a(sha384hl.pico)
                                 0x94 (size before relaxing)
 .eh_frame      0x000f4f40       0x7c libc_pic.a(sha256hl.pico)
                                 0x94 (size before relaxing)
 .eh_frame      0x000f4fbc       0x7c libc_pic.a(sha224hl.pico)
                                 0x94 (size before relaxing)
 .eh_frame      0x000f5038       0x7c libc_pic.a(sha1hl.pico)
                                 0x94 (size before relaxing)
 .eh_frame      0x000f50b4       0x7c libc_pic.a(sha1.pico)
                                 0x94 (size before relaxing)
 .eh_frame      0x000f5130       0x7c libc_pic.a(rmd160hl.pico)
                                 0x94 (size before relaxing)
 .eh_frame      0x000f51ac       0x7c libc_pic.a(rmd160.pico)
                                 0x94 (size before relaxing)
 .eh_frame      0x000f5228       0x7c libc_pic.a(md2hl.pico)
                                 0x94 (size before relaxing)
 .eh_frame      0x000f52a4       0x7c libc_pic.a(md2.pico)
                                 0x94 (size before relaxing)
 .eh_frame      0x000f5320       0x1c libc_pic.a(signbitl.pico)
                                 0x34 (size before relaxing)
 .eh_frame      0x000f533c       0x1c libc_pic.a(isnanl.pico)
                                 0x34 (size before relaxing)
 .eh_frame      0x000f5358       0x1c libc_pic.a(isinfl.pico)
                                 0x34 (size before relaxing)
 .eh_frame      0x000f5374       0x1c libc_pic.a(isfinitel.pico)
                                 0x34 (size before relaxing)
 .eh_frame      0x000f5390       0x1c libc_pic.a(signbitd_ieee754.pico)
                                 0x34 (size before relaxing)
 .eh_frame      0x000f53ac       0x1c libc_pic.a(signbitf_ieee754.pico)
                                 0x34 (size before relaxing)
 .eh_frame      0x000f53c8       0x1c libc_pic.a(isfinited_ieee754.pico)
                                 0x34 (size before relaxing)
 .eh_frame      0x000f53e4       0x1c libc_pic.a(isfinitef_ieee754.pico)
                                 0x34 (size before relaxing)
 .eh_frame      0x000f5400       0x1c libc_pic.a(isnand_ieee754.pico)
                                 0x34 (size before relaxing)
 .eh_frame      0x000f541c       0x1c libc_pic.a(isnanf_ieee754.pico)
                                 0x34 (size before relaxing)
 .eh_frame      0x000f5438       0x1c libc_pic.a(isinfd_ieee754.pico)
                                 0x34 (size before relaxing)
 .eh_frame      0x000f5454       0x1c libc_pic.a(isinff_ieee754.pico)
                                 0x34 (size before relaxing)
 .eh_frame      0x000f5470       0x1c libc_pic.a(fpclassifyf_ieee754.pico)
                                 0x34 (size before relaxing)
 .eh_frame      0x000f548c       0x40 libc_pic.a(wordexp.pico)
                                 0x58 (size before relaxing)
 .eh_frame      0x000f54cc       0x1c libc_pic.a(warnc.pico)
                                 0x34 (size before relaxing)
 .eh_frame      0x000f54e8       0x1c libc_pic.a(wait.pico)
                                 0x34 (size before relaxing)
 .eh_frame      0x000f5504       0x20 libc_pic.a(valloc.pico)
                                 0x38 (size before relaxing)
 .eh_frame      0x000f5524       0x38 libc_pic.a(utimens.pico)
                                 0x50 (size before relaxing)
 .eh_frame      0x000f555c       0x20 libc_pic.a(utime.pico)
                                 0x38 (size before relaxing)
 .eh_frame      0x000f557c       0x20 libc_pic.a(uname.pico)
                                 0x38 (size before relaxing)
 .eh_frame      0x000f559c       0x20 libc_pic.a(ulimit.pico)
                                 0x38 (size before relaxing)
 .eh_frame      0x000f55bc       0x20 libc_pic.a(ualarm.pico)
                                 0x38 (size before relaxing)
 .eh_frame      0x000f55dc       0x20 libc_pic.a(ttyslot.pico)
                                 0x38 (size before relaxing)
 .eh_frame      0x000f55fc       0x40 libc_pic.a(ttyname.pico)
                                 0x58 (size before relaxing)
 .eh_frame      0x000f563c       0x1c libc_pic.a(toascii.pico)
                                 0x34 (size before relaxing)
 .eh_frame      0x000f5658       0x1c libc_pic.a(time.pico)
                                 0x34 (size before relaxing)
 .eh_frame      0x000f5674       0x20 libc_pic.a(sysctlnametomib.pico)
                                 0x38 (size before relaxing)
 .eh_frame      0x000f5694       0x8c libc_pic.a(sigsetops.pico)
                                 0xa4 (size before relaxing)
 .eh_frame      0x000f5720       0x20 libc_pic.a(sigset.pico)
                                 0x38 (size before relaxing)
 .eh_frame      0x000f5740       0x1c libc_pic.a(sigrelse.pico)
                                 0x34 (size before relaxing)
 .eh_frame      0x000f575c       0x20 libc_pic.a(siginterrupt.pico)
                                 0x38 (size before relaxing)
 .eh_frame      0x000f577c       0x1c libc_pic.a(sigignore.pico)
                                 0x34 (size before relaxing)
 .eh_frame      0x000f5798       0x1c libc_pic.a(sighold.pico)
                                 0x34 (size before relaxing)
 .eh_frame      0x000f57b4       0x20 libc_pic.a(shquotev.pico)
                                 0x38 (size before relaxing)
 .eh_frame      0x000f57d4       0x20 libc_pic.a(shquote.pico)
                                 0x38 (size before relaxing)
 .eh_frame      0x000f57f4       0x1c libc_pic.a(setprogname.pico)
                                 0x34 (size before relaxing)
 .eh_frame      0x000f5810       0x20 libc_pic.a(setproctitle.pico)
                                 0x38 (size before relaxing)
 .eh_frame      0x000f5830       0x40 libc_pic.a(setmode.pico)
                                 0x58 (size before relaxing)
 .eh_frame      0x000f5870       0x1c libc_pic.a(setjmperr.pico)
                                 0x34 (size before relaxing)
 .eh_frame      0x000f588c       0x1c libc_pic.a(sethostname.pico)
                                 0x34 (size before relaxing)
 .eh_frame      0x000f58a8       0x1c libc_pic.a(setdomainname.pico)
                                 0x34 (size before relaxing)
 .eh_frame      0x000f58c4       0x1c libc_pic.a(seekdir.pico)
                                 0x34 (size before relaxing)
 .eh_frame      0x000f58e0       0x20 libc_pic.a(scandir.pico)
                                 0x38 (size before relaxing)
 .eh_frame      0x000f5900       0x7c libc_pic.a(randomid.pico)
                                 0x94 (size before relaxing)
 .eh_frame      0x000f597c       0x60 libc_pic.a(pw_scan.pico)
                                 0x78 (size before relaxing)
 .eh_frame      0x000f59dc      0x198 libc_pic.a(ptree.pico)
                                0x1b0 (size before relaxing)
 .eh_frame      0x000f5b74       0x3c libc_pic.a(psignal.pico)
                                 0x54 (size before relaxing)
 .eh_frame      0x000f5bb0       0x20 libc_pic.a(posix_spawnp.pico)
                                 0x38 (size before relaxing)
 .eh_frame      0x000f5bd0       0xa0 libc_pic.a(posix_spawn_fileactions.pico)
                                 0xb8 (size before relaxing)
 .eh_frame      0x000f5c70      0x188 libc_pic.a(posix_spawn_sched.pico)
                                0x1a0 (size before relaxing)
 .eh_frame      0x000f5df8       0xa0 libc_pic.a(popen.pico)
                                 0xb8 (size before relaxing)
 .eh_frame      0x000f5e98       0x20 libc_pic.a(pause.pico)
                                 0x38 (size before relaxing)
 .eh_frame      0x000f5eb8       0x3c libc_pic.a(nlist.pico)
                                 0x54 (size before relaxing)
 .eh_frame      0x000f5ef4       0x20 libc_pic.a(nice.pico)
                                 0x38 (size before relaxing)
 .eh_frame      0x000f5f14       0x20 libc_pic.a(nftw.pico)
                                 0x38 (size before relaxing)
 .eh_frame      0x000f5f34       0x1c libc_pic.a(isascii.pico)
                                 0x34 (size before relaxing)
 .eh_frame      0x000f5f50       0x20 libc_pic.a(initgroups.pico)
                                 0x38 (size before relaxing)
 .eh_frame      0x000f5f70       0x20 libc_pic.a(humanize_number.pico)
                                 0x38 (size before relaxing)
 .eh_frame      0x000f5f90      0x13c libc_pic.a(glob.pico)
                                0x154 (size before relaxing)
 .eh_frame      0x000f60cc       0xb0 libc_pic.a(getusershell.pico)
                                 0xc8 (size before relaxing)
 .eh_frame      0x000f617c       0x98 libc_pic.a(getttyent.pico)
                                 0xb0 (size before relaxing)
 .eh_frame      0x000f6214       0x3c libc_pic.a(getpass.pico)
                                 0x54 (size before relaxing)
 .eh_frame      0x000f6250       0x20 libc_pic.a(getmntinfo.pico)
                                 0x38 (size before relaxing)
 .eh_frame      0x000f6270       0x40 libc_pic.a(getlogin.pico)
                                 0x58 (size before relaxing)
 .eh_frame      0x000f62b0       0x20 libc_pic.a(getloadavg.pico)
                                 0x38 (size before relaxing)
 .eh_frame      0x000f62d0       0x20 libc_pic.a(getgrouplist.pico)
                                 0x38 (size before relaxing)
 .eh_frame      0x000f62f0       0x20 libc_pic.a(getdomainname.pico)
                                 0x38 (size before relaxing)
 .eh_frame      0x000f6310      0x170 libc_pic.a(getcap.pico)
                                0x188 (size before relaxing)
 .eh_frame      0x000f6480       0x20 libc_pic.a(getbsize.pico)
                                 0x38 (size before relaxing)
 .eh_frame      0x000f64a0       0x20 libc_pic.a(ftw.pico)
                                 0x38 (size before relaxing)
 .eh_frame      0x000f64c0       0x1c libc_pic.a(ftok.pico)
                                 0x34 (size before relaxing)
 .eh_frame      0x000f64dc       0xbc libc_pic.a(fstab.pico)
                                 0xd4 (size before relaxing)
 .eh_frame      0x000f6598       0x3c libc_pic.a(fnmatch.pico)
                                 0x54 (size before relaxing)
 .eh_frame      0x000f65d4       0x20 libc_pic.a(fmtmsg.pico)
                                 0x38 (size before relaxing)
 .eh_frame      0x000f65f4       0x60 libc_pic.a(fmtcheck.pico)
                                 0x78 (size before relaxing)
 .eh_frame      0x000f6654       0x1c libc_pic.a(execv.pico)
                                 0x34 (size before relaxing)
 .eh_frame      0x000f6670       0x40 libc_pic.a(execlp.pico)
                                 0x58 (size before relaxing)
 .eh_frame      0x000f66b0       0x20 libc_pic.a(execle.pico)
                                 0x38 (size before relaxing)
 .eh_frame      0x000f66d0       0x20 libc_pic.a(errc.pico)
                                 0x38 (size before relaxing)
 .eh_frame      0x000f66f0       0x1c libc_pic.a(errx.pico)
                                 0x34 (size before relaxing)
 .eh_frame      0x000f670c       0x1c libc_pic.a(err.pico)
                                 0x34 (size before relaxing)
 .eh_frame      0x000f6728       0x20 libc_pic.a(dirname.pico)
                                 0x38 (size before relaxing)
 .eh_frame      0x000f6748       0x20 libc_pic.a(dehumanize_number.pico)
                                 0x38 (size before relaxing)
 .eh_frame      0x000f6768       0x20 libc_pic.a(daemon.pico)
                                 0x38 (size before relaxing)
 .eh_frame      0x000f6788       0x20 libc_pic.a(ctermid.pico)
                                 0x38 (size before relaxing)
 .eh_frame      0x000f67a8       0x1c libc_pic.a(clock.pico)
                                 0x34 (size before relaxing)
 .eh_frame      0x000f67c4       0x20 libc_pic.a(basename.pico)
                                 0x38 (size before relaxing)
 .eh_frame      0x000f67e4       0x40 libc_pic.a(asysctl.pico)
                                 0x58 (size before relaxing)
 .eh_frame      0x000f6824       0x1c libc_pic.a(alarm.pico)
                                 0x34 (size before relaxing)
 .eh_frame      0x000f6840       0x1c libc_pic.a(fslib.pico)
                                 0x34 (size before relaxing)
 .eh_frame      0x000f685c       0x20 libc_pic.a(read_tsc_64.pico)
                                 0x38 (size before relaxing)
 .eh_frame      0x000f687c       0x20 libc_pic.a(itoa.pico)
                                 0x38 (size before relaxing)
 .eh_frame      0x000f689c       0xa8 libc_pic.a(gcov.pico)
                                 0xc0 (size before relaxing)
 .eh_frame      0x000f6944       0x20 libc_pic.a(fsversion.pico)
                                 0x38 (size before relaxing)
 .eh_frame      0x000f6964       0xe4 libc_pic.a(dlfcn_elf.pico)
                                 0xfc (size before relaxing)
 .eh_frame      0x000f6a48       0x98 libc_pic.a(InstrProfilingFile.pico)
                                 0xb0 (size before relaxing)
 .eh_frame      0x000f6ae0       0x40 libc_pic.a(InstrProfilingBuffer.pico)
                                 0x58 (size before relaxing)
 .eh_frame      0x000f6b20       0x58 libc_pic.a(InstrProfiling.pico)
                                 0x70 (size before relaxing)
 .eh_frame      0x000f6b78      0x194 libc_pic.a(GCDAProfiling.pico)
                                0x1ac (size before relaxing)
 .eh_frame      0x000f6d0c       0x20 libc_pic.a(udivmoddi4.pico)
                                 0x38 (size before relaxing)
 .eh_frame      0x000f6d2c       0x1c libc_pic.a(ucmpdi2.pico)
                                 0x34 (size before relaxing)
 .eh_frame      0x000f6d48       0x1c libc_pic.a(negdi2.pico)
                                 0x34 (size before relaxing)
 .eh_frame      0x000f6d64       0x20 libc_pic.a(divmoddi4.pico)
                                 0x38 (size before relaxing)
 .eh_frame      0x000f6d84       0x1c libc_pic.a(cmpdi2.pico)
                                 0x34 (size before relaxing)
 .eh_frame      0x000f6da0       0x1c libc_pic.a(ffsdi2.pico)
                                 0x34 (size before relaxing)
 .eh_frame      0x000f6dbc       0x1c libc_pic.a(ctzdi2.pico)
                                 0x34 (size before relaxing)
 .eh_frame      0x000f6dd8       0x1c libc_pic.a(clzdi2.pico)
                                 0x34 (size before relaxing)
 .eh_frame      0x000f6df4       0x1c libc_pic.a(subvdi3.pico)
                                 0x34 (size before relaxing)
 .eh_frame      0x000f6e10       0x1c libc_pic.a(popcountdi2.pico)
                                 0x34 (size before relaxing)
 .eh_frame      0x000f6e2c       0x1c libc_pic.a(paritydi2.pico)
                                 0x34 (size before relaxing)
 .eh_frame      0x000f6e48       0x1c libc_pic.a(negvdi2.pico)
                                 0x34 (size before relaxing)
 .eh_frame      0x000f6e64       0x20 libc_pic.a(mulvdi3.pico)
                                 0x38 (size before relaxing)
 .eh_frame      0x000f6e84       0x20 libc_pic.a(mulodi4.pico)
                                 0x38 (size before relaxing)
 .eh_frame      0x000f6ea4       0x1c libc_pic.a(addvdi3.pico)
                                 0x34 (size before relaxing)
 .eh_frame      0x000f6ec0       0x1c libc_pic.a(absvdi2.pico)
                                 0x34 (size before relaxing)
 .eh_frame      0x000f6edc       0x20 libc_pic.a(umodsi3.pico)
                                 0x38 (size before relaxing)
 .eh_frame      0x000f6efc       0x20 libc_pic.a(udivmodsi4.pico)
                                 0x38 (size before relaxing)
 .eh_frame      0x000f6f1c       0x20 libc_pic.a(modsi3.pico)
                                 0x38 (size before relaxing)
 .eh_frame      0x000f6f3c       0x20 libc_pic.a(divmodsi4.pico)
                                 0x38 (size before relaxing)
 .eh_frame      0x000f6f5c       0x20 libc_pic.a(ctzsi2.pico)
                                 0x38 (size before relaxing)
 .eh_frame      0x000f6f7c       0x20 libc_pic.a(clzsi2.pico)
                                 0x38 (size before relaxing)
 .eh_frame      0x000f6f9c       0x1c libc_pic.a(subvsi3.pico)
                                 0x34 (size before relaxing)
 .eh_frame      0x000f6fb8       0x1c libc_pic.a(powixf2.pico)
                                 0x34 (size before relaxing)
 .eh_frame      0x000f6fd4       0x1c libc_pic.a(powisf2.pico)
                                 0x34 (size before relaxing)
 .eh_frame      0x000f6ff0       0x1c libc_pic.a(powidf2.pico)
                                 0x34 (size before relaxing)
 .eh_frame      0x000f700c       0x1c libc_pic.a(popcountsi2.pico)
                                 0x34 (size before relaxing)
 .eh_frame      0x000f7028       0x1c libc_pic.a(paritysi2.pico)
                                 0x34 (size before relaxing)
 .eh_frame      0x000f7044       0x1c libc_pic.a(negvsi2.pico)
                                 0x34 (size before relaxing)
 .eh_frame      0x000f7060       0x1c libc_pic.a(negsf2.pico)
                                 0x34 (size before relaxing)
 .eh_frame      0x000f707c       0x1c libc_pic.a(negdf2.pico)
                                 0x34 (size before relaxing)
 .eh_frame      0x000f7098       0x20 libc_pic.a(mulvsi3.pico)
                                 0x38 (size before relaxing)
 .eh_frame      0x000f70b8       0x20 libc_pic.a(mulosi4.pico)
                                 0x38 (size before relaxing)
 .eh_frame      0x000f70d8       0x1c libc_pic.a(muldc3.pico)
                                 0x34 (size before relaxing)
 .eh_frame      0x000f70f4       0x1c libc_pic.a(int_util.pico)
                                 0x34 (size before relaxing)
 .eh_frame      0x000f7110       0x20 libc_pic.a(fixxfdi.pico)
                                 0x38 (size before relaxing)
 .eh_frame      0x000f7130       0x1c libc_pic.a(fixunsxfsi.pico)
                                 0x34 (size before relaxing)
 .eh_frame      0x000f714c       0x20 libc_pic.a(fixunsxfdi.pico)
                                 0x38 (size before relaxing)
 .eh_frame      0x000f716c       0x1c libc_pic.a(fixunssfsi.pico)
                                 0x34 (size before relaxing)
 .eh_frame      0x000f7188       0x20 libc_pic.a(fixunssfdi.pico)
                                 0x38 (size before relaxing)
 .eh_frame      0x000f71a8       0x20 libc_pic.a(fixunsdfdi.pico)
                                 0x38 (size before relaxing)
 .eh_frame      0x000f71c8       0x20 libc_pic.a(fixdfdi.pico)
                                 0x38 (size before relaxing)
 .eh_frame      0x000f71e8       0x20 libc_pic.a(fixsfdi.pico)
                                 0x38 (size before relaxing)
 .eh_frame      0x000f7208       0x1c libc_pic.a(addvsi3.pico)
                                 0x34 (size before relaxing)
 .eh_frame      0x000f7224       0x1c libc_pic.a(absvsi2.pico)
                                 0x34 (size before relaxing)
 .eh_frame      0x000f7240       0x40 libc_pic.a(gcc_personality_v0.pico)
                                 0x58 (size before relaxing)
 .eh_frame      0x000f7280       0x20 libc_pic.a(getwd.pico)
                                 0x38 (size before relaxing)
 .eh_frame      0x000f72a0       0x74 libc_pic.a(sigcompat.pico)
                                 0x8c (size before relaxing)
 .eh_frame      0x000f7314       0x1c libc_pic.a(setpgrp.pico)
                                 0x34 (size before relaxing)
 .eh_frame      0x000f7330       0x1c libc_pic.a(sethostid.pico)
                                 0x34 (size before relaxing)
 .eh_frame      0x000f734c       0x1c libc_pic.a(killpg.pico)
                                 0x34 (size before relaxing)
 .eh_frame      0x000f7368       0x1c libc_pic.a(gethostid.pico)
                                 0x34 (size before relaxing)
 .eh_frame      0x000f7384       0x1c libc_pic.a(getdtablesize.pico)
                                 0x34 (size before relaxing)
 .eh_frame      0x000f73a0       0x1c libc_pic.a(creat.pico)
                                 0x34 (size before relaxing)
 .eh_frame      0x000f73bc       0x38 libc_pic.a(citrus_stdenc.pico)
                                 0x50 (size before relaxing)
 .eh_frame      0x000f73f4       0x60 libc_pic.a(citrus_iconv.pico)
                                 0x78 (size before relaxing)
 .eh_frame      0x000f7454       0xa0 libc_pic.a(citrus_esdb.pico)
                                 0xb8 (size before relaxing)
 .eh_frame      0x000f74f4       0x80 libc_pic.a(citrus_ctype_fallback.pico)
                                 0x98 (size before relaxing)
 .eh_frame      0x000f7574       0x40 libc_pic.a(citrus_csmapper.pico)
                                 0x58 (size before relaxing)
 .eh_frame      0x000f75b4       0x20 libc_pic.a(citrus_bcs_strtoul.pico)
                                 0x38 (size before relaxing)
 .eh_frame      0x000f75d4       0x90 libc_pic.a(ndbm.pico)
                                 0xa8 (size before relaxing)
 .eh_frame      0x000f7664       0x9c libc_pic.a(ndbmdatum.pico)
                                 0xb4 (size before relaxing)
 .eh_frame      0x000f7700      0x11c libc_pic.a(cdbw.pico)
                                0x134 (size before relaxing)
 .eh_frame      0x000f781c       0x1c libc_pic.a(atomic_init_cas.pico)
                                 0x34 (size before relaxing)
 .eh_frame      0x000f7838       0x1c libc_pic.a(compat_difftime.pico)
                                 0x34 (size before relaxing)
 .eh_frame      0x000f7854      0x498 libc_pic.a(compat_localtime.pico)
                                0x4b0 (size before relaxing)
 .eh_frame      0x000f7cec       0x20 libc_pic.a(compat___shmctl13.pico)
                                 0x38 (size before relaxing)
 .eh_frame      0x000f7d0c       0x1c libc_pic.a(compat_mknod.pico)
                                 0x34 (size before relaxing)
 .eh_frame      0x000f7d28       0x20 libc_pic.a(compat_adjtime.pico)
                                 0x38 (size before relaxing)
 .eh_frame      0x000f7d48       0x20 libc_pic.a(compat_nanosleep.pico)
                                 0x38 (size before relaxing)
 .eh_frame      0x000f7d68       0x40 libc_pic.a(compat_itimer.pico)
                                 0x58 (size before relaxing)
 .eh_frame      0x000f7da8       0x5c libc_pic.a(compat_clock.pico)
                                 0x74 (size before relaxing)
 .eh_frame      0x000f7e04       0x1c libc_pic.a(compat_settimeofday.pico)
                                 0x34 (size before relaxing)
 .eh_frame      0x000f7e20       0x40 libc_pic.a(compat_wait4.pico)
                                 0x58 (size before relaxing)
 .eh_frame      0x000f7e60       0x54 libc_pic.a(compat_utimes.pico)
                                 0x6c (size before relaxing)
 .eh_frame      0x000f7eb4       0x20 libc_pic.a(compat_socket.pico)
                                 0x38 (size before relaxing)
 .eh_frame      0x000f7ed4       0x20 libc_pic.a(compat_sched.pico)
                                 0x38 (size before relaxing)
 .eh_frame      0x000f7ef4       0x20 libc_pic.a(compat_getdirentries.pico)
                                 0x38 (size before relaxing)
 .eh_frame      0x000f7f14       0x20 libc_pic.a(compat_getdents.pico)
                                 0x38 (size before relaxing)
 .eh_frame      0x000f7f34       0x20 libc_pic.a(compat_unsetenv.pico)
                                 0x38 (size before relaxing)
 .eh_frame      0x000f7f54       0x38 libc_pic.a(compat_random.pico)
                                 0x50 (size before relaxing)
 .eh_frame      0x000f7f8c       0x20 libc_pic.a(compat_putenv.pico)
                                 0x38 (size before relaxing)
 .eh_frame      0x000f7fac       0x1c libc_pic.a(compat_fsetpos.pico)
                                 0x34 (size before relaxing)
 .eh_frame      0x000f7fc8       0x20 libc_pic.a(compat_fgetpos.pico)
                                 0x38 (size before relaxing)
 .eh_frame      0x000f7fe8       0x20 libc_pic.a(compat_ns_ntoa.pico)
                                 0x38 (size before relaxing)
 .eh_frame      0x000f8008       0x40 libc_pic.a(compat_ns_addr.pico)
                                 0x58 (size before relaxing)
 .eh_frame      0x000f8048       0x1c libc_pic.a(__cmsg_alignbytes.pico)
                                 0x34 (size before relaxing)
 .eh_frame      0x000f8064      0x160 libc_pic.a(compat_syslog.pico)
                                0x178 (size before relaxing)
 .eh_frame      0x000f81c4       0x20 libc_pic.a(compat___unvis13.pico)
                                 0x38 (size before relaxing)
 .eh_frame      0x000f81e4      0x11c libc_pic.a(compat___fts50.pico)
                                0x134 (size before relaxing)
 .eh_frame      0x000f8300       0x1c libc_pic.a(compat_utmp.pico)
                                 0x34 (size before relaxing)
 .eh_frame      0x000f831c      0x10c libc_pic.a(compat_getpwent.pico)
                                0x124 (size before relaxing)
 .eh_frame      0x000f8428       0x1c libc_pic.a(compat_alphasort.pico)
                                 0x34 (size before relaxing)
 .eh_frame      0x000f8444       0x1c libc_pic.a(compat_devname.pico)
                                 0x34 (size before relaxing)
 .eh_frame      0x000f8460       0x20 libc_pic.a(compat_utime.pico)
                                 0x38 (size before relaxing)
 .eh_frame      0x000f8480       0x1c libc_pic.a(compat_time.pico)
                                 0x34 (size before relaxing)
 .eh_frame      0x000f849c      0x15c libc_pic.a(compat_utmpx.pico)
                                0x174 (size before relaxing)
 .eh_frame      0x000f85f8       0x20 libc_pic.a(compat_unvis.pico)
                                 0x38 (size before relaxing)
 .eh_frame      0x000f8618       0x40 libc_pic.a(compat_timezone.pico)
                                 0x58 (size before relaxing)
 .eh_frame      0x000f8658       0x20 libc_pic.a(compat_times.pico)
                                 0x38 (size before relaxing)
 .eh_frame      0x000f8678       0x8c libc_pic.a(compat_sigsetops.pico)
                                 0xa4 (size before relaxing)
 .eh_frame      0x000f8704       0x20 libc_pic.a(compat_scandir.pico)
                                 0x38 (size before relaxing)
 .eh_frame      0x000f8724       0x1c libc_pic.a(compat__readdir_unlocked30.pico)
                                 0x34 (size before relaxing)
 .eh_frame      0x000f8740      0x11c libc_pic.a(compat___glob13.pico)
                                0x134 (size before relaxing)
 .eh_frame      0x000f885c      0x11c libc_pic.a(compat_glob.pico)
                                0x134 (size before relaxing)
 .eh_frame      0x000f8978      0x11c libc_pic.a(compat_fts.pico)
                                0x134 (size before relaxing)
 .eh_frame      0x000f8a94       0x1c libc_pic.a(compat_setlocale32.pico)
                                 0x34 (size before relaxing)
 .eh_frame      0x000f8ab0       0x1c libc_pic.a(compat_setlocale1.pico)
                                 0x34 (size before relaxing)
 .eh_frame      0x000f8acc       0x9c libc_pic.a(compat_ndbmdatum.pico)
                                 0xb4 (size before relaxing)
 .eh_frame      0x000f8b68       0x20 libc_pic.a(lchown.pico)
                                 0x38 (size before relaxing)
 .eh_frame      0x000f8b88       0x20 libc_pic.a(lchmod.pico)
                                 0x38 (size before relaxing)
 .eh_frame      0x000f8ba8       0x1c libc_pic.a(lchflags.pico)
                                 0x34 (size before relaxing)
 .eh_frame      0x000f8bc4       0x1c libc_pic.a(uuid_is_nil.pico)
                                 0x34 (size before relaxing)
 .eh_frame      0x000f8be0      0x53c libc_pic.a(libunwind.pico)
                                0x554 (size before relaxing)
 .eh_frame      0x000f911c       0x1c libc_pic.a(setrlimit.pico)
                                 0x34 (size before relaxing)
 .eh_frame      0x000f9138       0x1c libc_pic.a(vfork.pico)
                                 0x34 (size before relaxing)
 .eh_frame      0x000f9154       0x20 libc_pic.a(lutimes.pico)
                                 0x38 (size before relaxing)
 .eh_frame      0x000f9174       0x1c libc_pic.a(futimes.pico)
                                 0x34 (size before relaxing)
 .eh_frame      0x000f9190       0x20 libc_pic.a(utimes.pico)
                                 0x38 (size before relaxing)
 .eh_frame      0x000f91b0       0x20 libc_pic.a(utimensat.pico)
                                 0x38 (size before relaxing)
 .eh_frame      0x000f91d0       0x1c libc_pic.a(umask.pico)
                                 0x34 (size before relaxing)
 .eh_frame      0x000f91ec       0x20 libc_pic.a(socketpair.pico)
                                 0x38 (size before relaxing)
 .eh_frame      0x000f920c       0x1c libc_pic.a(sigsuspend.pico)
                                 0x34 (size before relaxing)
 .eh_frame      0x000f9228       0x20 libc_pic.a(shmctl.pico)
                                 0x38 (size before relaxing)
 .eh_frame      0x000f9248       0x1c libc_pic.a(settimeofday.pico)
                                 0x34 (size before relaxing)
 .eh_frame      0x000f9264       0x1c libc_pic.a(setgroups.pico)
                                 0x34 (size before relaxing)
 .eh_frame      0x000f9280       0x20 libc_pic.a(rmdir.pico)
                                 0x38 (size before relaxing)
 .eh_frame      0x000f92a0       0x20 libc_pic.a(posix_spawn.pico)
                                 0x38 (size before relaxing)
 .eh_frame      0x000f92c0       0x20 libc_pic.a(poll.pico)
                                 0x38 (size before relaxing)
 .eh_frame      0x000f92e0       0x38 libc_pic.a(pipe.pico)
                                 0x50 (size before relaxing)
 .eh_frame      0x000f9318       0x20 libc_pic.a(minix_rs.pico)
                                 0x38 (size before relaxing)
 .eh_frame      0x000f9338       0x20 libc_pic.a(listen.pico)
                                 0x38 (size before relaxing)
 .eh_frame      0x000f9358       0x1c libc_pic.a(getvfsstat.pico)
                                 0x34 (size before relaxing)
 .eh_frame      0x000f9374       0x20 libc_pic.a(getsockopt.pico)
                                 0x38 (size before relaxing)
 .eh_frame      0x000f9394       0x38 libc_pic.a(priority.pico)
                                 0x50 (size before relaxing)
 .eh_frame      0x000f93cc       0x20 libc_pic.a(__getlogin.pico)
                                 0x38 (size before relaxing)
 .eh_frame      0x000f93ec       0x1c libc_pic.a(setitimer.pico)
                                 0x34 (size before relaxing)
 .eh_frame      0x000f9408       0x1c libc_pic.a(getitimer.pico)
                                 0x34 (size before relaxing)
 .eh_frame      0x000f9424       0x1c libc_pic.a(getegid.pico)
                                 0x34 (size before relaxing)
 .eh_frame      0x000f9440       0x38 libc_pic.a(fstatvfs.pico)
                                 0x50 (size before relaxing)
 .eh_frame      0x000f9478       0x20 libc_pic.a(dup2.pico)
                                 0x38 (size before relaxing)
 .eh_frame      0x000f9498       0x1c libc_pic.a(clock_settime.pico)
                                 0x34 (size before relaxing)
 .eh_frame      0x000f94b4       0x1c libc_pic.a(clock_getres.pico)
                                 0x34 (size before relaxing)
 .eh_frame      0x000f94d0       0x20 libc_pic.a(chown.pico)
                                 0x38 (size before relaxing)
 .eh_frame      0x000f94f0       0x20 libc_pic.a(chmod.pico)
                                 0x38 (size before relaxing)
 .eh_frame      0x000f9510       0x20 libc_pic.a(adjtime.pico)
                                 0x38 (size before relaxing)
 .eh_frame      0x000f9530       0x20 libc_pic.a(accept.pico)
                                 0x38 (size before relaxing)
 .eh_frame      0x000f9550       0x20 libc_pic.a(tcsetattr.pico)
                                 0x38 (size before relaxing)
 .eh_frame      0x000f9570       0x1c libc_pic.a(wmemset.pico)
                                 0x34 (size before relaxing)
 .eh_frame      0x000f958c       0x20 libc_pic.a(wmemcpy.pico)
                                 0x38 (size before relaxing)
 .eh_frame      0x000f95ac       0x1c libc_pic.a(wcscpy.pico)
                                 0x34 (size before relaxing)
 .eh_frame      0x000f95c8       0x1c libc_pic.a(wcscmp.pico)
                                 0x34 (size before relaxing)
 .eh_frame      0x000f95e4       0x20 libc_pic.a(strsep.pico)
                                 0x38 (size before relaxing)
 .eh_frame      0x000f9604       0x20 libc_pic.a(strncat.pico)
                                 0x38 (size before relaxing)
 .eh_frame      0x000f9624       0x20 libc_pic.a(stresep.pico)
                                 0x38 (size before relaxing)
 .eh_frame      0x000f9644       0x20 libc_pic.a(__strsignal.pico)
                                 0x38 (size before relaxing)
 .eh_frame      0x000f9664       0x20 libc_pic.a(strtok_r.pico)
                                 0x38 (size before relaxing)
 .eh_frame      0x000f9684       0x20 libc_pic.a(stpncpy.pico)
                                 0x38 (size before relaxing)
 .eh_frame      0x000f96a4       0x1c libc_pic.a(stderr.pico)
                                 0x34 (size before relaxing)
 .eh_frame      0x000f96c0       0x20 libc_pic.a(erand48_ieee754.pico)
                                 0x38 (size before relaxing)
 .eh_frame      0x000f96e0       0x60 libc_pic.a(strtoll.pico)
                                 0x78 (size before relaxing)
 .eh_frame      0x000f9740       0x20 libc_pic.a(setenv.pico)
                                 0x38 (size before relaxing)
 .eh_frame      0x000f9760       0x80 libc_pic.a(random.pico)
                                 0x98 (size before relaxing)
 .eh_frame      0x000f97e0       0x20 libc_pic.a(_rand48.pico)
                                 0x38 (size before relaxing)
 .eh_frame      0x000f9800       0x40 libc_pic.a(mktemp.pico)
                                 0x58 (size before relaxing)
 .eh_frame      0x000f9840       0x40 libc_pic.a(gets.pico)
                                 0x58 (size before relaxing)
 .eh_frame      0x000f9880       0x58 libc_pic.a(vswscanf.pico)
                                 0x70 (size before relaxing)
 .eh_frame      0x000f98d8       0x40 libc_pic.a(vswprintf.pico)
                                 0x58 (size before relaxing)
 .eh_frame      0x000f9918       0x5c libc_pic.a(vfwscanf.pico)
                                 0x74 (size before relaxing)
 .eh_frame      0x000f9974       0xb8 libc_pic.a(vfwprintf.pico)
                                 0xd0 (size before relaxing)
 .eh_frame      0x000f9a2c       0x3c libc_pic.a(vdprintf.pico)
                                 0x54 (size before relaxing)
 .eh_frame      0x000f9a68       0x1c libc_pic.a(ungetwc.pico)
                                 0x34 (size before relaxing)
 .eh_frame      0x000f9a84       0x3c libc_pic.a(sscanf.pico)
                                 0x54 (size before relaxing)
 .eh_frame      0x000f9ac0       0x20 libc_pic.a(setvbuf.pico)
                                 0x38 (size before relaxing)
 .eh_frame      0x000f9ae0       0x20 libc_pic.a(perror.pico)
                                 0x38 (size before relaxing)
 .eh_frame      0x000f9b00       0x20 libc_pic.a(gettemp.pico)
                                 0x38 (size before relaxing)
 .eh_frame      0x000f9b20       0x20 libc_pic.a(ftello.pico)
                                 0x38 (size before relaxing)
 .eh_frame      0x000f9b40       0x20 libc_pic.a(ftell.pico)
                                 0x38 (size before relaxing)
 .eh_frame      0x000f9b60       0x40 libc_pic.a(fputwc.pico)
                                 0x58 (size before relaxing)
 .eh_frame      0x000f9ba0       0x3c libc_pic.a(fgetwc.pico)
                                 0x54 (size before relaxing)
 .eh_frame      0x000f9bdc       0x20 libc_pic.a(regfree.pico)
                                 0x38 (size before relaxing)
 .eh_frame      0x000f9bfc       0x20 libc_pic.a(getprotobynumber_r.pico)
                                 0x38 (size before relaxing)
 .eh_frame      0x000f9c1c       0x20 libc_pic.a(getprotobyname_r.pico)
                                 0x38 (size before relaxing)
 .eh_frame      0x000f9c3c       0x5c libc_pic.a(getnetent.pico)
                                 0x74 (size before relaxing)
 .eh_frame      0x000f9c98       0x90 libc_pic.a(stack_protector.pico)
                                 0xa8 (size before relaxing)
 .eh_frame      0x000f9d28       0x58 libc_pic.a(wcstold.pico)
                                 0x70 (size before relaxing)
 .eh_frame      0x000f9d80       0x58 libc_pic.a(wcstof.pico)
                                 0x70 (size before relaxing)
 .eh_frame      0x000f9dd8       0x58 libc_pic.a(wcstod.pico)
                                 0x70 (size before relaxing)
 .eh_frame      0x000f9e30       0x60 libc_pic.a(wcstoumax.pico)
                                 0x78 (size before relaxing)
 .eh_frame      0x000f9e90       0x60 libc_pic.a(wcstoimax.pico)
                                 0x78 (size before relaxing)
 .eh_frame      0x000f9ef0       0x20 libc_pic.a(inet_network.pico)
                                 0x38 (size before relaxing)
 .eh_frame      0x000f9f10       0x20 libc_pic.a(verrx.pico)
                                 0x38 (size before relaxing)
 .eh_frame      0x000f9f30       0x20 libc_pic.a(verr.pico)
                                 0x38 (size before relaxing)
 .eh_frame      0x000f9f50       0x1c libc_pic.a(warn.pico)
                                 0x34 (size before relaxing)
 .eh_frame      0x000f9f6c       0x1c libc_pic.a(wait3.pico)
                                 0x34 (size before relaxing)
 .eh_frame      0x000f9f88      0x174 libc_pic.a(utmpx.pico)
                                0x18c (size before relaxing)
 .eh_frame      0x000fa0fc       0x78 libc_pic.a(utmp.pico)
                                 0x90 (size before relaxing)
 .eh_frame      0x000fa174       0x94 libc_pic.a(unvis.pico)
                                 0xac (size before relaxing)
 .eh_frame      0x000fa208       0x20 libc_pic.a(times.pico)
                                 0x38 (size before relaxing)
 .eh_frame      0x000fa228       0xc0 libc_pic.a(pwcache.pico)
                                 0xd8 (size before relaxing)
 .eh_frame      0x000fa2e8       0x20 libc_pic.a(nlist_elf32.pico)
                                 0x38 (size before relaxing)
 .eh_frame      0x000fa308       0x20 libc_pic.a(nlist_aout.pico)
                                 0x38 (size before relaxing)
 .eh_frame      0x000fa328       0x20 libc_pic.a(lockf.pico)
                                 0x38 (size before relaxing)
 .eh_frame      0x000fa348      0x3f8 libc_pic.a(getpwent.pico)
                                0x410 (size before relaxing)
 .eh_frame      0x000fa740      0x230 libc_pic.a(getnetgrent.pico)
                                0x248 (size before relaxing)
 .eh_frame      0x000fa970       0x80 libc_pic.a(getgroupmembership.pico)
                                 0x98 (size before relaxing)
 .eh_frame      0x000fa9f0      0x434 libc_pic.a(getgrent.pico)
                                0x44c (size before relaxing)
 .eh_frame      0x000fae24       0x40 libc_pic.a(getcwd.pico)
                                 0x58 (size before relaxing)
 .eh_frame      0x000fae64       0x3c libc_pic.a(execvp.pico)
                                 0x54 (size before relaxing)
 .eh_frame      0x000faea0       0x20 libc_pic.a(execl.pico)
                                 0x38 (size before relaxing)
 .eh_frame      0x000faec0       0x40 libc_pic.a(devname.pico)
                                 0x58 (size before relaxing)
 .eh_frame      0x000faf00       0xdc libc_pic.a(arc4random.pico)
                                 0xf4 (size before relaxing)
 .eh_frame      0x000fafdc       0xc4 libc_pic.a(InstrProfilingPlatformOther.pico)
                                 0xdc (size before relaxing)
 .eh_frame      0x000fb0a0       0xbc libc_pic.a(citrus_mapper.pico)
                                 0xd4 (size before relaxing)
 .eh_frame      0x000fb15c       0x20 libc_pic.a(citrus_hash.pico)
                                 0x38 (size before relaxing)
 .eh_frame      0x000fb17c       0x1c libc_pic.a(compat_gettimeofday.pico)
                                 0x34 (size before relaxing)
 .eh_frame      0x000fb198       0x40 libc_pic.a(compat_getrusage.pico)
                                 0x58 (size before relaxing)
 .eh_frame      0x000fb1d8       0x60 libc_pic.a(compat_stat.pico)
                                 0x78 (size before relaxing)
 .eh_frame      0x000fb238       0x40 libc_pic.a(compat_readdir.pico)
                                 0x58 (size before relaxing)
 .eh_frame      0x000fb278       0x3c libc_pic.a(compat_opendir.pico)
                                 0x54 (size before relaxing)
 .eh_frame      0x000fb2b4       0x20 libc_pic.a(setpgid.pico)
                                 0x38 (size before relaxing)
 .eh_frame      0x000fb2d4       0x1c libc_pic.a(getrusage.pico)
                                 0x34 (size before relaxing)
 .eh_frame      0x000fb2f0       0x20 libc_pic.a(__getcwd.pico)
                                 0x38 (size before relaxing)
 .eh_frame      0x000fb310       0x38 libc_pic.a(setuid.pico)
                                 0x50 (size before relaxing)
 .eh_frame      0x000fb348       0x38 libc_pic.a(setgid.pico)
                                 0x50 (size before relaxing)
 .eh_frame      0x000fb380       0x1c libc_pic.a(setsid.pico)
                                 0x34 (size before relaxing)
 .eh_frame      0x000fb39c       0x20 libc_pic.a(mkdir.pico)
                                 0x38 (size before relaxing)
 .eh_frame      0x000fb3bc       0x1c libc_pic.a(geteuid.pico)
                                 0x34 (size before relaxing)
 .eh_frame      0x000fb3d8       0x1c libc_pic.a(fork.pico)
                                 0x34 (size before relaxing)
 .eh_frame      0x000fb3f4       0x20 libc_pic.a(execve.pico)
                                 0x38 (size before relaxing)
 .eh_frame      0x000fb414       0x20 libc_pic.a(wmemchr.pico)
                                 0x38 (size before relaxing)
 .eh_frame      0x000fb434       0x1c libc_pic.a(explicit_memset.pico)
                                 0x34 (size before relaxing)
 .eh_frame      0x000fb450       0x20 libc_pic.a(strstr.pico)
                                 0x38 (size before relaxing)
 .eh_frame      0x000fb470       0x5c libc_pic.a(vsscanf.pico)
                                 0x74 (size before relaxing)
 .eh_frame      0x000fb4cc       0x58 libc_pic.a(vfscanf.pico)
                                 0x70 (size before relaxing)
 .eh_frame      0x000fb524       0x20 libc_pic.a(ungetc.pico)
                                 0x38 (size before relaxing)
 .eh_frame      0x000fb544       0x60 libc_pic.a(getprotoent_r.pico)
                                 0x78 (size before relaxing)
 .eh_frame      0x000fb5a4      0x220 libc_pic.a(sha2.pico)
                                0x238 (size before relaxing)
 .eh_frame      0x000fb7c4       0x1c libc_pic.a(bswap64.pico)
                                 0x34 (size before relaxing)
 .eh_frame      0x000fb7e0       0x20 libc_pic.a(verrc.pico)
                                 0x38 (size before relaxing)
 .eh_frame      0x000fb800       0x20 libc_pic.a(vwarn.pico)
                                 0x38 (size before relaxing)
 .eh_frame      0x000fb820       0x1c libc_pic.a(warnx.pico)
                                 0x34 (size before relaxing)
 .eh_frame      0x000fb83c       0x1c libc_pic.a(waitpid.pico)
                                 0x34 (size before relaxing)
 .eh_frame      0x000fb858      0x240 libc_pic.a(vis.pico)
                                0x258 (size before relaxing)
 .eh_frame      0x000fba98       0xa0 libc_pic.a(stringlist.pico)
                                 0xb8 (size before relaxing)
 .eh_frame      0x000fbb38       0x1c libc_pic.a(sleep.pico)
                                 0x34 (size before relaxing)
 .eh_frame      0x000fbb54       0x20 libc_pic.a(rewinddir.pico)
                                 0x38 (size before relaxing)
 .eh_frame      0x000fbb74       0x3c libc_pic.a(getdevmajor.pico)
                                 0x54 (size before relaxing)
 .eh_frame      0x000fbbb0      0x11c libc_pic.a(fts.pico)
                                0x134 (size before relaxing)
 .eh_frame      0x000fbccc       0x20 libc_pic.a(closedir.pico)
                                 0x38 (size before relaxing)
 .eh_frame      0x000fbcec       0x58 libc_pic.a(strtod.pico)
                                 0x70 (size before relaxing)
 .eh_frame      0x000fbd44       0x38 libc_pic.a(strtold_px.pico)
                                 0x50 (size before relaxing)
 .eh_frame      0x000fbd7c       0x38 libc_pic.a(strtof.pico)
                                 0x50 (size before relaxing)
 .eh_frame      0x000fbdb4       0x54 libc_pic.a(citrus_module.pico)
                                 0x6c (size before relaxing)
 .eh_frame      0x000fbe08       0x40 libc_pic.a(stack_utils.pico)
                                 0x58 (size before relaxing)
 .eh_frame      0x000fbe48       0x38 libc_pic.a(kernel_utils.pico)
                                 0x50 (size before relaxing)
 .eh_frame      0x000fbe80       0x1c libc_pic.a(wait4.pico)
                                 0x34 (size before relaxing)
 .eh_frame      0x000fbe9c       0x3c libc_pic.a(chdir.pico)
                                 0x54 (size before relaxing)
 .eh_frame      0x000fbed8       0x1c libc_pic.a(wcslen.pico)
                                 0x34 (size before relaxing)
 .eh_frame      0x000fbef4       0x1c libc_pic.a(wcschr.pico)
                                 0x34 (size before relaxing)
 .eh_frame      0x000fbf10       0x38 libc_pic.a(strcoll.pico)
                                 0x50 (size before relaxing)
 .eh_frame      0x000fbf48       0x60 libc_pic.a(strtoumax.pico)
                                 0x78 (size before relaxing)
 .eh_frame      0x000fbfa8       0x20 libc_pic.a(reallocarr.pico)
                                 0x38 (size before relaxing)
 .eh_frame      0x000fbfc8      0x47c libc_pic.a(iswctype_mb.pico)
                                0x494 (size before relaxing)
 .eh_frame      0x000fc444      0x180 libc_pic.a(multibyte_c90.pico)
                                0x198 (size before relaxing)
 .eh_frame      0x000fc5c4       0x20 libc_pic.a(vwarnc.pico)
                                 0x38 (size before relaxing)
 .eh_frame      0x000fc5e4       0x20 libc_pic.a(vwarnx.pico)
                                 0x38 (size before relaxing)
 .eh_frame      0x000fc604       0x20 libc_pic.a(sysctlbyname.pico)
                                 0x38 (size before relaxing)
 .eh_frame      0x000fc624       0x80 libc_pic.a(opendir.pico)
                                 0x98 (size before relaxing)
 .eh_frame      0x000fc6a4       0x40 libc_pic.a(initdir.pico)
                                 0x58 (size before relaxing)
 .eh_frame      0x000fc6e4       0x1c libc_pic.a(alphasort.pico)
                                 0x34 (size before relaxing)
 .eh_frame      0x000fc700       0x40 libc_pic.a(strtord.pico)
                                 0x58 (size before relaxing)
 .eh_frame      0x000fc740       0x1c libc_pic.a(ulp.pico)
                                 0x34 (size before relaxing)
 .eh_frame      0x000fc75c       0x1c libc_pic.a(strtopx.pico)
                                 0x34 (size before relaxing)
 .eh_frame      0x000fc778       0x20 libc_pic.a(merge.pico)
                                 0x38 (size before relaxing)
 .eh_frame      0x000fc798       0x60 libc_pic.a(telldir.pico)
                                 0x78 (size before relaxing)
 .eh_frame      0x000fc7f8       0x5c libc_pic.a(readdir.pico)
                                 0x74 (size before relaxing)
 .eh_frame      0x000fc854       0x1c libc_pic.a(getdents.pico)
                                 0x34 (size before relaxing)
 .eh_frame      0x000fc870       0x9c libc_pic.a(_ucontext.pico)
                                 0xb4 (size before relaxing)
 .eh_frame      0x000fc90c       0x38 libc_pic.a(_mcontext.pico)
                                 0x50 (size before relaxing)
 .eh_frame      0x000fc944       0x20 libc_pic.a(socket.pico)
                                 0x38 (size before relaxing)
 .eh_frame      0x000fc964       0x20 libc_pic.a(bind.pico)
                                 0x38 (size before relaxing)
 .eh_frame      0x000fc984       0x20 libc_pic.a(mknod.pico)
                                 0x38 (size before relaxing)
 .eh_frame      0x000fc9a4       0x80 libc_pic.a(vectorio.pico)
                                 0x98 (size before relaxing)
 .eh_frame      0x000fca24       0x20 libc_pic.a(sendto.pico)
                                 0x38 (size before relaxing)
 .eh_frame      0x000fca44       0x20 libc_pic.a(ioctl.pico)
                                 0x38 (size before relaxing)
 .eh_frame      0x000fca64       0xc0 libc_pic.a(strftime.pico)
                                 0xd8 (size before relaxing)
 .eh_frame      0x000fcb24      0x1ac libc_pic.a(malloc.pico)
                                0x1c4 (size before relaxing)
 .eh_frame      0x000fccd0       0x20 libc_pic.a(readlink.pico)
                                 0x38 (size before relaxing)
 .eh_frame      0x000fccf0       0x1c libc_pic.a(getuid.pico)
                                 0x34 (size before relaxing)
 .eh_frame      0x000fcd0c       0x1c libc_pic.a(getgid.pico)
                                 0x34 (size before relaxing)
 .eh_frame      0x000fcd28       0x20 libc_pic.a(sbrk.pico)
                                 0x38 (size before relaxing)
 .eh_frame      0x000fcd48       0x20 libc_pic.a(brk.pico)
                                 0x38 (size before relaxing)
 .eh_frame      0x000fcd68       0x20 libc_pic.a(wsetup.pico)
                                 0x38 (size before relaxing)
 .eh_frame      0x000fcd88       0x20 libc_pic.a(fwalk.pico)
                                 0x38 (size before relaxing)
 .eh_frame      0x000fcda8       0xa0 libc_pic.a(res_send.pico)
                                 0xb8 (size before relaxing)
 .eh_frame      0x000fce48       0x20 libc_pic.a(recvfrom.pico)
                                 0x38 (size before relaxing)
 .eh_frame      0x000fce68       0x20 libc_pic.a(getpeername.pico)
                                 0x38 (size before relaxing)
 .eh_frame      0x000fce88       0x40 libc_pic.a(getnameinfo.pico)
                                 0x58 (size before relaxing)
 .eh_frame      0x000fcec8       0x20 libc_pic.a(getservbyport_r.pico)
                                 0x38 (size before relaxing)
 .eh_frame      0x000fcee8       0x1c libc_pic.a(ev_streams.pico)
                                 0x34 (size before relaxing)
 .eh_frame      0x000fcf04       0xf4 libc_pic.a(ev_timers.pico)
                                0x10c (size before relaxing)
 .eh_frame      0x000fcff8       0x78 libc_pic.a(assert.pico)
                                 0x90 (size before relaxing)
 .eh_frame      0x000fd070       0x1c libc_pic.a(clock_gettime.pico)
                                 0x34 (size before relaxing)
 .eh_frame      0x000fd08c       0x20 libc_pic.a(if_indextoname.pico)
                                 0x38 (size before relaxing)
 .eh_frame      0x000fd0ac       0x80 libc_pic.a(res_query.pico)
                                 0x98 (size before relaxing)
 .eh_frame      0x000fd12c       0x60 libc_pic.a(res_mkquery.pico)
                                 0x78 (size before relaxing)
 .eh_frame      0x000fd18c      0x170 libc_pic.a(res_init.pico)
                                0x188 (size before relaxing)
 .eh_frame      0x000fd2fc       0x20 libc_pic.a(puts.pico)
                                 0x38 (size before relaxing)
 .eh_frame      0x000fd31c      0x17c libc_pic.a(getaddrinfo.pico)
                                0x194 (size before relaxing)
 .eh_frame      0x000fd498       0x20 libc_pic.a(getservbyname_r.pico)
                                 0x38 (size before relaxing)
 .eh_frame      0x000fd4b8       0x7c libc_pic.a(md5c.pico)
                                 0x94 (size before relaxing)
 .eh_frame      0x000fd534       0x3c libc_pic.a(inet_addr.pico)
                                 0x54 (size before relaxing)
 .eh_frame      0x000fd570       0x78 libc_pic.a(vasprintf.pico)
                                 0x90 (size before relaxing)
 .eh_frame      0x000fd5e8       0x20 libc_pic.a(fgets.pico)
                                 0x38 (size before relaxing)
 .eh_frame      0x000fd608       0x20 libc_pic.a(if_nametoindex.pico)
                                 0x38 (size before relaxing)
 .eh_frame      0x000fd628      0x100 libc_pic.a(getservent_r.pico)
                                0x118 (size before relaxing)
 .eh_frame      0x000fd728       0x3c libc_pic.a(getifaddrs.pico)
                                 0x54 (size before relaxing)
 .eh_frame      0x000fd764       0xd8 libc_pic.a(cdbr.pico)
                                 0xf0 (size before relaxing)
 .eh_frame      0x000fd83c       0x20 libc_pic.a(mi_vector_hash.pico)
                                 0x38 (size before relaxing)
 .eh_frame      0x000fd85c       0x1c libc_pic.a(atoi.pico)
                                 0x34 (size before relaxing)
 .eh_frame      0x000fd878      0x300 libc_pic.a(res_debug.pico)
                                0x318 (size before relaxing)
 .eh_frame      0x000fdb78       0x40 libc_pic.a(strerror.pico)
                                 0x58 (size before relaxing)
 .eh_frame      0x000fdbb8       0x60 libc_pic.a(strtoul.pico)
                                 0x78 (size before relaxing)
 .eh_frame      0x000fdc18       0x20 libc_pic.a(fputs.pico)
                                 0x38 (size before relaxing)
 .eh_frame      0x000fdc38       0x20 libc_pic.a(fputc.pico)
                                 0x38 (size before relaxing)
 .eh_frame      0x000fdc58       0x80 libc_pic.a(ns_print.pico)
                                 0x98 (size before relaxing)
 .eh_frame      0x000fdcd8       0x9c libc_pic.a(ns_parse.pico)
                                 0xb4 (size before relaxing)
 .eh_frame      0x000fdd74       0x40 libc_pic.a(base64.pico)
                                 0x58 (size before relaxing)
 .eh_frame      0x000fddb4       0x40 libc_pic.a(nsap_addr.pico)
                                 0x58 (size before relaxing)
 .eh_frame      0x000fddf4       0x20 libc_pic.a(inet_ntop.pico)
                                 0x38 (size before relaxing)
 .eh_frame      0x000fde14       0x54 libc_pic.a(mtctxres.pico)
                                 0x6c (size before relaxing)
 .eh_frame      0x000fde68       0x20 libc_pic.a(ns_ttl.pico)
                                 0x38 (size before relaxing)
 .eh_frame      0x000fde88       0x40 libc_pic.a(ns_samedomain.pico)
                                 0x58 (size before relaxing)
 .eh_frame      0x000fdec8       0xdc libc_pic.a(sethostent.pico)
                                 0xf4 (size before relaxing)
 .eh_frame      0x000fdfa4       0x20 libc_pic.a(rewind.pico)
                                 0x38 (size before relaxing)
 .eh_frame      0x000fdfc4       0x20 libc_pic.a(fseek.pico)
                                 0x38 (size before relaxing)
 .eh_frame      0x000fdfe4      0x1ec libc_pic.a(res_data.pico)
                                0x204 (size before relaxing)
 .eh_frame      0x000fe1d0       0x38 libc_pic.a(h_errno.pico)
                                 0x50 (size before relaxing)
 .eh_frame      0x000fe208      0x19c libc_pic.a(gethnamaddr.pico)
                                0x1b4 (size before relaxing)
 .eh_frame      0x000fe3a4       0x40 libc_pic.a(inet_pton.pico)
                                 0x58 (size before relaxing)
 .eh_frame      0x000fe3e4       0x20 libc_pic.a(fseeko.pico)
                                 0x38 (size before relaxing)
 .eh_frame      0x000fe404       0x20 libc_pic.a(fparseln.pico)
                                 0x38 (size before relaxing)
 .eh_frame      0x000fe424       0x1c libc_pic.a(fgetln.pico)
                                 0x34 (size before relaxing)
 .eh_frame      0x000fe440       0x38 libc_pic.a(res_compat.pico)
                                 0x50 (size before relaxing)
 .eh_frame      0x000fe478      0x148 libc_pic.a(res_comp.pico)
                                0x160 (size before relaxing)
 .eh_frame      0x000fe5c0       0x70 libc_pic.a(ns_netint.pico)
                                 0x88 (size before relaxing)
 .eh_frame      0x000fe630      0x1f8 libc_pic.a(ns_name.pico)
                                0x210 (size before relaxing)
 .eh_frame      0x000fe828       0x20 libc_pic.a(strncasecmp.pico)
                                 0x38 (size before relaxing)
 .eh_frame      0x000fe848       0x60 libc_pic.a(strtol.pico)
                                 0x78 (size before relaxing)
 .eh_frame      0x000fe8a8       0x80 libc_pic.a(vsprintf.pico)
                                 0x98 (size before relaxing)
 .eh_frame      0x000fe928       0x20 libc_pic.a(fgetstr.pico)
                                 0x38 (size before relaxing)
 .eh_frame      0x000fe948       0x3c libc_pic.a(getdelim.pico)
                                 0x54 (size before relaxing)
 .eh_frame      0x000fe984       0x60 libc_pic.a(nsparser.pico)
                                 0x78 (size before relaxing)
 .eh_frame      0x000fe9e4      0x35c libc_pic.a(nslexer.pico)
                                0x374 (size before relaxing)
 .eh_frame      0x000fed40       0xd8 libc_pic.a(nsdispatch.pico)
                                 0xf0 (size before relaxing)
 .eh_frame      0x000fee18      0x248 libc_pic.a(syslog.pico)
                                0x260 (size before relaxing)
 .eh_frame      0x000ff060       0x1c libc_pic.a(getprogname.pico)
                                 0x34 (size before relaxing)
 .eh_frame      0x000ff07c       0x1c libc_pic.a(gethostname.pico)
                                 0x34 (size before relaxing)
 .eh_frame      0x000ff098       0x20 libc_pic.a(connect.pico)
                                 0x38 (size before relaxing)
 .eh_frame      0x000ff0b8      0x4b8 libc_pic.a(localtime.pico)
                                0x4d0 (size before relaxing)
 .eh_frame      0x000ff570       0x3c libc_pic.a(asctime.pico)
                                 0x54 (size before relaxing)
 .eh_frame      0x000ff5ac       0x40 libc_pic.a(strerror_r.pico)
                                 0x58 (size before relaxing)
 .eh_frame      0x000ff5ec       0x20 libc_pic.a(strcasecmp.pico)
                                 0x38 (size before relaxing)
 .eh_frame      0x000ff60c       0x20 libc_pic.a(exit.pico)
                                 0x38 (size before relaxing)
 .eh_frame      0x000ff62c       0x20 libc_pic.a(bsearch.pico)
                                 0x38 (size before relaxing)
 .eh_frame      0x000ff64c       0x7c libc_pic.a(atexit.pico)
                                 0x94 (size before relaxing)
 .eh_frame      0x000ff6c8       0x20 libc_pic.a(snprintf_ss.pico)
                                 0x38 (size before relaxing)
 .eh_frame      0x000ff6e8       0x40 libc_pic.a(putchar.pico)
                                 0x58 (size before relaxing)
 .eh_frame      0x000ff728       0x38 libc_pic.a(printf.pico)
                                 0x50 (size before relaxing)
 .eh_frame      0x000ff760       0x20 libc_pic.a(fread.pico)
                                 0x38 (size before relaxing)
 .eh_frame      0x000ff780       0x3c libc_pic.a(fprintf.pico)
                                 0x54 (size before relaxing)
 .eh_frame      0x000ff7bc       0x20 libc_pic.a(fopen.pico)
                                 0x38 (size before relaxing)
 .eh_frame      0x000ff7dc       0x5c libc_pic.a(catopen.pico)
                                 0x74 (size before relaxing)
 .eh_frame      0x000ff838       0x20 libc_pic.a(catgets.pico)
                                 0x38 (size before relaxing)
 .eh_frame      0x000ff858       0x20 libc_pic.a(catclose.pico)
                                 0x38 (size before relaxing)
 .eh_frame      0x000ff878       0x20 libc_pic.a(send.pico)
                                 0x38 (size before relaxing)
 .eh_frame      0x000ff898       0x20 libc_pic.a(usleep.pico)
                                 0x38 (size before relaxing)
 .eh_frame      0x000ff8b8       0x20 libc_pic.a(nanosleep.pico)
                                 0x38 (size before relaxing)
 .eh_frame      0x000ff8d8       0x1c libc_pic.a(gettimeofday.pico)
                                 0x34 (size before relaxing)
 .eh_frame      0x000ff8f4       0x20 libc_pic.a(access.pico)
                                 0x38 (size before relaxing)
 .eh_frame      0x000ff914       0x20 libc_pic.a(wbuf.pico)
                                 0x38 (size before relaxing)
 .eh_frame      0x000ff934       0x20 libc_pic.a(vsnprintf_ss.pico)
                                 0x38 (size before relaxing)
 .eh_frame      0x000ff954       0x20 libc_pic.a(select.pico)
                                 0x38 (size before relaxing)
 .eh_frame      0x000ff974       0x20 libc_pic.a(dummy_lc_collate.pico)
                                 0x38 (size before relaxing)
 .eh_frame      0x000ff994       0x20 libc_pic.a(generic_lc_all.pico)
                                 0x38 (size before relaxing)
 .eh_frame      0x000ff9b4       0x9c libc_pic.a(setlocale.pico)
                                 0xb4 (size before relaxing)
 .eh_frame      0x000ffa50       0x40 libc_pic.a(citrus_lc_messages.pico)
                                 0x58 (size before relaxing)
 .eh_frame      0x000ffa90       0x60 libc_pic.a(citrus_lc_time.pico)
                                 0x78 (size before relaxing)
 .eh_frame      0x000ffaf0       0x40 libc_pic.a(citrus_lc_numeric.pico)
                                 0x58 (size before relaxing)
 .eh_frame      0x000ffb30       0x40 libc_pic.a(citrus_lc_monetary.pico)
                                 0x58 (size before relaxing)
 .eh_frame      0x000ffb70       0x40 libc_pic.a(citrus_lc_ctype.pico)
                                 0x58 (size before relaxing)
 .eh_frame      0x000ffbb0      0x1cc libc_pic.a(citrus_lookup.pico)
                                0x1e4 (size before relaxing)
 .eh_frame      0x000ffd7c       0x20 libc_pic.a(citrus_db_hash.pico)
                                 0x38 (size before relaxing)
 .eh_frame      0x000ffd9c      0x138 libc_pic.a(citrus_db.pico)
                                0x150 (size before relaxing)
 .eh_frame      0x000ffed4       0x20 libc_pic.a(citrus_bcs_strtol.pico)
                                 0x38 (size before relaxing)
 .eh_frame      0x000ffef4       0x20 libc_pic.a(strndup.pico)
                                 0x38 (size before relaxing)
 .eh_frame      0x000fff14       0x20 libc_pic.a(rune.pico)
                                 0x38 (size before relaxing)
 .eh_frame      0x000fff34       0x40 libc_pic.a(_wctype.pico)
                                 0x58 (size before relaxing)
 .eh_frame      0x000fff74       0x20 libc_pic.a(_wctrans.pico)
                                 0x38 (size before relaxing)
 .eh_frame      0x000fff94       0x20 libc_pic.a(fix_grouping.pico)
                                 0x38 (size before relaxing)
 .eh_frame      0x000fffb4       0x40 libc_pic.a(citrus_mmap.pico)
                                 0x58 (size before relaxing)
 .eh_frame      0x000ffff4       0x80 libc_pic.a(citrus_memstream.pico)
                                 0x98 (size before relaxing)
 .eh_frame      0x00100074      0x110 libc_pic.a(citrus_bcs.pico)
                                0x128 (size before relaxing)
 .eh_frame      0x00100184       0x9c libc_pic.a(strtodg.pico)
                                 0xb4 (size before relaxing)
 .eh_frame      0x00100220       0x20 libc_pic.a(sum.pico)
                                 0x38 (size before relaxing)
 .eh_frame      0x00100240       0x20 libc_pic.a(hexnan.pico)
                                 0x38 (size before relaxing)
 .eh_frame      0x00100260       0x20 libc_pic.a(gethex.pico)
                                 0x38 (size before relaxing)
 .eh_frame      0x00100280       0xa0 libc_pic.a(smisc.pico)
                                 0xb8 (size before relaxing)
 .eh_frame      0x00100320       0x1c libc_pic.a(hd_init.pico)
                                 0x34 (size before relaxing)
 .eh_frame      0x0010033c       0x40 libc_pic.a(rec_put.pico)
                                 0x58 (size before relaxing)
 .eh_frame      0x0010037c       0x40 libc_pic.a(rec_open.pico)
                                 0x58 (size before relaxing)
 .eh_frame      0x001003bc       0x20 libc_pic.a(fdopen.pico)
                                 0x38 (size before relaxing)
 .eh_frame      0x001003dc       0x20 libc_pic.a(rec_seq.pico)
                                 0x38 (size before relaxing)
 .eh_frame      0x001003fc       0xa0 libc_pic.a(rec_get.pico)
                                 0xb8 (size before relaxing)
 .eh_frame      0x0010049c       0x40 libc_pic.a(rec_delete.pico)
                                 0x58 (size before relaxing)
 .eh_frame      0x001004dc       0x40 libc_pic.a(rec_close.pico)
                                 0x58 (size before relaxing)
 .eh_frame      0x0010051c      0x104 libc_pic.a(mmap.pico)
                                0x11c (size before relaxing)
 .eh_frame      0x00100620       0x1c libc_pic.a(ftruncate.pico)
                                 0x34 (size before relaxing)
 .eh_frame      0x0010063c       0x20 libc_pic.a(rget.pico)
                                 0x38 (size before relaxing)
 .eh_frame      0x0010065c       0x3c libc_pic.a(refill.pico)
                                 0x54 (size before relaxing)
 .eh_frame      0x00100698       0x40 libc_pic.a(makebuf.pico)
                                 0x58 (size before relaxing)
 .eh_frame      0x001006d8       0x20 libc_pic.a(flags.pico)
                                 0x38 (size before relaxing)
 .eh_frame      0x001006f8       0x20 libc_pic.a(fclose.pico)
                                 0x38 (size before relaxing)
 .eh_frame      0x00100718       0x1c libc_pic.a(isatty.pico)
                                 0x34 (size before relaxing)
 .eh_frame      0x00100734       0x20 libc_pic.a(rec_utils.pico)
                                 0x38 (size before relaxing)
 .eh_frame      0x00100754       0x20 libc_pic.a(rec_search.pico)
                                 0x38 (size before relaxing)
 .eh_frame      0x00100774       0x1c libc_pic.a(tcgetattr.pico)
                                 0x34 (size before relaxing)
 .eh_frame      0x00100790       0x60 libc_pic.a(strtoi.pico)
                                 0x78 (size before relaxing)
 .eh_frame      0x001007f0       0x80 libc_pic.a(vsnprintf.pico)
                                 0x98 (size before relaxing)
 .eh_frame      0x00100870       0x98 libc_pic.a(vfprintf.pico)
                                 0xb0 (size before relaxing)
 .eh_frame      0x00100908      0x25c libc_pic.a(multibyte_amd1.pico)
                                0x274 (size before relaxing)
 .eh_frame      0x00100b64       0x38 libc_pic.a(localeconv.pico)
                                 0x50 (size before relaxing)
 .eh_frame      0x00100b9c       0x60 libc_pic.a(hdtoa.pico)
                                 0x78 (size before relaxing)
 .eh_frame      0x00100bfc       0x20 libc_pic.a(ldtoa.pico)
                                 0x38 (size before relaxing)
 .eh_frame      0x00100c1c       0x20 libc_pic.a(dtoa.pico)
                                 0x38 (size before relaxing)
 .eh_frame      0x00100c3c       0x20 libc_pic.a(strdup.pico)
                                 0x38 (size before relaxing)
 .eh_frame      0x00100c5c       0x1c libc_pic.a(fpclassifyl.pico)
                                 0x34 (size before relaxing)
 .eh_frame      0x00100c78       0x20 libc_pic.a(fpclassifyd_ieee754.pico)
                                 0x38 (size before relaxing)
 .eh_frame      0x00100c98       0x20 libc_pic.a(gdtoa.pico)
                                 0x38 (size before relaxing)
 .eh_frame      0x00100cb8       0x40 libc_pic.a(gmisc.pico)
                                 0x58 (size before relaxing)
 .eh_frame      0x00100cf8       0x80 libc_pic.a(dmisc.pico)
                                 0x98 (size before relaxing)
 .eh_frame      0x00100d78      0x1b0 libc_pic.a(misc.pico)
                                0x1c8 (size before relaxing)
 .eh_frame      0x00100f28      0x100 libc_pic.a(hash_page.pico)
                                0x118 (size before relaxing)
 .eh_frame      0x00101028      0x120 libc_pic.a(hash_bigkey.pico)
                                0x138 (size before relaxing)
 .eh_frame      0x00101148       0x58 libc_pic.a(db.pico)
                                 0x70 (size before relaxing)
 .eh_frame      0x001011a0      0x1bc libc_pic.a(hash.pico)
                                0x1d4 (size before relaxing)
 .eh_frame      0x0010135c       0x40 libc_pic.a(bt_open.pico)
                                 0x58 (size before relaxing)
 .eh_frame      0x0010139c       0x20 libc_pic.a(bt_get.pico)
                                 0x38 (size before relaxing)
 .eh_frame      0x001013bc       0x40 libc_pic.a(bt_conv.pico)
                                 0x58 (size before relaxing)
 .eh_frame      0x001013fc       0x40 libc_pic.a(bt_close.pico)
                                 0x58 (size before relaxing)
 .eh_frame      0x0010143c       0x1c libc_pic.a(hash_log2.pico)
                                 0x34 (size before relaxing)
 .eh_frame      0x00101458       0x20 libc_pic.a(hash_func.pico)
                                 0x38 (size before relaxing)
 .eh_frame      0x00101478       0x78 libc_pic.a(hash_buf.pico)
                                 0x90 (size before relaxing)
 .eh_frame      0x001014f0       0x40 libc_pic.a(dbfile.pico)
                                 0x58 (size before relaxing)
 .eh_frame      0x00101530       0x20 libc_pic.a(bt_put.pico)
                                 0x38 (size before relaxing)
 .eh_frame      0x00101550       0x80 libc_pic.a(bt_delete.pico)
                                 0x98 (size before relaxing)
 .eh_frame      0x001015d0       0x20 libc_pic.a(unlink.pico)
                                 0x38 (size before relaxing)
 .eh_frame      0x001015f0       0x1c libc_pic.a(issetugid.pico)
                                 0x34 (size before relaxing)
 .eh_frame      0x0010160c       0x20 libc_pic.a(fcntl.pico)
                                 0x38 (size before relaxing)
 .eh_frame      0x0010162c       0x40 libc_pic.a(getenv.pico)
                                 0x58 (size before relaxing)
 .eh_frame      0x0010166c      0x150 libc_pic.a(_env.pico)
                                0x168 (size before relaxing)
 .eh_frame      0x001017bc       0xfc libc_pic.a(rb.pico)
                                0x114 (size before relaxing)
 .eh_frame      0x001018b8       0xc0 libc_pic.a(bt_split.pico)
                                 0xd8 (size before relaxing)
 .eh_frame      0x00101978       0x60 libc_pic.a(bt_seq.pico)
                                 0x78 (size before relaxing)
 .eh_frame      0x001019d8       0x20 libc_pic.a(bt_search.pico)
                                 0x38 (size before relaxing)
 .eh_frame      0x001019f8       0x20 libc_pic.a(strcspn.pico)
                                 0x38 (size before relaxing)
 .eh_frame      0x00101a18       0x80 libc_pic.a(bt_utils.pico)
                                 0x98 (size before relaxing)
 .eh_frame      0x00101a98       0x60 libc_pic.a(bt_overflow.pico)
                                 0x78 (size before relaxing)
 .eh_frame      0x00101af8       0x3c libc_pic.a(bt_page.pico)
                                 0x54 (size before relaxing)
 .eh_frame      0x00101b34       0xf8 libc_pic.a(mpool.pico)
                                0x110 (size before relaxing)
 .eh_frame      0x00101c2c       0x20 libc_pic.a(pwrite.pico)
                                 0x38 (size before relaxing)
 .eh_frame      0x00101c4c       0x20 libc_pic.a(pread.pico)
                                 0x38 (size before relaxing)
 .eh_frame      0x00101c6c       0x1c libc_pic.a(fsync.pico)
                                 0x34 (size before relaxing)
 .eh_frame      0x00101c88       0x20 libc_pic.a(abort.pico)
                                 0x38 (size before relaxing)
 .eh_frame      0x00101ca8       0x20 libc_pic.a(fwrite.pico)
                                 0x38 (size before relaxing)
 .eh_frame      0x00101cc8       0x20 libc_pic.a(fvwrite.pico)
                                 0x38 (size before relaxing)
 .eh_frame      0x00101ce8       0x94 libc_pic.a(findfp.pico)
                                 0xac (size before relaxing)
 .eh_frame      0x00101d7c       0x40 libc_pic.a(fflush.pico)
                                 0x58 (size before relaxing)
 .eh_frame      0x00101dbc       0x20 libc_pic.a(sysconf.pico)
                                 0x38 (size before relaxing)
 .eh_frame      0x00101ddc       0x20 libc_pic.a(signal.pico)
                                 0x38 (size before relaxing)
 .eh_frame      0x00101dfc       0x20 libc_pic.a(raise.pico)
                                 0x38 (size before relaxing)
 .eh_frame      0x00101e1c       0x1c libc_pic.a(getpagesize.pico)
                                 0x34 (size before relaxing)
 .eh_frame      0x00101e38       0x1c libc_pic.a(_exit.pico)
                                 0x34 (size before relaxing)
 .eh_frame      0x00101e54       0x1c libc_pic.a(sigaction.pico)
                                 0x34 (size before relaxing)
 .eh_frame      0x00101e70       0x20 libc_pic.a(pathconf.pico)
                                 0x38 (size before relaxing)
 .eh_frame      0x00101e90       0x20 libc_pic.a(open.pico)
                                 0x38 (size before relaxing)
 .eh_frame      0x00101eb0       0x20 libc_pic.a(loadname.pico)
                                 0x38 (size before relaxing)
 .eh_frame      0x00101ed0       0x1c libc_pic.a(kill.pico)
                                 0x34 (size before relaxing)
 .eh_frame      0x00101eec       0x1c libc_pic.a(getrlimit.pico)
                                 0x34 (size before relaxing)
 .eh_frame      0x00101f08       0x1c libc_pic.a(getpid.pico)
                                 0x34 (size before relaxing)
 .eh_frame      0x00101f24       0x1c libc_pic.a(fpathconf.pico)
                                 0x34 (size before relaxing)
 .eh_frame      0x00101f40       0x7c libc_pic.a(stdio.pico)
                                 0x94 (size before relaxing)
 .eh_frame      0x00101fbc       0x7c libc_pic.a(sysctlgetmibinfo.pico)
                                 0x94 (size before relaxing)
 .eh_frame      0x00102038       0x20 libc_pic.a(sysctl.pico)
                                 0x38 (size before relaxing)
 .eh_frame      0x00102058       0x20 libc_pic.a(__sysctl.pico)
                                 0x38 (size before relaxing)
 .eh_frame      0x00102078       0x1c libc_pic.a(write.pico)
                                 0x34 (size before relaxing)
 .eh_frame      0x00102094       0x5c libc_pic.a(stat.pico)
                                 0x74 (size before relaxing)
 .eh_frame      0x001020f0       0x20 libc_pic.a(sigreturn.pico)
                                 0x38 (size before relaxing)
 .eh_frame      0x00102110       0x1c libc_pic.a(read.pico)
                                 0x34 (size before relaxing)
 .eh_frame      0x0010212c       0x20 libc_pic.a(lseek.pico)
                                 0x38 (size before relaxing)
 .eh_frame      0x0010214c       0x1c libc_pic.a(close.pico)
                                 0x34 (size before relaxing)
 .eh_frame      0x00102168       0x20 libc_pic.a(strpbrk.pico)
                                 0x38 (size before relaxing)
 .eh_frame      0x00102188       0x20 libc_pic.a(strncpy.pico)
                                 0x38 (size before relaxing)
 .eh_frame      0x001021a8       0x20 libc_pic.a(strlcpy.pico)
                                 0x38 (size before relaxing)
 .eh_frame      0x001021c8       0x20 libc_pic.a(strlcat.pico)
                                 0x38 (size before relaxing)
 .eh_frame      0x001021e8       0x60 libc_pic.a(strtoimax.pico)
                                 0x78 (size before relaxing)
 .eh_frame      0x00102248       0x20 libc_pic.a(qsort.pico)
                                 0x38 (size before relaxing)
 .eh_frame      0x00102268      0x348 libc_pic.a(isctype.pico)
                                0x360 (size before relaxing)
 .eh_frame      0x001025b0       0x1c libc_pic.a(sigprocmask.pico)
                                 0x34 (size before relaxing)
 .eh_frame      0x001025cc       0x38 libc_pic.a(citrus_ctype.pico)
                                 0x50 (size before relaxing)
 .eh_frame      0x00102604       0x20 libc_pic.a(syscall.pico)
                                 0x38 (size before relaxing)
 .eh_frame      0x00102624       0x1c libc_pic.a(_errno.pico)
                                 0x34 (size before relaxing)
 .eh_frame      0x00102640      0x310 libc_pic.a(citrus_none.pico)
                                0x328 (size before relaxing)
 .eh_frame      0x00102950       0x20 libc_pic.a(init.pico)
                                 0x38 (size before relaxing)
 .eh_frame      0x00102970        0x4 /usr/lib/crtendS.o

.note.netbsd.ident
                0x00102974       0x18
 .note.netbsd.ident
                0x00102974       0x18 /usr/lib/crti.o

.note.netbsd.pax
                0x0010298c       0x14
 .note.netbsd.pax
                0x0010298c       0x14 /usr/lib/crti.o

.gcc_except_table
 *(.gcc_except_table .gcc_except_table.*)

.exception_ranges
 *(.exception_ranges .exception_ranges*)
                0x001029a0                . = (ALIGN (0x1000) - ((0x1000 - .) & 0xfff))
                0x00103000                . = DATA_SEGMENT_ALIGN (0x1000, 0x1000)

.eh_frame
 *(.eh_frame)

.gcc_except_table
 *(.gcc_except_table .gcc_except_table.*)

.exception_ranges
 *(.exception_ranges .exception_ranges*)

.tdata
 *(.tdata .tdata.* .gnu.linkonce.td.*)

.tbss
 *(.tbss .tbss.* .gnu.linkonce.tb.*)
 *(.tcommon)

.preinit_array
 *(.preinit_array)

.init_array
 *(SORT(.init_array.*))
 *(.init_array)

.fini_array
 *(SORT(.fini_array.*))
 *(.fini_array)

.ctors          0x00103000       0x14
 *crtbegin.o(.ctors)
 *crtbegin?.o(.ctors)
 .ctors         0x00103000        0x4 /usr/lib/crtbeginS.o
 *(EXCLUDE_FILE(*crtend?.o *crtend.o) .ctors)
 .ctors         0x00103004        0x4 libc_pic.a(initfini.pico)
 .ctors         0x00103008        0x4 libc_pic.a(libunwind.pico)
 .ctors         0x0010300c        0x4 libc_pic.a(init.pico)
 *(SORT(.ctors.*))
 *(.ctors)
 .ctors         0x00103010        0x4 /usr/lib/crtendS.o
                0x00103010                __CTOR_LIST_END__

.dtors          0x00103014        0x8
 *crtbegin.o(.dtors)
 *crtbegin?.o(.dtors)
 .dtors         0x00103014        0x4 /usr/lib/crtbeginS.o
 *(EXCLUDE_FILE(*crtend?.o *crtend.o) .dtors)
 *(SORT(.dtors.*))
 *(.dtors)
 .dtors         0x00103018        0x4 /usr/lib/crtendS.o

.jcr            0x0010301c        0x4
 *(.jcr)
 .jcr           0x0010301c        0x0 /usr/lib/crtbeginS.o
 .jcr           0x0010301c        0x4 /usr/lib/crtendS.o

.data.rel.ro    0x00103020     0x3330
 *(.data.rel.ro.local* .gnu.linkonce.d.rel.ro.local.*)
 .data.rel.ro.local
                0x00103020       0x28 libc_pic.a(strptime.pico)
 .data.rel.ro.local
                0x00103048       0x10 libc_pic.a(system.pico)
 .data.rel.ro.local
                0x00103058       0xcc libc_pic.a(regerror.pico)
 .data.rel.ro.local
                0x00103124      0x39c libc_pic.a(regcomp.pico)
 .data.rel.ro.local
                0x001034c0       0x48 libc_pic.a(getnetnamadr.pico)
 .data.rel.ro.local
                0x00103508       0x10 libc_pic.a(assertions.pico)
 .data.rel.ro.local
                0x00103518       0x44 libc_pic.a(md2.pico)
 .data.rel.ro.local
                0x0010355c      0x100 libc_pic.a(signame.pico)
 .data.rel.ro.local
                0x0010365c       0x54 libc_pic.a(getusershell.pico)
 .data.rel.ro.local
                0x001036b0       0x1c libc_pic.a(fstab.pico)
 .data.rel.ro.local
                0x001036cc       0x28 libc_pic.a(fmtmsg.pico)
 .data.rel.ro.local
                0x001036f4       0x80 libc_pic.a(compat_signame.pico)
                0x001036f4                sys_signame
 .data.rel.ro.local
                0x00103774       0x80 libc_pic.a(compat_siglist.pico)
                0x00103774                _sys_siglist
                0x00103774                __sys_siglist
                0x00103774                sys_siglist
 .data.rel.ro.local
                0x001037f4      0x140 libc_pic.a(compat_errlist.pico)
                0x001037f4                __sys_errlist
                0x001037f4                _sys_errlist
                0x001037f4                sys_errlist
 .data.rel.ro.local._ZZN7_Unwind17LocalAddressSpaceC1EPFvRS0_jRjS2_EE14segmentTreeOps
                0x00103934       0x10 libc_pic.a(libunwind.pico)
                0x00103934                _Unwind::LocalAddressSpace::LocalAddressSpace(void (*)(_Unwind::LocalAddressSpace&, unsigned int, unsigned int&, unsigned int&))::segmentTreeOps
 .data.rel.ro.local._ZZN7_Unwind17LocalAddressSpaceC1EPFvRS0_jRjS2_EE10dsoTreeOps
                0x00103944       0x10 libc_pic.a(libunwind.pico)
                0x00103944                _Unwind::LocalAddressSpace::LocalAddressSpace(void (*)(_Unwind::LocalAddressSpace&, unsigned int, unsigned int&, unsigned int&))::dsoTreeOps
 .data.rel.ro.local
                0x00103954      0x100 libc_pic.a(siglist.pico)
 .data.rel.ro.local
                0x00103a54      0x1f8 libc_pic.a(getpwent.pico)
 .data.rel.ro.local
                0x00103c4c       0x88 libc_pic.a(getnetgrent.pico)
 .data.rel.ro.local
                0x00103cd4       0x24 libc_pic.a(getgroupmembership.pico)
 .data.rel.ro.local
                0x00103cf8      0x144 libc_pic.a(getgrent.pico)
 .data.rel.ro.local
                0x00103e3c        0x8 libc_pic.a(devname.pico)
 .data.rel.ro.local
                0x00103e44      0x198 libc_pic.a(getaddrinfo.pico)
 .data.rel.ro.local
                0x00103fdc      0x564 libc_pic.a(res_debug.pico)
                0x00103fdc                __p_class_syms
                0x0010403c                __p_default_section_syms
                0x00104078                __p_update_section_syms
                0x001040b4                __p_key_syms
                0x001040fc                __p_cert_syms
                0x00104144                __p_type_syms
                0x00104480                __p_rcode_syms
 .data.rel.ro.local
                0x00104540       0x18 libc_pic.a(gethnamaddr.pico)
 .data.rel.ro.local
                0x00104558       0x70 libc_pic.a(nsdispatch.pico)
                0x00104558                __nsdefaultsrc
                0x00104568                __nsdefaultcompat
                0x00104578                __nsdefaultcompat_forceall
                0x00104588                __nsdefaultfiles
                0x00104598                __nsdefaultfiles_forceall
                0x001045a8                __nsdefaultnis
                0x001045b8                __nsdefaultnis_forceall
 .data.rel.ro.local
                0x001045c8      0x368 libc_pic.a(errlist.pico)
 .data.rel.ro.local
                0x00104930      0x168 libc_pic.a(citrus_lc_time.pico)
 .data.rel.ro.local
                0x00104a98       0x78 libc_pic.a(citrus_lc_monetary.pico)
 .data.rel.ro.local
                0x00104b10       0x10 libc_pic.a(_env.pico)
 .data.rel.ro.local
                0x00104b20      0x7e0 libc_pic.a(sysctl.pico)
 .data.rel.ro.local
                0x00105300      0x240 libc_pic.a(global_locale.pico)
                0x00105300                _C_cache
                0x0010543c                _lc_C_locale
 *(.data.rel.ro .data.rel.ro.* .gnu.linkonce.d.rel.ro.*)
 .data.rel.ro   0x00105540       0x24 libc_pic.a(getgroupmembership.pico)
 .data.rel.ro   0x00105564       0xd8 libc_pic.a(getgrent.pico)
 .data.rel.ro   0x0010563c       0x48 libc_pic.a(gethnamaddr.pico)
 .data.rel.ro   0x00105684       0x1c libc_pic.a(setlocale.pico)
 .data.rel.ro   0x001056a0      0xcb0 libc_pic.a(runetable.pico)
                0x001056a0                _DefaultRuneLocale

.dynamic        0x00106350       0xb0
 *(.dynamic)
 .dynamic       0x00106350       0xb0 /usr/lib/crti.o
                0x00106350                _DYNAMIC

.got            0x00106400      0x2f4
 *(.got)
 .got           0x00106400      0x2f4 /usr/lib/crti.o
 *(.igot)
                0x001066f4                . = DATA_SEGMENT_RELRO_END (., (SIZEOF (.got.plt) >= 0xc)?0xc:0x0)

.got.plt        0x001066f4      0xcec
 *(.got.plt)
 .got.plt       0x001066f4      0xcec /usr/lib/crti.o
                0x001066f4                _GLOBAL_OFFSET_TABLE_
 *(.igot.plt)

.data           0x001073e0     0x1458
 *(.data .data.* .gnu.linkonce.d.*)
 .data          0x001073e0        0x0 /usr/lib/crti.o
 .data          0x001073e0        0x0 /usr/lib/crtbeginS.o
 .data.rel      0x001073e0       0x26 /usr/lib/crtbeginS.o
                0x001073e0                __dso_handle
 *fill*         0x00107406        0x2 
 .data          0x00107408        0x0 libc_pic.a(uuid_to_string.pico)
 .data          0x00107408        0x0 libc_pic.a(uuid_stream.pico)
 .data          0x00107408        0x0 libc_pic.a(uuid_hash.pico)
 .data          0x00107408        0x0 libc_pic.a(uuid_from_string.pico)
 .data          0x00107408        0x0 libc_pic.a(uuid_equal.pico)
 .data          0x00107408        0x0 libc_pic.a(uuid_create_nil.pico)
 .data          0x00107408        0x0 libc_pic.a(uuid_create.pico)
 .data          0x00107408        0x0 libc_pic.a(uuid_compare.pico)
 .data          0x00107408        0x0 libc_pic.a(_cpufeature.pico)
 .data          0x00107408        0x0 libc_pic.a(getprocessor.pico)
 .data          0x00107408        0x0 libc_pic.a(get_bp.pico)
 .data          0x00107408        0x0 libc_pic.a(_cpuid.pico)
 .data          0x00107408        0x0 libc_pic.a(sprofile.pico)
 .data          0x00107408        0x0 libc_pic.a(sizeup.pico)
 .data          0x00107408        0x0 libc_pic.a(futimens.pico)
 .data          0x00107408        0x0 libc_pic.a(truncate.pico)
 .data          0x00107408        0x0 libc_pic.a(sync.pico)
 .data          0x00107408        0x0 libc_pic.a(symlink.pico)
 .data          0x00107408        0x0 libc_pic.a(svrctl.pico)
 .data          0x00107408        0x0 libc_pic.a(statvfs.pico)
 .data          0x00107408        0x0 libc_pic.a(sigpending.pico)
 .data          0x00107408        0x0 libc_pic.a(shutdown.pico)
 .data          0x00107408        0x0 libc_pic.a(stime.pico)
 .data          0x00107408        0x0 libc_pic.a(shmget.pico)
 .data          0x00107408        0x0 libc_pic.a(shmat.pico)
 .data          0x00107408        0x0 libc_pic.a(sendmsg.pico)
 .data          0x00107408        0x0 libc_pic.a(sem.pico)
 .data          0x00107408        0x0 libc_pic.a(rename.pico)
 .data          0x00107408        0x0 libc_pic.a(recvmsg.pico)
 .data          0x00107408        0x0 libc_pic.a(reboot.pico)
 .data          0x00107408        0x0 libc_pic.a(ptrace.pico)
 .data          0x00107408       0x1c libc_pic.a(mount.pico)
 .data          0x00107424        0x0 libc_pic.a(mkfifo.pico)
 .data          0x00107424        0x0 libc_pic.a(link.pico)
 .data          0x00107424        0x0 libc_pic.a(setsockopt.pico)
 .data          0x00107424        0x0 libc_pic.a(getsockname.pico)
 .data          0x00107424        0x0 libc_pic.a(getppid.pico)
 .data          0x00107424        0x0 libc_pic.a(getpgrp.pico)
 .data          0x00107424        0x0 libc_pic.a(getgroups.pico)
 .data          0x00107424        0x0 libc_pic.a(gcov_flush_sys.pico)
 .data          0x00107424        0x0 libc_pic.a(fstatfs.pico)
 .data          0x00107424        0x0 libc_pic.a(flock.pico)
 .data          0x00107424        0x0 libc_pic.a(dup.pico)
 .data          0x00107424        0x0 libc_pic.a(chroot.pico)
 .data          0x00107424        0x0 libc_pic.a(fchown.pico)
 .data          0x00107424        0x0 libc_pic.a(fchmod.pico)
 .data          0x00107424        0x0 libc_pic.a(getsid.pico)
 .data          0x00107424        0x0 libc_pic.a(m_closefrom.pico)
 .data          0x00107424        0x8 libc_pic.a(strptime.pico)
 .data          0x0010742c        0x0 libc_pic.a(getdate.pico)
 .data          0x0010742c        0x0 libc_pic.a(difftime.pico)
 .data          0x0010742c        0x0 libc_pic.a(thread-stub-init.pico)
 .data          0x0010742c        0x0 libc_pic.a(thread-stub.pico)
 .data          0x0010742c        0x0 libc_pic.a(__isthreaded.pico)
 .data          0x0010742c        0x0 libc_pic.a(tcsetpgrp.pico)
 .data          0x0010742c        0x0 libc_pic.a(tcsendbreak.pico)
 .data          0x0010742c        0x0 libc_pic.a(tcgetpgrp.pico)
 .data          0x0010742c        0x0 libc_pic.a(tcflush.pico)
 .data          0x0010742c        0x0 libc_pic.a(tcflow.pico)
 .data          0x0010742c        0x0 libc_pic.a(tcdrain.pico)
 .data          0x0010742c        0x0 libc_pic.a(cfsetspeed.pico)
 .data          0x0010742c        0x0 libc_pic.a(cfsetospeed.pico)
 .data          0x0010742c        0x0 libc_pic.a(cfsetispeed.pico)
 .data          0x0010742c        0x0 libc_pic.a(cfmakeraw.pico)
 .data          0x0010742c        0x0 libc_pic.a(cfgetospeed.pico)
 .data          0x0010742c        0x0 libc_pic.a(cfgetispeed.pico)
 .data          0x0010742c        0x0 libc_pic.a(swab.pico)
 .data          0x0010742c        0x0 libc_pic.a(ffs.pico)
 .data          0x0010742c        0x0 libc_pic.a(bzero.pico)
 .data          0x0010742c        0x0 libc_pic.a(bcopy.pico)
 .data          0x0010742c        0x0 libc_pic.a(bcmp.pico)
 .data          0x0010742c        0x0 libc_pic.a(wmemmove.pico)
 .data          0x0010742c        0x0 libc_pic.a(wmemcmp.pico)
 .data          0x0010742c        0x0 libc_pic.a(wcswcs.pico)
 .data          0x0010742c        0x0 libc_pic.a(wcstok.pico)
 .data          0x0010742c        0x0 libc_pic.a(wcsstr.pico)
 .data          0x0010742c        0x0 libc_pic.a(wcsspn.pico)
 .data          0x0010742c        0x0 libc_pic.a(wcsrchr.pico)
 .data          0x0010742c        0x0 libc_pic.a(wcspbrk.pico)
 .data          0x0010742c        0x0 libc_pic.a(wcsncpy.pico)
 .data          0x0010742c        0x0 libc_pic.a(wcsncmp.pico)
 .data          0x0010742c        0x0 libc_pic.a(wcsncasecmp.pico)
 .data          0x0010742c        0x0 libc_pic.a(wcsdup.pico)
 .data          0x0010742c        0x0 libc_pic.a(wcscasecmp.pico)
 .data          0x0010742c        0x0 libc_pic.a(wcsncat.pico)
 .data          0x0010742c        0x0 libc_pic.a(wcslcpy.pico)
 .data          0x0010742c        0x0 libc_pic.a(wcslcat.pico)
 .data          0x0010742c        0x0 libc_pic.a(wcscspn.pico)
 .data          0x0010742c        0x0 libc_pic.a(wcscat.pico)
 .data          0x0010742c        0x0 libc_pic.a(popcount64.pico)
 .data          0x0010742c        0x0 libc_pic.a(popcount32.pico)
 .data          0x0010742c        0x0 libc_pic.a(memmem.pico)
 .data          0x0010742c        0x0 libc_pic.a(memccpy.pico)
 .data          0x0010742c        0x0 libc_pic.a(consttime_memequal.pico)
 .data          0x0010742c        0x0 libc_pic.a(strnstr.pico)
 .data          0x0010742c        0x0 libc_pic.a(strspn.pico)
 .data          0x0010742c        0x0 libc_pic.a(memrchr.pico)
 .data          0x0010742c        0x0 libc_pic.a(strxfrm.pico)
 .data          0x0010742c        0x0 libc_pic.a(strtok.pico)
 .data          0x0010742c        0x0 libc_pic.a(strsignal.pico)
 .data          0x0010742c        0x0 libc_pic.a(strmode.pico)
 .data          0x0010742c        0x0 libc_pic.a(strnlen.pico)
 .data          0x0010742c        0x0 libc_pic.a(strcasestr.pico)
 .data          0x0010742c        0x0 libc_pic.a(stpcpy.pico)
 .data          0x0010742c        0x0 libc_pic.a(bm.pico)
 .data          0x0010742c        0x0 libc_pic.a(llabs.pico)
 .data          0x0010742c        0x0 libc_pic.a(ldiv.pico)
 .data          0x0010742c        0x0 libc_pic.a(labs.pico)
 .data          0x0010742c        0x0 libc_pic.a(div.pico)
 .data          0x0010742c        0x0 libc_pic.a(abs.pico)
 .data          0x0010742c        0x0 libc_pic.a(mtab.pico)
 .data.rel.local
                0x0010742c        0x8 libc_pic.a(mtab.pico)
                0x0010742c                etc_mtab
 .data          0x00107434       0x17 libc_pic.a(configfile.pico)
 *fill*         0x0010744b        0x1 
 .data          0x0010744c        0x0 libc_pic.a(strfmon.pico)
 .data          0x0010744c        0x0 libc_pic.a(unsetenv.pico)
 .data          0x0010744c        0x0 libc_pic.a(twalk.pico)
 .data          0x0010744c        0x0 libc_pic.a(tsearch.pico)
 .data          0x0010744c        0x0 libc_pic.a(tfind.pico)
 .data          0x0010744c        0x0 libc_pic.a(tdelete.pico)
 .data          0x0010744c        0x0 libc_pic.a(system.pico)
 .data          0x0010744c        0x0 libc_pic.a(strtouq.pico)
 .data          0x0010744c        0x0 libc_pic.a(strtoull.pico)
 .data          0x0010744c        0x0 libc_pic.a(strtoq.pico)
 .data          0x0010744c        0x0 libc_pic.a(strtonum.pico)
 .data          0x0010744c        0x0 libc_pic.a(strtou.pico)
 .data          0x0010744c        0x0 libc_pic.a(strsuftoll.pico)
 .data          0x0010744c        0x0 libc_pic.a(srand48.pico)
 .data          0x0010744c        0x0 libc_pic.a(seed48.pico)
 .data          0x0010744c        0x0 libc_pic.a(reallocarray.pico)
 .data          0x0010744c        0x0 libc_pic.a(remque.pico)
 .data          0x0010744c        0x0 libc_pic.a(rand_r.pico)
 .data          0x0010744c        0x4 libc_pic.a(rand.pico)
 .data          0x00107450        0x0 libc_pic.a(radixsort.pico)
 .data          0x00107450        0x0 libc_pic.a(quick_exit.pico)
 .data          0x00107450        0x0 libc_pic.a(pty.pico)
 .data          0x00107450        0x0 libc_pic.a(posix_openpt.pico)
 .data          0x00107450        0x0 libc_pic.a(qdiv.pico)
 .data          0x00107450        0x0 libc_pic.a(qabs.pico)
 .data          0x00107450        0x0 libc_pic.a(putenv.pico)
 .data          0x00107450        0x0 libc_pic.a(nrand48.pico)
 .data          0x00107450        0x0 libc_pic.a(mrand48.pico)
 .data          0x00107450        0x0 libc_pic.a(lsearch.pico)
 .data          0x00107450        0x0 libc_pic.a(lrand48.pico)
 .data          0x00107450        0x0 libc_pic.a(lcong48.pico)
 .data          0x00107450        0x0 libc_pic.a(lldiv.pico)
 .data          0x00107450        0x0 libc_pic.a(l64a.pico)
 .data          0x00107450        0x0 libc_pic.a(jrand48.pico)
 .data          0x00107450        0x0 libc_pic.a(insque.pico)
 .data          0x00107450        0x0 libc_pic.a(imaxdiv.pico)
 .data          0x00107450        0x0 libc_pic.a(heapsort.pico)
 .data          0x00107450        0x0 libc_pic.a(hcreate.pico)
 .data          0x00107450        0x0 libc_pic.a(getsubopt.pico)
 .data          0x00107450        0x8 libc_pic.a(getopt_long.pico)
 .data.rel.local
                0x00107458        0x4 libc_pic.a(getopt_long.pico)
 .data          0x0010745c        0x8 libc_pic.a(getopt.pico)
                0x0010745c                opterr
                0x00107460                optind
 .data.rel.local
                0x00107464        0x4 libc_pic.a(getopt.pico)
 .data          0x00107468        0x0 libc_pic.a(drand48.pico)
 .data          0x00107468        0x0 libc_pic.a(atoll.pico)
 .data          0x00107468        0x0 libc_pic.a(atol.pico)
 .data          0x00107468        0x0 libc_pic.a(atof.pico)
 .data          0x00107468        0x0 libc_pic.a(a64l.pico)
 .data          0x00107468        0x0 libc_pic.a(tmpnam.pico)
 .data          0x00107468        0x0 libc_pic.a(tempnam.pico)
 .data          0x00107468        0x0 libc_pic.a(open_wmemstream.pico)
 .data          0x00107468        0x0 libc_pic.a(open_memstream.pico)
 .data          0x00107468        0x0 libc_pic.a(fmemopen.pico)
 .data          0x00107468        0x0 libc_pic.a(wscanf.pico)
 .data          0x00107468        0x0 libc_pic.a(wprintf.pico)
 .data          0x00107468        0x0 libc_pic.a(vwscanf.pico)
 .data          0x00107468        0x0 libc_pic.a(vwprintf.pico)
 .data          0x00107468        0x0 libc_pic.a(vscanf.pico)
 .data          0x00107468        0x0 libc_pic.a(vprintf.pico)
 .data          0x00107468        0x0 libc_pic.a(tmpfile.pico)
 .data          0x00107468        0x0 libc_pic.a(swscanf.pico)
 .data          0x00107468        0x0 libc_pic.a(swprintf.pico)
 .data          0x00107468        0x0 libc_pic.a(setbuffer.pico)
 .data          0x00107468        0x0 libc_pic.a(setbuf.pico)
 .data          0x00107468        0x0 libc_pic.a(scanf.pico)
 .data          0x00107468        0x0 libc_pic.a(remove.pico)
 .data          0x00107468        0x0 libc_pic.a(putwchar.pico)
 .data          0x00107468        0x0 libc_pic.a(putwc.pico)
 .data          0x00107468        0x0 libc_pic.a(putw.pico)
 .data          0x00107468        0x0 libc_pic.a(putc.pico)
 .data          0x00107468        0x0 libc_pic.a(mkostemps.pico)
 .data          0x00107468        0x0 libc_pic.a(mkostemp.pico)
 .data          0x00107468        0x0 libc_pic.a(mkstemps.pico)
 .data          0x00107468        0x0 libc_pic.a(mkstemp.pico)
 .data          0x00107468        0x0 libc_pic.a(mkdtemp.pico)
 .data          0x00107468        0x0 libc_pic.a(getwchar.pico)
 .data          0x00107468        0x0 libc_pic.a(getwc.pico)
 .data          0x00107468        0x0 libc_pic.a(getw.pico)
 .data          0x00107468        0x0 libc_pic.a(getline.pico)
 .data          0x00107468        0x0 libc_pic.a(getchar.pico)
 .data          0x00107468        0x0 libc_pic.a(getc.pico)
 .data          0x00107468        0x0 libc_pic.a(fwscanf.pico)
 .data          0x00107468        0x0 libc_pic.a(fwprintf.pico)
 .data          0x00107468        0x0 libc_pic.a(fwide.pico)
 .data          0x00107468        0x0 libc_pic.a(funopen.pico)
 .data          0x00107468        0x0 libc_pic.a(fsetpos.pico)
 .data          0x00107468        0x0 libc_pic.a(fscanf.pico)
 .data          0x00107468        0x0 libc_pic.a(freopen.pico)
 .data          0x00107468        0x0 libc_pic.a(fputws.pico)
 .data          0x00107468        0x0 libc_pic.a(fpurge.pico)
 .data          0x00107468        0x0 libc_pic.a(flockfile.pico)
 .data          0x00107468        0x0 libc_pic.a(fileno.pico)
 .data          0x00107468        0x0 libc_pic.a(fgetws.pico)
 .data          0x00107468        0x0 libc_pic.a(fgetwln.pico)
 .data          0x00107468        0x0 libc_pic.a(fgetpos.pico)
 .data          0x00107468        0x0 libc_pic.a(fgetc.pico)
 .data          0x00107468        0x0 libc_pic.a(ferror.pico)
 .data          0x00107468        0x0 libc_pic.a(feof.pico)
 .data          0x00107468        0x0 libc_pic.a(dprintf.pico)
 .data          0x00107468        0x0 libc_pic.a(clrerr.pico)
 .data          0x00107468        0x0 libc_pic.a(vsprintf_chk.pico)
 .data          0x00107468        0x0 libc_pic.a(vsnprintf_chk.pico)
 .data          0x00107468        0x0 libc_pic.a(strncpy_chk.pico)
 .data          0x00107468        0x0 libc_pic.a(strncat_chk.pico)
 .data          0x00107468        0x0 libc_pic.a(strcpy_chk.pico)
 .data          0x00107468        0x0 libc_pic.a(strcat_chk.pico)
 .data          0x00107468        0x0 libc_pic.a(stpncpy_chk.pico)
 .data          0x00107468        0x0 libc_pic.a(stpcpy_chk.pico)
 .data          0x00107468        0x0 libc_pic.a(sprintf_chk.pico)
 .data          0x00107468        0x0 libc_pic.a(snprintf_chk.pico)
 .data          0x00107468        0x0 libc_pic.a(memset_chk.pico)
 .data          0x00107468        0x0 libc_pic.a(memmove_chk.pico)
 .data          0x00107468        0x0 libc_pic.a(memcpy_chk.pico)
 .data          0x00107468        0x0 libc_pic.a(fgets_chk.pico)
 .data          0x00107468        0x0 libc_pic.a(gets_chk.pico)
 .data          0x00107468        0x0 libc_pic.a(res_state.pico)
 .data          0x00107468        0x4 libc_pic.a(herror.pico)
                0x00107468                h_nerr
 .data.rel.local
                0x0010746c       0x14 libc_pic.a(herror.pico)
                0x0010746c                h_errlist
 .data          0x00107480        0x0 libc_pic.a(regexec.pico)
 .data          0x00107480        0x0 libc_pic.a(regerror.pico)
 .data          0x00107480        0x0 libc_pic.a(regcomp.pico)
 .data          0x00107480        0x0 libc_pic.a(if_nameindex.pico)
 .data          0x00107480        0x0 libc_pic.a(inet6_scopeid.pico)
 .data          0x00107480        0x0 libc_pic.a(vars6.pico)
 .data          0x00107480        0x0 libc_pic.a(rthdr.pico)
 .data          0x00107480        0x0 libc_pic.a(ip6opt.pico)
 .data          0x00107480        0x0 libc_pic.a(sockatmark.pico)
 .data          0x00107480        0x0 libc_pic.a(recv.pico)
 .data          0x00107480        0x4 libc_pic.a(rcmd.pico)
                0x00107480                __check_rhosts_file
 .data          0x00107484        0x0 libc_pic.a(linkaddr.pico)
 .data          0x00107484        0x0 libc_pic.a(iso_addr.pico)
 .data          0x00107484        0x0 libc_pic.a(getservent.pico)
 .data          0x00107484        0x0 libc_pic.a(getservbyport.pico)
 .data          0x00107484        0x0 libc_pic.a(getservbyname.pico)
 .data          0x00107484        0x0 libc_pic.a(getprotoent.pico)
 .data          0x00107484        0x0 libc_pic.a(getprotobynumber.pico)
 .data          0x00107484        0x0 libc_pic.a(getprotobyname.pico)
 .data          0x00107484        0x0 libc_pic.a(getpeereid.pico)
 .data          0x00107484        0x0 libc_pic.a(getnetnamadr.pico)
 .data          0x00107484        0x0 libc_pic.a(ethers.pico)
 .data          0x00107484        0x0 libc_pic.a(initfini.pico)
 .data          0x00107484        0x0 libc_pic.a(md5hl.pico)
 .data          0x00107484        0x0 libc_pic.a(md4hl.pico)
 .data          0x00107484        0x0 libc_pic.a(md4c.pico)
 .data          0x00107484        0x0 libc_pic.a(wcsftime.pico)
 .data          0x00107484        0x0 libc_pic.a(wcsxfrm.pico)
 .data          0x00107484        0x0 libc_pic.a(wcscoll.pico)
 .data          0x00107484        0x0 libc_pic.a(wcstoull.pico)
 .data          0x00107484        0x0 libc_pic.a(wcstoul.pico)
 .data          0x00107484        0x0 libc_pic.a(wcstoll.pico)
 .data          0x00107484        0x0 libc_pic.a(wcstol.pico)
 .data          0x00107484        0x0 libc_pic.a(nl_langinfo.pico)
 .data          0x00107484        0x0 libc_pic.a(newlocale.pico)
 .data          0x00107484        0x0 libc_pic.a(freelocale.pico)
 .data          0x00107484        0x0 libc_pic.a(duplocale.pico)
 .data          0x00107484        0x0 libc_pic.a(assertions.pico)
 .data.rel.local
                0x00107484        0x4 libc_pic.a(assertions.pico)
                0x00107484                __assertion_failed
 .data          0x00107488        0x0 libc_pic.a(inet_ntoa.pico)
 .data          0x00107488        0x0 libc_pic.a(inet_netof.pico)
 .data          0x00107488        0x0 libc_pic.a(inet_neta.pico)
 .data          0x00107488        0x0 libc_pic.a(inet_net_pton.pico)
 .data          0x00107488        0x0 libc_pic.a(inet_net_ntop.pico)
 .data          0x00107488        0x0 libc_pic.a(inet_makeaddr.pico)
 .data          0x00107488        0x0 libc_pic.a(inet_lnaof.pico)
 .data          0x00107488        0x0 libc_pic.a(inet_cidr_pton.pico)
 .data          0x00107488        0x0 libc_pic.a(inet_cidr_ntop.pico)
 .data          0x00107488        0x0 libc_pic.a(iconv.pico)
 .data          0x00107488        0x0 libc_pic.a(murmurhash.pico)
 .data          0x00107488        0x0 libc_pic.a(sha512hl.pico)
 .data          0x00107488        0x0 libc_pic.a(sha384hl.pico)
 .data          0x00107488        0x0 libc_pic.a(sha256hl.pico)
 .data          0x00107488        0x0 libc_pic.a(sha224hl.pico)
 .data          0x00107488        0x0 libc_pic.a(sha1hl.pico)
 .data          0x00107488        0x0 libc_pic.a(sha1.pico)
 .data          0x00107488        0x0 libc_pic.a(rmd160hl.pico)
 .data          0x00107488        0x0 libc_pic.a(rmd160.pico)
 .data          0x00107488        0x0 libc_pic.a(md2hl.pico)
 .data          0x00107488        0x0 libc_pic.a(md2.pico)
 .data          0x00107488        0x0 libc_pic.a(fixunsdfsi.pico)
 .data          0x00107488        0x0 libc_pic.a(fixdfsi.pico)
 .data          0x00107488        0x0 libc_pic.a(signbitl.pico)
 .data          0x00107488        0x0 libc_pic.a(isnanl.pico)
 .data          0x00107488        0x0 libc_pic.a(isinfl.pico)
 .data          0x00107488        0x0 libc_pic.a(isfinitel.pico)
 .data          0x00107488        0x0 libc_pic.a(infinityl.pico)
 .data          0x00107488        0x0 libc_pic.a(nanf.pico)
 .data          0x00107488        0x0 libc_pic.a(signbitd_ieee754.pico)
 .data          0x00107488        0x0 libc_pic.a(signbitf_ieee754.pico)
 .data          0x00107488        0x0 libc_pic.a(isfinited_ieee754.pico)
 .data          0x00107488        0x0 libc_pic.a(isfinitef_ieee754.pico)
 .data          0x00107488        0x0 libc_pic.a(isnand_ieee754.pico)
 .data          0x00107488        0x0 libc_pic.a(isnanf_ieee754.pico)
 .data          0x00107488        0x0 libc_pic.a(isinfd_ieee754.pico)
 .data          0x00107488        0x0 libc_pic.a(isinff_ieee754.pico)
 .data          0x00107488        0x0 libc_pic.a(fpclassifyf_ieee754.pico)
 .data          0x00107488        0x0 libc_pic.a(infinity_ieee754.pico)
 .data          0x00107488        0x0 libc_pic.a(infinityf_ieee754.pico)
 .data          0x00107488        0x0 libc_pic.a(sigsetjmp.pico)
 .data          0x00107488        0x0 libc_pic.a(_setjmp.pico)
 .data          0x00107488        0x0 libc_pic.a(setjmp.pico)
 .data          0x00107488        0x0 libc_pic.a(fpsetprec.pico)
 .data          0x00107488        0x0 libc_pic.a(fpgetprec.pico)
 .data          0x00107488        0x0 libc_pic.a(fpsetsticky.pico)
 .data          0x00107488        0x0 libc_pic.a(fpsetround.pico)
 .data          0x00107488        0x0 libc_pic.a(fpsetmask.pico)
 .data          0x00107488        0x0 libc_pic.a(fpgetsticky.pico)
 .data          0x00107488        0x0 libc_pic.a(fpgetround.pico)
 .data          0x00107488        0x0 libc_pic.a(fpgetmask.pico)
 .data          0x00107488        0x0 libc_pic.a(fabs.pico)
 .data          0x00107488        0x0 libc_pic.a(byte_swap_4.pico)
 .data          0x00107488        0x0 libc_pic.a(byte_swap_2.pico)
 .data          0x00107488        0x0 libc_pic.a(alloca.pico)
 .data          0x00107488        0x0 libc_pic.a(wordexp.pico)
 .data          0x00107488        0x0 libc_pic.a(warnc.pico)
 .data          0x00107488        0x0 libc_pic.a(wait.pico)
 .data          0x00107488        0x0 libc_pic.a(valloc.pico)
 .data          0x00107488        0x0 libc_pic.a(utimens.pico)
 .data          0x00107488        0x0 libc_pic.a(utime.pico)
 .data          0x00107488        0x0 libc_pic.a(uname.pico)
 .data          0x00107488        0x0 libc_pic.a(ulimit.pico)
 .data          0x00107488        0x0 libc_pic.a(ualarm.pico)
 .data          0x00107488        0x0 libc_pic.a(ttyslot.pico)
 .data          0x00107488        0x0 libc_pic.a(ttyname.pico)
 .data          0x00107488        0x0 libc_pic.a(toascii.pico)
 .data          0x00107488        0x0 libc_pic.a(time.pico)
 .data          0x00107488        0x0 libc_pic.a(sysctlnametomib.pico)
 .data          0x00107488        0x0 libc_pic.a(sigsetops.pico)
 .data          0x00107488        0x0 libc_pic.a(sigset.pico)
 .data          0x00107488        0x0 libc_pic.a(sigrelse.pico)
 .data          0x00107488        0x0 libc_pic.a(signame.pico)
 .data.rel.local
                0x00107488        0x4 libc_pic.a(signame.pico)
                0x00107488                __sys_signame14
 .data          0x0010748c        0x0 libc_pic.a(siginterrupt.pico)
 .data          0x0010748c        0x0 libc_pic.a(sigignore.pico)
 .data          0x0010748c        0x0 libc_pic.a(sighold.pico)
 .data          0x0010748c        0x0 libc_pic.a(shquotev.pico)
 .data          0x0010748c        0x0 libc_pic.a(shquote.pico)
 .data          0x0010748c        0x0 libc_pic.a(setprogname.pico)
 .data          0x0010748c        0x0 libc_pic.a(setproctitle.pico)
 .data          0x0010748c        0x0 libc_pic.a(setmode.pico)
 .data          0x0010748c        0x0 libc_pic.a(setjmperr.pico)
 .data          0x0010748c        0x0 libc_pic.a(sethostname.pico)
 .data          0x0010748c        0x0 libc_pic.a(setdomainname.pico)
 .data          0x0010748c        0x0 libc_pic.a(seekdir.pico)
 .data          0x0010748c        0x0 libc_pic.a(scandir.pico)
 .data          0x0010748c       0xb0 libc_pic.a(randomid.pico)
 .data          0x0010753c        0x0 libc_pic.a(pw_scan.pico)
 .data          0x0010753c        0x0 libc_pic.a(ptree.pico)
 .data          0x0010753c        0x0 libc_pic.a(psignal.pico)
 .data          0x0010753c        0x0 libc_pic.a(posix_spawnp.pico)
 .data          0x0010753c        0x0 libc_pic.a(posix_spawn_fileactions.pico)
 .data          0x0010753c        0x0 libc_pic.a(posix_spawn_sched.pico)
 .data          0x0010753c        0x0 libc_pic.a(popen.pico)
 .data          0x0010753c        0x0 libc_pic.a(pause.pico)
 .data          0x0010753c        0x0 libc_pic.a(nlist_elf64.pico)
 .data          0x0010753c        0x0 libc_pic.a(nlist_ecoff.pico)
 .data          0x0010753c        0x0 libc_pic.a(nlist_coff.pico)
 .data          0x0010753c        0x0 libc_pic.a(nlist.pico)
 .data          0x0010753c        0x0 libc_pic.a(nice.pico)
 .data          0x0010753c        0x0 libc_pic.a(nftw.pico)
 .data          0x0010753c        0x0 libc_pic.a(isascii.pico)
 .data          0x0010753c        0x0 libc_pic.a(initgroups.pico)
 .data          0x0010753c        0x0 libc_pic.a(humanize_number.pico)
 .data          0x0010753c        0x0 libc_pic.a(glob.pico)
 .data          0x0010753c        0x0 libc_pic.a(getusershell.pico)
 .data.rel.local
                0x0010753c        0x4 libc_pic.a(getusershell.pico)
 .data          0x00107540        0x0 libc_pic.a(getttyent.pico)
 .data          0x00107540        0x0 libc_pic.a(getpass.pico)
 .data          0x00107540        0x0 libc_pic.a(getmntinfo.pico)
 .data          0x00107540        0x0 libc_pic.a(getlogin.pico)
 .data          0x00107540        0x0 libc_pic.a(getloadavg.pico)
 .data          0x00107540        0x0 libc_pic.a(getgrouplist.pico)
 .data          0x00107540        0x0 libc_pic.a(getdomainname.pico)
 .data          0x00107540        0x4 libc_pic.a(getcap.pico)
 .data          0x00107544        0x0 libc_pic.a(getbsize.pico)
 .data          0x00107544        0x0 libc_pic.a(ftw.pico)
 .data          0x00107544        0x0 libc_pic.a(ftok.pico)
 .data          0x00107544        0x0 libc_pic.a(fstab.pico)
 .data          0x00107544        0x0 libc_pic.a(fnmatch.pico)
 .data          0x00107544        0x0 libc_pic.a(fmtmsg.pico)
 .data          0x00107544        0x0 libc_pic.a(fmtcheck.pico)
 .data          0x00107544        0x0 libc_pic.a(execv.pico)
 .data          0x00107544        0x0 libc_pic.a(execlp.pico)
 .data          0x00107544        0x0 libc_pic.a(execle.pico)
 .data          0x00107544        0x0 libc_pic.a(errno.pico)
 .data          0x00107544        0x0 libc_pic.a(errc.pico)
 .data          0x00107544        0x0 libc_pic.a(errx.pico)
 .data          0x00107544        0x0 libc_pic.a(err.pico)
 .data          0x00107544        0x0 libc_pic.a(dirname.pico)
 .data          0x00107544        0x0 libc_pic.a(dehumanize_number.pico)
 .data          0x00107544        0x0 libc_pic.a(daemon.pico)
 .data          0x00107544        0x9 libc_pic.a(ctermid.pico)
 *fill*         0x0010754d        0x3 
 .data          0x00107550        0x0 libc_pic.a(clock.pico)
 .data          0x00107550        0x0 libc_pic.a(basename.pico)
 .data          0x00107550        0x0 libc_pic.a(asysctl.pico)
 .data          0x00107550        0x0 libc_pic.a(alarm.pico)
 .data          0x00107550        0x0 libc_pic.a(fslib.pico)
 .data          0x00107550        0x0 libc_pic.a(read_tsc_64.pico)
 .data          0x00107550        0x0 libc_pic.a(itoa.pico)
 .data          0x00107550        0x0 libc_pic.a(gcov.pico)
 .data          0x00107550        0x0 libc_pic.a(fsversion.pico)
 .data          0x00107550       0x14 libc_pic.a(dlfcn_elf.pico)
 .data          0x00107564        0x0 libc_pic.a(InstrProfilingFile.pico)
 .data          0x00107564        0x0 libc_pic.a(InstrProfilingBuffer.pico)
 .data          0x00107564        0x0 libc_pic.a(InstrProfiling.pico)
 .data          0x00107564        0x4 libc_pic.a(GCDAProfiling.pico)
 .data          0x00107568        0x0 libc_pic.a(udivmoddi4.pico)
 .data          0x00107568        0x0 libc_pic.a(ucmpdi2.pico)
 .data          0x00107568        0x0 libc_pic.a(negdi2.pico)
 .data          0x00107568        0x0 libc_pic.a(muldi3.pico)
 .data          0x00107568        0x0 libc_pic.a(lshrdi3.pico)
 .data          0x00107568        0x0 libc_pic.a(divmoddi4.pico)
 .data          0x00107568        0x0 libc_pic.a(ashrdi3.pico)
 .data          0x00107568        0x0 libc_pic.a(ashldi3.pico)
 .data          0x00107568        0x0 libc_pic.a(cmpdi2.pico)
 .data          0x00107568        0x0 libc_pic.a(ffsdi2.pico)
 .data          0x00107568        0x0 libc_pic.a(ctzdi2.pico)
 .data          0x00107568        0x0 libc_pic.a(clzdi2.pico)
 .data          0x00107568        0x0 libc_pic.a(subvdi3.pico)
 .data          0x00107568        0x0 libc_pic.a(popcountdi2.pico)
 .data          0x00107568        0x0 libc_pic.a(paritydi2.pico)
 .data          0x00107568        0x0 libc_pic.a(negvdi2.pico)
 .data          0x00107568        0x0 libc_pic.a(mulvdi3.pico)
 .data          0x00107568        0x0 libc_pic.a(mulodi4.pico)
 .data          0x00107568        0x0 libc_pic.a(addvdi3.pico)
 .data          0x00107568        0x0 libc_pic.a(absvdi2.pico)
 .data          0x00107568        0x0 libc_pic.a(umodsi3.pico)
 .data          0x00107568        0x0 libc_pic.a(udivmodsi4.pico)
 .data          0x00107568        0x0 libc_pic.a(modsi3.pico)
 .data          0x00107568        0x0 libc_pic.a(divmodsi4.pico)
 .data          0x00107568        0x0 libc_pic.a(ctzsi2.pico)
 .data          0x00107568        0x0 libc_pic.a(clzsi2.pico)
 .data          0x00107568        0x0 libc_pic.a(floatuntixf.pico)
 .data          0x00107568        0x0 libc_pic.a(floatuntisf.pico)
 .data          0x00107568        0x0 libc_pic.a(floatuntidf.pico)
 .data          0x00107568        0x0 libc_pic.a(floattixf.pico)
 .data          0x00107568        0x0 libc_pic.a(floattisf.pico)
 .data          0x00107568        0x0 libc_pic.a(floattidf.pico)
 .data          0x00107568        0x0 libc_pic.a(fixxfti.pico)
 .data          0x00107568        0x0 libc_pic.a(fixunsxfti.pico)
 .data          0x00107568        0x0 libc_pic.a(fixunssfti.pico)
 .data          0x00107568        0x0 libc_pic.a(fixunsdfti.pico)
 .data          0x00107568        0x0 libc_pic.a(umodti3.pico)
 .data          0x00107568        0x0 libc_pic.a(udivti3.pico)
 .data          0x00107568        0x0 libc_pic.a(udivmodti4.pico)
 .data          0x00107568        0x0 libc_pic.a(ucmpti2.pico)
 .data          0x00107568        0x0 libc_pic.a(subvti3.pico)
 .data          0x00107568        0x0 libc_pic.a(subvsi3.pico)
 .data          0x00107568        0x0 libc_pic.a(powixf2.pico)
 .data          0x00107568        0x0 libc_pic.a(powitf2.pico)
 .data          0x00107568        0x0 libc_pic.a(powisf2.pico)
 .data          0x00107568        0x0 libc_pic.a(powidf2.pico)
 .data          0x00107568        0x0 libc_pic.a(popcountti2.pico)
 .data          0x00107568        0x0 libc_pic.a(popcountsi2.pico)
 .data          0x00107568        0x0 libc_pic.a(parityti2.pico)
 .data          0x00107568        0x0 libc_pic.a(paritysi2.pico)
 .data          0x00107568        0x0 libc_pic.a(negvti2.pico)
 .data          0x00107568        0x0 libc_pic.a(negvsi2.pico)
 .data          0x00107568        0x0 libc_pic.a(negti2.pico)
 .data          0x00107568        0x0 libc_pic.a(negsf2.pico)
 .data          0x00107568        0x0 libc_pic.a(negdf2.pico)
 .data          0x00107568        0x0 libc_pic.a(mulvti3.pico)
 .data          0x00107568        0x0 libc_pic.a(mulvsi3.pico)
 .data          0x00107568        0x0 libc_pic.a(multi3.pico)
 .data          0x00107568        0x0 libc_pic.a(muloti4.pico)
 .data          0x00107568        0x0 libc_pic.a(mulosi4.pico)
 .data          0x00107568        0x0 libc_pic.a(muldc3.pico)
 .data          0x00107568        0x0 libc_pic.a(modti3.pico)
 .data          0x00107568        0x0 libc_pic.a(lshrti3.pico)
 .data          0x00107568        0x0 libc_pic.a(int_util.pico)
 .data          0x00107568        0x0 libc_pic.a(floatundixf.pico)
 .data          0x00107568        0x0 libc_pic.a(floatundisf.pico)
 .data          0x00107568        0x0 libc_pic.a(floatundidf.pico)
 .data          0x00107568        0x0 libc_pic.a(floatdixf.pico)
 .data          0x00107568        0x0 libc_pic.a(floatdisf.pico)
 .data          0x00107568        0x0 libc_pic.a(floatdidf.pico)
 .data          0x00107568        0x0 libc_pic.a(fixxfdi.pico)
 .data          0x00107568        0x0 libc_pic.a(fixunsxfsi.pico)
 .data          0x00107568        0x0 libc_pic.a(fixunsxfdi.pico)
 .data          0x00107568        0x0 libc_pic.a(fixunssfsi.pico)
 .data          0x00107568        0x0 libc_pic.a(fixunssfdi.pico)
 .data          0x00107568        0x0 libc_pic.a(fixunsdfdi.pico)
 .data          0x00107568        0x0 libc_pic.a(fixdfdi.pico)
 .data          0x00107568        0x0 libc_pic.a(fixsfdi.pico)
 .data          0x00107568        0x0 libc_pic.a(ffsti2.pico)
 .data          0x00107568        0x0 libc_pic.a(divti3.pico)
 .data          0x00107568        0x0 libc_pic.a(ctzti2.pico)
 .data          0x00107568        0x0 libc_pic.a(cmpti2.pico)
 .data          0x00107568        0x0 libc_pic.a(clzti2.pico)
 .data          0x00107568        0x0 libc_pic.a(ashrti3.pico)
 .data          0x00107568        0x0 libc_pic.a(ashlti3.pico)
 .data          0x00107568        0x0 libc_pic.a(addvti3.pico)
 .data          0x00107568        0x0 libc_pic.a(addvsi3.pico)
 .data          0x00107568        0x0 libc_pic.a(absvti2.pico)
 .data          0x00107568        0x0 libc_pic.a(absvsi2.pico)
 .data          0x00107568        0x0 libc_pic.a(gcc_personality_v0.pico)
 .data          0x00107568        0x0 libc_pic.a(getwd.pico)
 .data          0x00107568        0x0 libc_pic.a(sigcompat.pico)
 .data          0x00107568        0x0 libc_pic.a(setpgrp.pico)
 .data          0x00107568        0x0 libc_pic.a(sethostid.pico)
 .data          0x00107568        0x0 libc_pic.a(killpg.pico)
 .data          0x00107568        0x0 libc_pic.a(gethostid.pico)
 .data          0x00107568        0x0 libc_pic.a(getdtablesize.pico)
 .data          0x00107568        0x0 libc_pic.a(creat.pico)
 .data          0x00107568        0x0 libc_pic.a(citrus_stdenc.pico)
 .data.rel      0x00107568       0x10 libc_pic.a(citrus_stdenc.pico)
                0x00107568                _citrus_stdenc_default
 .data          0x00107578        0x0 libc_pic.a(citrus_iconv.pico)
 .data          0x00107578        0x0 libc_pic.a(citrus_esdb.pico)
 .data          0x00107578        0x0 libc_pic.a(citrus_ctype_fallback.pico)
 .data          0x00107578        0x0 libc_pic.a(citrus_csmapper.pico)
 .data          0x00107578        0x0 libc_pic.a(citrus_bcs_strtoul.pico)
 .data          0x00107578        0x0 libc_pic.a(ndbm.pico)
 .data          0x00107578        0x0 libc_pic.a(ndbmdatum.pico)
 .data          0x00107578        0x0 libc_pic.a(bt_debug.pico)
 .data          0x00107578        0x0 libc_pic.a(cdbw.pico)
 .data          0x00107578        0x0 libc_pic.a(atomic_init_cas.pico)
 .data          0x00107578        0x0 libc_pic.a(atomic_cas_64_cas.pico)
 .data          0x00107578        0x0 libc_pic.a(atomic_sub_64_cas.pico)
 .data          0x00107578        0x0 libc_pic.a(atomic_xor_64_cas.pico)
 .data          0x00107578        0x0 libc_pic.a(atomic_nand_64_cas.pico)
 .data          0x00107578        0x0 libc_pic.a(atomic.pico)
 .data          0x00107578        0x0 libc_pic.a(atomic_swap_64_cas.pico)
 .data          0x00107578        0x0 libc_pic.a(atomic_or_64_nv_cas.pico)
 .data          0x00107578        0x0 libc_pic.a(atomic_or_64_cas.pico)
 .data          0x00107578        0x0 libc_pic.a(atomic_inc_64_nv_cas.pico)
 .data          0x00107578        0x0 libc_pic.a(atomic_inc_64_cas.pico)
 .data          0x00107578        0x0 libc_pic.a(atomic_dec_64_nv_cas.pico)
 .data          0x00107578        0x0 libc_pic.a(atomic_dec_64_cas.pico)
 .data          0x00107578        0x0 libc_pic.a(atomic_and_64_nv_cas.pico)
 .data          0x00107578        0x0 libc_pic.a(atomic_and_64_cas.pico)
 .data          0x00107578        0x0 libc_pic.a(atomic_add_64_nv_cas.pico)
 .data          0x00107578        0x0 libc_pic.a(atomic_add_64_cas.pico)
 .data          0x00107578        0x0 libc_pic.a(compat_difftime.pico)
 .data          0x00107578        0x0 libc_pic.a(compat_localtime.pico)
 .data          0x00107578        0x0 libc_pic.a(compat___shmctl13.pico)
 .data          0x00107578        0x0 libc_pic.a(compat_mknod.pico)
 .data          0x00107578        0x0 libc_pic.a(compat_adjtime.pico)
 .data          0x00107578        0x0 libc_pic.a(compat_nanosleep.pico)
 .data          0x00107578        0x0 libc_pic.a(compat_itimer.pico)
 .data          0x00107578        0x0 libc_pic.a(compat_clock.pico)
 .data          0x00107578        0x0 libc_pic.a(compat_settimeofday.pico)
 .data          0x00107578        0x0 libc_pic.a(compat_wait4.pico)
 .data          0x00107578        0x0 libc_pic.a(compat_utimes.pico)
 .data          0x00107578        0x0 libc_pic.a(compat_socket.pico)
 .data          0x00107578        0x0 libc_pic.a(compat_sched.pico)
 .data          0x00107578        0x0 libc_pic.a(compat_getdirentries.pico)
 .data          0x00107578        0x0 libc_pic.a(compat_getdents.pico)
 .data          0x00107578        0x0 libc_pic.a(compat_unsetenv.pico)
 .data          0x00107578        0x0 libc_pic.a(compat_random.pico)
 .data          0x00107578        0x0 libc_pic.a(compat_putenv.pico)
 .data          0x00107578        0x0 libc_pic.a(compat_fsetpos.pico)
 .data          0x00107578        0x0 libc_pic.a(compat_fgetpos.pico)
 .data          0x00107578        0x0 libc_pic.a(compat_ns_ntoa.pico)
 .data          0x00107578        0x0 libc_pic.a(compat_ns_addr.pico)
 .data          0x00107578        0x4 libc_pic.a(__cmsg_alignbytes.pico)
 .data          0x0010757c        0x0 libc_pic.a(compat_alloca.pico)
 .data          0x0010757c        0x0 libc_pic.a(compat_syslog.pico)
 .data          0x0010757c        0x0 libc_pic.a(compat___unvis13.pico)
 .data          0x0010757c        0x0 libc_pic.a(compat___fts50.pico)
 .data          0x0010757c        0x0 libc_pic.a(compat_utmp.pico)
 .data          0x0010757c        0x0 libc_pic.a(compat_getpwent.pico)
 .data          0x0010757c        0x0 libc_pic.a(compat_alphasort.pico)
 .data          0x0010757c        0x0 libc_pic.a(compat_devname.pico)
 .data          0x0010757c        0x0 libc_pic.a(compat_utime.pico)
 .data          0x0010757c        0x0 libc_pic.a(compat_time.pico)
 .data          0x0010757c      0x400 libc_pic.a(compat_utmpx.pico)
 .data          0x0010797c        0x0 libc_pic.a(compat_unvis.pico)
 .data          0x0010797c        0x0 libc_pic.a(compat_timezone.pico)
 .data          0x0010797c        0x0 libc_pic.a(compat_times.pico)
 .data          0x0010797c        0x0 libc_pic.a(compat_sigsetops.pico)
 .data          0x0010797c        0x0 libc_pic.a(compat_signame.pico)
 .data          0x0010797c        0x0 libc_pic.a(compat_siglist.pico)
 .data          0x0010797c        0x0 libc_pic.a(compat_scandir.pico)
 .data          0x0010797c        0x0 libc_pic.a(compat__readdir_unlocked30.pico)
 .data          0x0010797c        0x0 libc_pic.a(compat___glob13.pico)
 .data          0x0010797c        0x0 libc_pic.a(compat_glob.pico)
 .data          0x0010797c        0x0 libc_pic.a(compat_fts.pico)
 .data          0x0010797c        0x0 libc_pic.a(compat_errlist.pico)
 .data          0x0010797c        0x0 libc_pic.a(compat_setlocale32.pico)
 .data          0x0010797c        0x0 libc_pic.a(compat_setlocale1.pico)
 .data          0x0010797c        0x0 libc_pic.a(compat_ndbmdatum.pico)
 .data          0x0010797c        0x0 libc_pic.a(lchown.pico)
 .data          0x0010797c        0x0 libc_pic.a(lchmod.pico)
 .data          0x0010797c        0x0 libc_pic.a(lchflags.pico)
 .data          0x0010797c        0x0 libc_pic.a(uuid_is_nil.pico)
 .data          0x0010797c        0x0 libc_pic.a(libunwind.pico)
 .data          0x0010797c        0x0 libc_pic.a(read_tsc.pico)
 .data          0x0010797c        0x0 libc_pic.a(setrlimit.pico)
 .data          0x0010797c        0x0 libc_pic.a(vfork.pico)
 .data          0x0010797c        0x0 libc_pic.a(lutimes.pico)
 .data          0x0010797c        0x0 libc_pic.a(futimes.pico)
 .data          0x0010797c        0x0 libc_pic.a(utimes.pico)
 .data          0x0010797c        0x0 libc_pic.a(utimensat.pico)
 .data          0x0010797c        0x0 libc_pic.a(umask.pico)
 .data          0x0010797c        0x0 libc_pic.a(socketpair.pico)
 .data          0x0010797c        0x0 libc_pic.a(sigsuspend.pico)
 .data          0x0010797c        0x0 libc_pic.a(shmctl.pico)
 .data          0x0010797c        0x0 libc_pic.a(settimeofday.pico)
 .data          0x0010797c        0x0 libc_pic.a(setgroups.pico)
 .data          0x0010797c        0x0 libc_pic.a(rmdir.pico)
 .data          0x0010797c        0x0 libc_pic.a(posix_spawn.pico)
 .data          0x0010797c        0x0 libc_pic.a(poll.pico)
 .data          0x0010797c        0x0 libc_pic.a(pipe.pico)
 .data          0x0010797c        0x0 libc_pic.a(minix_rs.pico)
 .data          0x0010797c        0x0 libc_pic.a(listen.pico)
 .data          0x0010797c        0x0 libc_pic.a(getvfsstat.pico)
 .data          0x0010797c        0x0 libc_pic.a(getsockopt.pico)
 .data          0x0010797c        0x0 libc_pic.a(priority.pico)
 .data          0x0010797c        0x0 libc_pic.a(__getlogin.pico)
 .data          0x0010797c        0x0 libc_pic.a(setitimer.pico)
 .data          0x0010797c        0x0 libc_pic.a(getitimer.pico)
 .data          0x0010797c        0x0 libc_pic.a(getegid.pico)
 .data          0x0010797c        0x0 libc_pic.a(fstatvfs.pico)
 .data          0x0010797c        0x0 libc_pic.a(dup2.pico)
 .data          0x0010797c        0x0 libc_pic.a(clock_settime.pico)
 .data          0x0010797c        0x0 libc_pic.a(clock_getres.pico)
 .data          0x0010797c        0x0 libc_pic.a(chown.pico)
 .data          0x0010797c        0x0 libc_pic.a(chmod.pico)
 .data          0x0010797c        0x0 libc_pic.a(adjtime.pico)
 .data          0x0010797c        0x0 libc_pic.a(accept.pico)
 .data          0x0010797c        0x0 libc_pic.a(tcsetattr.pico)
 .data          0x0010797c        0x0 libc_pic.a(wmemset.pico)
 .data          0x0010797c        0x0 libc_pic.a(wmemcpy.pico)
 .data          0x0010797c        0x0 libc_pic.a(wcscpy.pico)
 .data          0x0010797c        0x0 libc_pic.a(wcscmp.pico)
 .data          0x0010797c        0x0 libc_pic.a(strsep.pico)
 .data          0x0010797c        0x0 libc_pic.a(strncat.pico)
 .data          0x0010797c        0x0 libc_pic.a(stresep.pico)
 .data          0x0010797c        0x0 libc_pic.a(__strsignal.pico)
 .data          0x0010797c        0x0 libc_pic.a(strtok_r.pico)
 .data          0x0010797c        0x0 libc_pic.a(stpncpy.pico)
 .data          0x0010797c        0x0 libc_pic.a(stderr.pico)
 .data          0x0010797c        0x0 libc_pic.a(erand48_ieee754.pico)
 .data          0x0010797c        0x0 libc_pic.a(strtoll.pico)
 .data          0x0010797c        0x0 libc_pic.a(setenv.pico)
 .data          0x0010797c       0x8c libc_pic.a(random.pico)
 .data.rel.local
                0x00107a08       0x10 libc_pic.a(random.pico)
 .data          0x00107a18        0xe libc_pic.a(_rand48.pico)
                0x00107a18                __rand48_seed
                0x00107a1e                __rand48_mult
                0x00107a24                __rand48_add
 *fill*         0x00107a26        0x2 
 .data          0x00107a28        0x0 libc_pic.a(mktemp.pico)
 .data          0x00107a28        0x0 libc_pic.a(gets.pico)
 .data          0x00107a28        0x0 libc_pic.a(vswscanf.pico)
 .data          0x00107a28        0x0 libc_pic.a(vswprintf.pico)
 .data          0x00107a28        0x0 libc_pic.a(vfwscanf.pico)
 .data          0x00107a28        0x0 libc_pic.a(vfwprintf.pico)
 .data          0x00107a28        0x0 libc_pic.a(vdprintf.pico)
 .data          0x00107a28        0x0 libc_pic.a(ungetwc.pico)
 .data          0x00107a28        0x0 libc_pic.a(sscanf.pico)
 .data          0x00107a28        0x0 libc_pic.a(setvbuf.pico)
 .data          0x00107a28        0x0 libc_pic.a(perror.pico)
 .data          0x00107a28        0x0 libc_pic.a(gettemp.pico)
 .data          0x00107a28        0x0 libc_pic.a(ftello.pico)
 .data          0x00107a28        0x0 libc_pic.a(ftell.pico)
 .data          0x00107a28        0x0 libc_pic.a(fputwc.pico)
 .data          0x00107a28        0x0 libc_pic.a(fgetwc.pico)
 .data          0x00107a28        0x0 libc_pic.a(regfree.pico)
 .data          0x00107a28        0x0 libc_pic.a(getprotobynumber_r.pico)
 .data          0x00107a28        0x0 libc_pic.a(getprotobyname_r.pico)
 .data          0x00107a28        0x0 libc_pic.a(getnetent.pico)
 .data          0x00107a28        0x0 libc_pic.a(stack_protector.pico)
 .data          0x00107a28        0x0 libc_pic.a(wcstold.pico)
 .data          0x00107a28        0x0 libc_pic.a(wcstof.pico)
 .data          0x00107a28        0x0 libc_pic.a(wcstod.pico)
 .data          0x00107a28        0x0 libc_pic.a(wcstoumax.pico)
 .data          0x00107a28        0x0 libc_pic.a(wcstoimax.pico)
 .data          0x00107a28        0x0 libc_pic.a(inet_network.pico)
 .data          0x00107a28        0x0 libc_pic.a(udivsi3.pico)
 .data          0x00107a28        0x0 libc_pic.a(divsi3.pico)
 .data          0x00107a28        0x0 libc_pic.a(verrx.pico)
 .data          0x00107a28        0x0 libc_pic.a(verr.pico)
 .data          0x00107a28        0x0 libc_pic.a(warn.pico)
 .data          0x00107a28        0x0 libc_pic.a(wait3.pico)
 .data          0x00107a28      0x404 libc_pic.a(utmpx.pico)
 .data          0x00107e2c      0x400 libc_pic.a(utmp.pico)
 .data          0x0010822c        0x0 libc_pic.a(unvis.pico)
 .data          0x0010822c        0x0 libc_pic.a(times.pico)
 .data          0x0010822c        0x0 libc_pic.a(siglist.pico)
 .data.rel.local
                0x0010822c        0x4 libc_pic.a(siglist.pico)
                0x0010822c                __sys_siglist14
 .data          0x00108230        0x0 libc_pic.a(pwcache.pico)
 .data.rel      0x00108230       0x20 libc_pic.a(pwcache.pico)
 .data          0x00108250        0x0 libc_pic.a(nlist_elf32.pico)
 .data          0x00108250        0x0 libc_pic.a(nlist_aout.pico)
 .data          0x00108250        0x0 libc_pic.a(lockf.pico)
 .data          0x00108250        0x0 libc_pic.a(getpwent.pico)
 .data          0x00108250        0x0 libc_pic.a(getnetgrent.pico)
 .data          0x00108250        0x0 libc_pic.a(getgroupmembership.pico)
 .data          0x00108250        0x0 libc_pic.a(getgrent.pico)
 .data          0x00108250        0x0 libc_pic.a(getcwd.pico)
 .data          0x00108250        0x0 libc_pic.a(execvp.pico)
 .data          0x00108250        0x0 libc_pic.a(execl.pico)
 .data          0x00108250        0x0 libc_pic.a(devname.pico)
 .data          0x00108250        0x0 libc_pic.a(arc4random.pico)
 .data          0x00108250        0x0 libc_pic.a(InstrProfilingPlatformOther.pico)
 .data          0x00108250        0x0 libc_pic.a(citrus_mapper.pico)
 .data          0x00108250        0x0 libc_pic.a(citrus_hash.pico)
 .data          0x00108250        0x0 libc_pic.a(compat_gettimeofday.pico)
 .data          0x00108250        0x0 libc_pic.a(compat_getrusage.pico)
 .data          0x00108250        0x0 libc_pic.a(compat_stat.pico)
 .data          0x00108250        0x0 libc_pic.a(compat_readdir.pico)
 .data          0x00108250        0x0 libc_pic.a(compat_opendir.pico)
 .data          0x00108250        0x0 libc_pic.a(unwind_registers.pico)
 .data          0x00108250        0x0 libc_pic.a(setpgid.pico)
 .data          0x00108250        0x0 libc_pic.a(getrusage.pico)
 .data          0x00108250        0x0 libc_pic.a(__getcwd.pico)
 .data          0x00108250        0x4 libc_pic.a(environ.pico)
                0x00108250                environ
 .data          0x00108254        0x0 libc_pic.a(setuid.pico)
 .data          0x00108254        0x0 libc_pic.a(setgid.pico)
 .data          0x00108254        0x0 libc_pic.a(setsid.pico)
 .data          0x00108254        0x0 libc_pic.a(mkdir.pico)
 .data          0x00108254        0x0 libc_pic.a(geteuid.pico)
 .data          0x00108254        0x0 libc_pic.a(fork.pico)
 .data          0x00108254        0x0 libc_pic.a(execve.pico)
 .data          0x00108254        0x0 libc_pic.a(wmemchr.pico)
 .data          0x00108254        0x0 libc_pic.a(explicit_memset.pico)
 .data.rel      0x00108254        0x4 libc_pic.a(explicit_memset.pico)
                0x00108254                __explicit_memset_impl
 .data          0x00108258        0x0 libc_pic.a(strstr.pico)
 .data          0x00108258        0x0 libc_pic.a(vsscanf.pico)
 .data          0x00108258        0x0 libc_pic.a(vfscanf.pico)
 .data          0x00108258        0x0 libc_pic.a(ungetc.pico)
 .data          0x00108258        0x0 libc_pic.a(getprotoent_r.pico)
 .data          0x00108258        0x0 libc_pic.a(sha2.pico)
 .data          0x00108258        0x0 libc_pic.a(bswap64.pico)
 .data          0x00108258        0x0 libc_pic.a(verrc.pico)
 .data          0x00108258        0x0 libc_pic.a(vwarn.pico)
 .data          0x00108258        0x0 libc_pic.a(warnx.pico)
 .data          0x00108258        0x0 libc_pic.a(waitpid.pico)
 .data          0x00108258        0x0 libc_pic.a(vis.pico)
 .data          0x00108258        0x0 libc_pic.a(stringlist.pico)
 .data          0x00108258        0x0 libc_pic.a(sleep.pico)
 .data          0x00108258        0x0 libc_pic.a(rewinddir.pico)
 .data          0x00108258        0x0 libc_pic.a(getdevmajor.pico)
 .data          0x00108258        0x0 libc_pic.a(fts.pico)
 .data          0x00108258        0x0 libc_pic.a(closedir.pico)
 .data          0x00108258       0x28 libc_pic.a(strtod.pico)
 .data          0x00108280        0x0 libc_pic.a(strtold_px.pico)
 .data          0x00108280        0x0 libc_pic.a(strtof.pico)
 .data          0x00108280        0x0 libc_pic.a(citrus_module.pico)
 .data          0x00108280        0x0 libc_pic.a(stack_utils.pico)
 .data          0x00108280        0x0 libc_pic.a(kernel_utils.pico)
 .data          0x00108280        0x0 libc_pic.a(wait4.pico)
 .data          0x00108280        0x0 libc_pic.a(chdir.pico)
 .data          0x00108280        0x0 libc_pic.a(strrchr.pico)
 .data          0x00108280        0x0 libc_pic.a(wcslen.pico)
 .data          0x00108280        0x0 libc_pic.a(wcschr.pico)
 .data          0x00108280        0x0 libc_pic.a(strcoll.pico)
 .data          0x00108280        0x0 libc_pic.a(strtoumax.pico)
 .data          0x00108280        0x0 libc_pic.a(reallocarr.pico)
 .data          0x00108280        0x0 libc_pic.a(iswctype_mb.pico)
 .data          0x00108280        0x0 libc_pic.a(multibyte_c90.pico)
 .data          0x00108280        0x0 libc_pic.a(vwarnc.pico)
 .data          0x00108280        0x0 libc_pic.a(vwarnx.pico)
 .data          0x00108280        0x0 libc_pic.a(sysctlbyname.pico)
 .data          0x00108280        0x0 libc_pic.a(opendir.pico)
 .data          0x00108280        0x0 libc_pic.a(initdir.pico)
 .data          0x00108280        0x0 libc_pic.a(alphasort.pico)
 .data          0x00108280        0x0 libc_pic.a(strtord.pico)
 .data          0x00108280        0x0 libc_pic.a(ulp.pico)
 .data          0x00108280        0x0 libc_pic.a(strtopx.pico)
 .data          0x00108280        0x0 libc_pic.a(merge.pico)
 .data          0x00108280        0x0 libc_pic.a(telldir.pico)
 .data          0x00108280        0x0 libc_pic.a(readdir.pico)
 .data          0x00108280        0x0 libc_pic.a(getdents.pico)
 .data          0x00108280        0x0 libc_pic.a(ucontext.pico)
 .data          0x00108280        0x0 libc_pic.a(_ucontext.pico)
 .data          0x00108280        0x0 libc_pic.a(_mcontext.pico)
 .data          0x00108280        0x0 libc_pic.a(socket.pico)
 .data          0x00108280        0x0 libc_pic.a(bind.pico)
 .data          0x00108280        0x0 libc_pic.a(mknod.pico)
 .data          0x00108280        0x0 libc_pic.a(vectorio.pico)
 .data          0x00108280        0x0 libc_pic.a(sendto.pico)
 .data          0x00108280        0x0 libc_pic.a(ioctl.pico)
 .data          0x00108280        0x0 libc_pic.a(strftime.pico)
 .data          0x00108280        0x4 libc_pic.a(malloc.pico)
 .data.rel.local
                0x00108284        0x4 libc_pic.a(malloc.pico)
                0x00108284                _malloc_message
 .data          0x00108288        0x0 libc_pic.a(readlink.pico)
 .data          0x00108288        0x0 libc_pic.a(getuid.pico)
 .data          0x00108288        0x0 libc_pic.a(getgid.pico)
 .data          0x00108288        0x0 libc_pic.a(sbrk.pico)
 .data          0x00108288        0x0 libc_pic.a(brk.pico)
 .data          0x00108288        0x4 libc_pic.a(brksize.pico)
                0x00108288                _brksize
 .data          0x0010828c        0x0 libc_pic.a(wsetup.pico)
 .data          0x0010828c        0x0 libc_pic.a(fwalk.pico)
 .data          0x0010828c        0x0 libc_pic.a(res_send.pico)
 .data          0x0010828c        0x0 libc_pic.a(recvfrom.pico)
 .data          0x0010828c        0x0 libc_pic.a(getpeername.pico)
 .data          0x0010828c        0x0 libc_pic.a(getnameinfo.pico)
 .data          0x0010828c        0x0 libc_pic.a(getservbyport_r.pico)
 .data          0x0010828c        0x0 libc_pic.a(ev_streams.pico)
 .data          0x0010828c        0x0 libc_pic.a(ev_timers.pico)
 .data          0x0010828c        0x4 libc_pic.a(assert.pico)
 .data          0x00108290        0x0 libc_pic.a(clock_gettime.pico)
 .data          0x00108290        0x0 libc_pic.a(if_indextoname.pico)
 .data          0x00108290        0x0 libc_pic.a(res_query.pico)
 .data          0x00108290        0x0 libc_pic.a(res_mkquery.pico)
 .data          0x00108290        0x0 libc_pic.a(res_init.pico)
 .data.rel.local
                0x00108290        0x4 libc_pic.a(res_init.pico)
                0x00108290                __res_conf_name
 .data          0x00108294        0x0 libc_pic.a(puts.pico)
 .data          0x00108294        0x0 libc_pic.a(getaddrinfo.pico)
 .data          0x00108294        0x0 libc_pic.a(getservbyname_r.pico)
 .data          0x00108294        0x0 libc_pic.a(md5c.pico)
 .data          0x00108294        0x0 libc_pic.a(inet_addr.pico)
 .data          0x00108294        0x0 libc_pic.a(vasprintf.pico)
 .data          0x00108294        0x0 libc_pic.a(fgets.pico)
 .data          0x00108294        0x0 libc_pic.a(if_nametoindex.pico)
 .data          0x00108294        0x0 libc_pic.a(getservent_r.pico)
 .data          0x00108294        0x0 libc_pic.a(getifaddrs.pico)
 .data          0x00108294        0x0 libc_pic.a(cdbr.pico)
 .data          0x00108294        0x0 libc_pic.a(mi_vector_hash.pico)
 .data          0x00108294        0x0 libc_pic.a(atoi.pico)
 .data          0x00108294        0x4 libc_pic.a(res_debug.pico)
 .data          0x00108298        0x0 libc_pic.a(strerror.pico)
 .data          0x00108298        0x0 libc_pic.a(strtoul.pico)
 .data          0x00108298        0x0 libc_pic.a(fputs.pico)
 .data          0x00108298        0x0 libc_pic.a(fputc.pico)
 .data          0x00108298        0x0 libc_pic.a(ns_print.pico)
 .data          0x00108298       0x80 libc_pic.a(ns_parse.pico)
                0x00108298                _ns_flagdata
 .data          0x00108318        0x0 libc_pic.a(base64.pico)
 .data          0x00108318        0x0 libc_pic.a(nsap_addr.pico)
 .data          0x00108318        0x0 libc_pic.a(inet_ntop.pico)
 .data          0x00108318        0x0 libc_pic.a(mtctxres.pico)
 .data          0x00108318        0x0 libc_pic.a(ns_ttl.pico)
 .data          0x00108318        0x0 libc_pic.a(ns_samedomain.pico)
 .data          0x00108318        0x0 libc_pic.a(sethostent.pico)
 .data.rel.local
                0x00108318        0x4 libc_pic.a(sethostent.pico)
 .data          0x0010831c        0x0 libc_pic.a(rewind.pico)
 .data          0x0010831c        0x0 libc_pic.a(fseek.pico)
 .data          0x0010831c        0x0 libc_pic.a(res_data.pico)
 .data.rel.local
                0x0010831c       0x40 libc_pic.a(res_data.pico)
                0x0010831c                _res_opcodes
 .data          0x0010835c        0x0 libc_pic.a(h_errno.pico)
 .data          0x0010835c        0x0 libc_pic.a(gethnamaddr.pico)
 .data          0x0010835c        0x0 libc_pic.a(inet_pton.pico)
 .data          0x0010835c        0x0 libc_pic.a(fseeko.pico)
 .data          0x0010835c        0x0 libc_pic.a(fparseln.pico)
 .data          0x0010835c        0x0 libc_pic.a(fgetln.pico)
 .data          0x0010835c        0x0 libc_pic.a(res_compat.pico)
 .data          0x0010835c        0x0 libc_pic.a(res_comp.pico)
 .data          0x0010835c        0x0 libc_pic.a(ns_netint.pico)
 .data          0x0010835c        0x0 libc_pic.a(ns_name.pico)
 .data          0x0010835c        0x0 libc_pic.a(strncasecmp.pico)
 .data          0x0010835c        0x0 libc_pic.a(strtol.pico)
 .data          0x0010835c        0x0 libc_pic.a(vsprintf.pico)
 .data          0x0010835c        0x0 libc_pic.a(fgetstr.pico)
 .data          0x0010835c        0x0 libc_pic.a(getdelim.pico)
 .data          0x0010835c        0x0 libc_pic.a(nsparser.pico)
 .data          0x0010835c        0x4 libc_pic.a(nslexer.pico)
                0x0010835c                _nsyylineno
 .data          0x00108360        0x0 libc_pic.a(nsdispatch.pico)
 .data.rel.local
                0x00108360        0x4 libc_pic.a(nsdispatch.pico)
 .data          0x00108364      0x120 libc_pic.a(syslog.pico)
 .data          0x00108484        0x0 libc_pic.a(getprogname.pico)
 .data          0x00108484        0x0 libc_pic.a(gethostname.pico)
 .data          0x00108484        0x0 libc_pic.a(connect.pico)
 .data          0x00108484        0x0 libc_pic.a(localtime.pico)
 .data.rel.local
                0x00108484        0x8 libc_pic.a(localtime.pico)
                0x00108484                tzname
                0x00108484                _tzname
 .data          0x0010848c        0x0 libc_pic.a(asctime.pico)
 .data          0x0010848c        0x0 libc_pic.a(strcat.pico)
 .data          0x0010848c        0x0 libc_pic.a(strerror_r.pico)
 .data          0x0010848c        0x0 libc_pic.a(strcasecmp.pico)
 .data          0x0010848c        0x0 libc_pic.a(exit.pico)
 .data          0x0010848c        0x0 libc_pic.a(bsearch.pico)
 .data          0x0010848c        0x0 libc_pic.a(atexit.pico)
 .data          0x0010848c        0x0 libc_pic.a(snprintf_ss.pico)
 .data          0x0010848c        0x0 libc_pic.a(putchar.pico)
 .data          0x0010848c        0x0 libc_pic.a(printf.pico)
 .data          0x0010848c        0x0 libc_pic.a(fread.pico)
 .data          0x0010848c        0x0 libc_pic.a(fprintf.pico)
 .data          0x0010848c        0x0 libc_pic.a(fopen.pico)
 .data          0x0010848c        0x0 libc_pic.a(catopen.pico)
 .data          0x0010848c        0x0 libc_pic.a(catgets.pico)
 .data          0x0010848c        0x0 libc_pic.a(catclose.pico)
 .data          0x0010848c        0x0 libc_pic.a(send.pico)
 .data          0x0010848c        0x0 libc_pic.a(usleep.pico)
 .data          0x0010848c        0x0 libc_pic.a(errlist.pico)
 .data.rel.local
                0x0010848c        0x4 libc_pic.a(errlist.pico)
                0x0010848c                __sys_errlist14
 .data          0x00108490        0x0 libc_pic.a(nanosleep.pico)
 .data          0x00108490        0x0 libc_pic.a(gettimeofday.pico)
 .data          0x00108490        0x0 libc_pic.a(access.pico)
 .data          0x00108490        0x0 libc_pic.a(wbuf.pico)
 .data          0x00108490        0x0 libc_pic.a(vsnprintf_ss.pico)
 .data          0x00108490        0x0 libc_pic.a(select.pico)
 .data          0x00108490        0x0 libc_pic.a(dummy_lc_collate.pico)
 .data          0x00108490        0x0 libc_pic.a(generic_lc_all.pico)
 .data          0x00108490        0x0 libc_pic.a(setlocale.pico)
 .data.rel.local
                0x00108490        0x4 libc_pic.a(setlocale.pico)
 .data          0x00108494        0x0 libc_pic.a(citrus_lc_messages.pico)
 .data.rel.local
                0x00108494        0x8 libc_pic.a(citrus_lc_messages.pico)
 .data          0x0010849c        0x0 libc_pic.a(citrus_lc_time.pico)
 .data.rel.local
                0x0010849c        0x8 libc_pic.a(citrus_lc_time.pico)
 .data          0x001084a4        0x0 libc_pic.a(citrus_lc_numeric.pico)
 .data.rel.local
                0x001084a4        0x8 libc_pic.a(citrus_lc_numeric.pico)
 .data          0x001084ac        0x0 libc_pic.a(citrus_lc_monetary.pico)
 .data.rel.local
                0x001084ac        0x8 libc_pic.a(citrus_lc_monetary.pico)
 .data          0x001084b4        0x0 libc_pic.a(citrus_lc_ctype.pico)
 .data.rel.local
                0x001084b4        0x8 libc_pic.a(citrus_lc_ctype.pico)
 .data          0x001084bc        0x0 libc_pic.a(citrus_lookup.pico)
 .data          0x001084bc        0x0 libc_pic.a(citrus_db_hash.pico)
 .data          0x001084bc        0x0 libc_pic.a(citrus_db.pico)
 .data          0x001084bc        0x0 libc_pic.a(citrus_bcs_strtol.pico)
 .data          0x001084bc        0x0 libc_pic.a(strndup.pico)
 .data          0x001084bc        0x0 libc_pic.a(rune.pico)
 .data          0x001084bc        0x0 libc_pic.a(_wctype.pico)
 .data          0x001084bc        0x0 libc_pic.a(_wctrans.pico)
 .data          0x001084bc        0x0 libc_pic.a(fix_grouping.pico)
 .data          0x001084bc        0x8 libc_pic.a(__mb_cur_max.pico)
                0x001084bc                __mb_cur_max
                0x001084c0                __mb_len_max_runtime
 .data          0x001084c4        0x0 libc_pic.a(citrus_mmap.pico)
 .data          0x001084c4        0x0 libc_pic.a(citrus_memstream.pico)
 .data          0x001084c4        0x0 libc_pic.a(citrus_bcs.pico)
 .data          0x001084c4        0x0 libc_pic.a(strtodg.pico)
 .data          0x001084c4        0x0 libc_pic.a(sum.pico)
 .data          0x001084c4        0x0 libc_pic.a(hexnan.pico)
 .data          0x001084c4        0x0 libc_pic.a(gethex.pico)
 .data          0x001084c4        0x0 libc_pic.a(smisc.pico)
 .data          0x001084c4        0x0 libc_pic.a(hd_init.pico)
 .data          0x001084c4        0x0 libc_pic.a(rec_put.pico)
 .data          0x001084c4        0x0 libc_pic.a(rec_open.pico)
 .data          0x001084c4        0x0 libc_pic.a(fdopen.pico)
 .data          0x001084c4        0x0 libc_pic.a(rec_seq.pico)
 .data          0x001084c4        0x0 libc_pic.a(rec_get.pico)
 .data          0x001084c4        0x0 libc_pic.a(rec_delete.pico)
 .data          0x001084c4        0x0 libc_pic.a(rec_close.pico)
 .data          0x001084c4        0x0 libc_pic.a(mmap.pico)
 .data          0x001084c4        0x0 libc_pic.a(ftruncate.pico)
 .data          0x001084c4        0x0 libc_pic.a(rget.pico)
 .data          0x001084c4        0x0 libc_pic.a(refill.pico)
 .data          0x001084c4        0x0 libc_pic.a(makebuf.pico)
 .data          0x001084c4        0x0 libc_pic.a(flags.pico)
 .data          0x001084c4        0x0 libc_pic.a(fclose.pico)
 .data          0x001084c4        0x0 libc_pic.a(isatty.pico)
 .data          0x001084c4        0x0 libc_pic.a(rec_utils.pico)
 .data          0x001084c4        0x0 libc_pic.a(rec_search.pico)
 .data          0x001084c4        0x0 libc_pic.a(tcgetattr.pico)
 .data          0x001084c4        0x0 libc_pic.a(strtoi.pico)
 .data          0x001084c4        0x0 libc_pic.a(vsnprintf.pico)
 .data          0x001084c4       0x20 libc_pic.a(vfprintf.pico)
 .data          0x001084e4        0x0 libc_pic.a(multibyte_amd1.pico)
 .data          0x001084e4        0x0 libc_pic.a(localeconv.pico)
 .data          0x001084e4        0x0 libc_pic.a(hdtoa.pico)
 .data          0x001084e4       0x14 libc_pic.a(ldtoa.pico)
 .data          0x001084f8        0x0 libc_pic.a(dtoa.pico)
 .data          0x001084f8        0x0 libc_pic.a(umoddi3.pico)
 .data          0x001084f8        0x0 libc_pic.a(strdup.pico)
 .data          0x001084f8        0x0 libc_pic.a(fpclassifyl.pico)
 .data          0x001084f8        0x0 libc_pic.a(fpclassifyd_ieee754.pico)
 .data          0x001084f8        0x0 libc_pic.a(flt_rounds.pico)
 .data          0x001084f8        0x0 libc_pic.a(gdtoa.pico)
 .data          0x001084f8        0x0 libc_pic.a(gmisc.pico)
 .data          0x001084f8        0x0 libc_pic.a(dmisc.pico)
 .data          0x001084f8        0x0 libc_pic.a(misc.pico)
 .data.rel.local
                0x001084f8        0x4 libc_pic.a(misc.pico)
 .data          0x001084fc        0x0 libc_pic.a(hash_page.pico)
 .data          0x001084fc        0x0 libc_pic.a(hash_bigkey.pico)
 .data          0x001084fc        0x0 libc_pic.a(db.pico)
 .data          0x001084fc        0x0 libc_pic.a(hash.pico)
 .data          0x001084fc        0x0 libc_pic.a(bt_open.pico)
 .data          0x001084fc        0x0 libc_pic.a(bt_get.pico)
 .data          0x001084fc        0x0 libc_pic.a(bt_conv.pico)
 .data          0x001084fc        0x0 libc_pic.a(bt_close.pico)
 .data          0x001084fc        0x0 libc_pic.a(memcmp.pico)
 .data          0x001084fc        0x0 libc_pic.a(hash_log2.pico)
 .data          0x001084fc        0x0 libc_pic.a(hash_func.pico)
 .data.rel.local
                0x001084fc        0x4 libc_pic.a(hash_func.pico)
                0x001084fc                __default_hash
 .data          0x00108500        0x0 libc_pic.a(hash_buf.pico)
 .data          0x00108500        0x0 libc_pic.a(dbfile.pico)
 .data          0x00108500        0x0 libc_pic.a(bt_put.pico)
 .data          0x00108500        0x0 libc_pic.a(bt_delete.pico)
 .data          0x00108500        0x0 libc_pic.a(unlink.pico)
 .data          0x00108500        0x0 libc_pic.a(issetugid.pico)
 .data          0x00108500        0x0 libc_pic.a(fcntl.pico)
 .data          0x00108500        0x0 libc_pic.a(getenv.pico)
 .data          0x00108500        0x0 libc_pic.a(_env.pico)
 .data          0x00108500        0x0 libc_pic.a(rb.pico)
 .data          0x00108500        0x0 libc_pic.a(bt_split.pico)
 .data          0x00108500        0x0 libc_pic.a(bt_seq.pico)
 .data          0x00108500        0x0 libc_pic.a(bt_search.pico)
 .data          0x00108500        0x0 libc_pic.a(strncmp.pico)
 .data          0x00108500        0x0 libc_pic.a(strcspn.pico)
 .data          0x00108500        0x0 libc_pic.a(bt_utils.pico)
 .data          0x00108500        0x0 libc_pic.a(bt_overflow.pico)
 .data          0x00108500        0x0 libc_pic.a(memmove.pico)
 .data          0x00108500        0x0 libc_pic.a(bt_page.pico)
 .data          0x00108500        0x0 libc_pic.a(mpool.pico)
 .data          0x00108500        0x0 libc_pic.a(pwrite.pico)
 .data          0x00108500        0x0 libc_pic.a(pread.pico)
 .data          0x00108500        0x0 libc_pic.a(fsync.pico)
 .data          0x00108500        0x0 libc_pic.a(abort.pico)
 .data          0x00108500        0x0 libc_pic.a(fwrite.pico)
 .data          0x00108500        0x0 libc_pic.a(fvwrite.pico)
 .data          0x00108500        0x0 libc_pic.a(findfp.pico)
 .data.rel      0x00108500      0x114 libc_pic.a(findfp.pico)
                0x00108500                __sF
                0x00108608                __sglue
 .data.rel.local
                0x00108614        0xc libc_pic.a(findfp.pico)
 .data          0x00108620        0x0 libc_pic.a(fflush.pico)
 .data          0x00108620        0x0 libc_pic.a(sysconf.pico)
 .data          0x00108620        0x0 libc_pic.a(signal.pico)
 .data          0x00108620        0x0 libc_pic.a(raise.pico)
 .data          0x00108620        0x0 libc_pic.a(getpagesize.pico)
 .data          0x00108620        0x0 libc_pic.a(udivdi3.pico)
 .data          0x00108620        0x0 libc_pic.a(_exit.pico)
 .data          0x00108620        0x0 libc_pic.a(sigaction.pico)
 .data          0x00108620        0x0 libc_pic.a(pathconf.pico)
 .data          0x00108620        0x0 libc_pic.a(open.pico)
 .data          0x00108620        0x0 libc_pic.a(loadname.pico)
 .data          0x00108620        0x0 libc_pic.a(kill.pico)
 .data          0x00108620        0x0 libc_pic.a(getrlimit.pico)
 .data          0x00108620        0x0 libc_pic.a(getpid.pico)
 .data          0x00108620        0x0 libc_pic.a(fpathconf.pico)
 .data          0x00108620        0x0 libc_pic.a(strcpy.pico)
 .data          0x00108620        0x0 libc_pic.a(memchr.pico)
 .data          0x00108620        0x0 libc_pic.a(stdio.pico)
 .data          0x00108620       0x60 libc_pic.a(sysctlgetmibinfo.pico)
 .data          0x00108680        0x0 libc_pic.a(sysctl.pico)
 .data          0x00108680        0x0 libc_pic.a(__sigreturn.pico)
 .data          0x00108680        0x0 libc_pic.a(__sysctl.pico)
 .data          0x00108680        0x0 libc_pic.a(write.pico)
 .data          0x00108680        0x0 libc_pic.a(stat.pico)
 .data          0x00108680        0x0 libc_pic.a(sigreturn.pico)
 .data          0x00108680        0x0 libc_pic.a(read.pico)
 .data          0x00108680        0x0 libc_pic.a(lseek.pico)
 .data          0x00108680        0x0 libc_pic.a(close.pico)
 .data          0x00108680        0x0 libc_pic.a(memset.pico)
 .data          0x00108680        0x0 libc_pic.a(memcpy.pico)
 .data          0x00108680        0x0 libc_pic.a(strpbrk.pico)
 .data          0x00108680        0x0 libc_pic.a(strncpy.pico)
 .data          0x00108680        0x0 libc_pic.a(strlcpy.pico)
 .data          0x00108680        0x0 libc_pic.a(strlcat.pico)
 .data          0x00108680        0x0 libc_pic.a(strtoimax.pico)
 .data          0x00108680        0x0 libc_pic.a(qsort.pico)
 .data          0x00108680        0x0 libc_pic.a(global_locale.pico)
 .data.rel.local
                0x00108680      0x104 libc_pic.a(global_locale.pico)
                0x00108680                _lc_global_locale
 .data          0x00108784        0x0 libc_pic.a(isctype.pico)
 .data          0x00108784        0x0 libc_pic.a(moddi3.pico)
 .data          0x00108784        0x0 libc_pic.a(divdi3.pico)
 .data          0x00108784        0x0 libc_pic.a(sigprocmask.pico)
 .data          0x00108784        0x0 libc_pic.a(strlen.pico)
 .data          0x00108784        0x0 libc_pic.a(strchr.pico)
 .data          0x00108784        0x0 libc_pic.a(runetable.pico)
 .data          0x00108784        0x0 libc_pic.a(toupper_.pico)
 .data.rel      0x00108784        0x4 libc_pic.a(toupper_.pico)
                0x00108784                _toupper_tab_
 .data          0x00108788        0x0 libc_pic.a(tolower_.pico)
 .data.rel      0x00108788        0x4 libc_pic.a(tolower_.pico)
                0x00108788                _tolower_tab_
 .data          0x0010878c        0x0 libc_pic.a(ctype_.pico)
 .data.rel      0x0010878c        0x8 libc_pic.a(ctype_.pico)
                0x0010878c                _ctype_
                0x00108790                _ctype_tab_
 .data          0x00108794        0x0 libc_pic.a(citrus_ctype.pico)
 .data.rel      0x00108794        0xc libc_pic.a(citrus_ctype.pico)
                0x00108794                _citrus_ctype_default
 .data          0x001087a0        0x0 libc_pic.a(syscall.pico)
 .data          0x001087a0        0x0 libc_pic.a(strcmp.pico)
 .data          0x001087a0        0x0 libc_pic.a(_errno.pico)
 .data          0x001087a0        0x8 libc_pic.a(citrus_none.pico)
                0x001087a0                _citrus_NONE_stdenc_traits
 .data.rel.local
                0x001087a8       0x74 libc_pic.a(citrus_none.pico)
                0x001087a8                _citrus_NONE_ctype_ops
                0x001087f4                _citrus_NONE_stdenc_ops
 .data          0x0010881c        0x0 libc_pic.a(init.pico)
 .data.rel      0x0010881c       0x1c libc_pic.a(init.pico)
                0x0010881c                _minix_ipcvecs
 .data          0x00108838        0x0 libc_pic.a(ipc_minix_kerninfo.pico)
 .data          0x00108838        0x0 libc_pic.a(_ipc.pico)
 .data          0x00108838        0x0 libc_pic.a(_do_kernel_call_intr.pico)
 .data          0x00108838        0x0 /usr/lib/crtendS.o
 .data          0x00108838        0x0 /usr/lib/crtn.o

.data1
 *(.data1)
                0x00108838                _edata = .
                0x00108838                PROVIDE (edata, .)
                0x00108838                . = .
                0x00108838                __bss_start = .

.bss            0x00108840     0xf374
 *(.dynbss)
 .dynbss        0x00000000        0x0 /usr/lib/crti.o
 *(.bss .bss.* .gnu.linkonce.b.*)
 .bss           0x00108840        0x0 /usr/lib/crti.o
 .bss           0x00108840        0x0 /usr/lib/crtbeginS.o
 .bss           0x00108840        0x0 libc_pic.a(uuid_to_string.pico)
 .bss           0x00108840        0x0 libc_pic.a(uuid_stream.pico)
 .bss           0x00108840        0x0 libc_pic.a(uuid_hash.pico)
 .bss           0x00108840        0x0 libc_pic.a(uuid_from_string.pico)
 .bss           0x00108840        0x0 libc_pic.a(uuid_equal.pico)
 .bss           0x00108840        0x0 libc_pic.a(uuid_create_nil.pico)
 .bss           0x00108840        0x0 libc_pic.a(uuid_create.pico)
 .bss           0x00108840        0x0 libc_pic.a(uuid_compare.pico)
 .bss           0x00108840        0x0 libc_pic.a(_cpufeature.pico)
 .bss           0x00108840        0x0 libc_pic.a(getprocessor.pico)
 .bss           0x00108840        0x0 libc_pic.a(get_bp.pico)
 .bss           0x00108840        0x0 libc_pic.a(_cpuid.pico)
 .bss           0x00108840        0x0 libc_pic.a(sprofile.pico)
 .bss           0x00108840        0x0 libc_pic.a(sizeup.pico)
 .bss           0x00108840        0x0 libc_pic.a(futimens.pico)
 .bss           0x00108840        0x0 libc_pic.a(truncate.pico)
 .bss           0x00108840        0x0 libc_pic.a(sync.pico)
 .bss           0x00108840        0x0 libc_pic.a(symlink.pico)
 .bss           0x00108840        0x0 libc_pic.a(svrctl.pico)
 .bss           0x00108840        0x0 libc_pic.a(statvfs.pico)
 .bss           0x00108840        0x0 libc_pic.a(sigpending.pico)
 .bss           0x00108840        0x0 libc_pic.a(shutdown.pico)
 .bss           0x00108840        0x0 libc_pic.a(stime.pico)
 .bss           0x00108840        0x0 libc_pic.a(shmget.pico)
 .bss           0x00108840        0x0 libc_pic.a(shmat.pico)
 .bss           0x00108840        0x0 libc_pic.a(sendmsg.pico)
 .bss           0x00108840        0x0 libc_pic.a(sem.pico)
 .bss           0x00108840        0x0 libc_pic.a(rename.pico)
 .bss           0x00108840        0x0 libc_pic.a(recvmsg.pico)
 .bss           0x00108840        0x0 libc_pic.a(reboot.pico)
 .bss           0x00108840        0x0 libc_pic.a(ptrace.pico)
 .bss           0x00108840        0x0 libc_pic.a(mount.pico)
 .bss           0x00108840        0x0 libc_pic.a(mkfifo.pico)
 .bss           0x00108840        0x0 libc_pic.a(link.pico)
 .bss           0x00108840        0x0 libc_pic.a(setsockopt.pico)
 .bss           0x00108840        0x0 libc_pic.a(getsockname.pico)
 .bss           0x00108840        0x0 libc_pic.a(getppid.pico)
 .bss           0x00108840        0x0 libc_pic.a(getpgrp.pico)
 .bss           0x00108840        0x0 libc_pic.a(getgroups.pico)
 .bss           0x00108840        0x0 libc_pic.a(gcov_flush_sys.pico)
 .bss           0x00108840        0x0 libc_pic.a(fstatfs.pico)
 .bss           0x00108840        0x0 libc_pic.a(flock.pico)
 .bss           0x00108840        0x0 libc_pic.a(dup.pico)
 .bss           0x00108840        0x0 libc_pic.a(chroot.pico)
 .bss           0x00108840        0x0 libc_pic.a(fchown.pico)
 .bss           0x00108840        0x0 libc_pic.a(fchmod.pico)
 .bss           0x00108840        0x0 libc_pic.a(getsid.pico)
 .bss           0x00108840        0x0 libc_pic.a(m_closefrom.pico)
 .bss           0x00108840        0x0 libc_pic.a(strptime.pico)
 .bss           0x00108840       0x58 libc_pic.a(getdate.pico)
 .bss           0x00108898        0x0 libc_pic.a(difftime.pico)
 .bss           0x00108898        0x0 libc_pic.a(thread-stub-init.pico)
 .bss           0x00108898        0x0 libc_pic.a(thread-stub.pico)
 .bss           0x00108898        0x4 libc_pic.a(__isthreaded.pico)
                0x00108898                __isthreaded
 .bss           0x0010889c        0x0 libc_pic.a(tcsetpgrp.pico)
 .bss           0x0010889c        0x0 libc_pic.a(tcsendbreak.pico)
 .bss           0x0010889c        0x0 libc_pic.a(tcgetpgrp.pico)
 .bss           0x0010889c        0x0 libc_pic.a(tcflush.pico)
 .bss           0x0010889c        0x0 libc_pic.a(tcflow.pico)
 .bss           0x0010889c        0x0 libc_pic.a(tcdrain.pico)
 .bss           0x0010889c        0x0 libc_pic.a(cfsetspeed.pico)
 .bss           0x0010889c        0x0 libc_pic.a(cfsetospeed.pico)
 .bss           0x0010889c        0x0 libc_pic.a(cfsetispeed.pico)
 .bss           0x0010889c        0x0 libc_pic.a(cfmakeraw.pico)
 .bss           0x0010889c        0x0 libc_pic.a(cfgetospeed.pico)
 .bss           0x0010889c        0x0 libc_pic.a(cfgetispeed.pico)
 .bss           0x0010889c        0x0 libc_pic.a(swab.pico)
 .bss           0x0010889c        0x0 libc_pic.a(ffs.pico)
 .bss           0x0010889c        0x0 libc_pic.a(bzero.pico)
 .bss           0x0010889c        0x0 libc_pic.a(bcopy.pico)
 .bss           0x0010889c        0x0 libc_pic.a(bcmp.pico)
 .bss           0x0010889c        0x0 libc_pic.a(wmemmove.pico)
 .bss           0x0010889c        0x0 libc_pic.a(wmemcmp.pico)
 .bss           0x0010889c        0x0 libc_pic.a(wcswcs.pico)
 .bss           0x0010889c        0x0 libc_pic.a(wcstok.pico)
 .bss           0x0010889c        0x0 libc_pic.a(wcsstr.pico)
 .bss           0x0010889c        0x0 libc_pic.a(wcsspn.pico)
 .bss           0x0010889c        0x0 libc_pic.a(wcsrchr.pico)
 .bss           0x0010889c        0x0 libc_pic.a(wcspbrk.pico)
 .bss           0x0010889c        0x0 libc_pic.a(wcsncpy.pico)
 .bss           0x0010889c        0x0 libc_pic.a(wcsncmp.pico)
 .bss           0x0010889c        0x0 libc_pic.a(wcsncasecmp.pico)
 .bss           0x0010889c        0x0 libc_pic.a(wcsdup.pico)
 .bss           0x0010889c        0x0 libc_pic.a(wcscasecmp.pico)
 .bss           0x0010889c        0x0 libc_pic.a(wcsncat.pico)
 .bss           0x0010889c        0x0 libc_pic.a(wcslcpy.pico)
 .bss           0x0010889c        0x0 libc_pic.a(wcslcat.pico)
 .bss           0x0010889c        0x0 libc_pic.a(wcscspn.pico)
 .bss           0x0010889c        0x0 libc_pic.a(wcscat.pico)
 .bss           0x0010889c        0x0 libc_pic.a(popcount64.pico)
 .bss           0x0010889c        0x0 libc_pic.a(popcount32.pico)
 .bss           0x0010889c        0x0 libc_pic.a(memmem.pico)
 .bss           0x0010889c        0x0 libc_pic.a(memccpy.pico)
 .bss           0x0010889c        0x0 libc_pic.a(consttime_memequal.pico)
 .bss           0x0010889c        0x0 libc_pic.a(strnstr.pico)
 .bss           0x0010889c        0x0 libc_pic.a(strspn.pico)
 .bss           0x0010889c        0x0 libc_pic.a(memrchr.pico)
 .bss           0x0010889c        0x0 libc_pic.a(strxfrm.pico)
 .bss           0x0010889c        0x4 libc_pic.a(strtok.pico)
 .bss           0x001088a0      0x800 libc_pic.a(strsignal.pico)
 .bss           0x001090a0        0x0 libc_pic.a(strmode.pico)
 .bss           0x001090a0        0x0 libc_pic.a(strnlen.pico)
 .bss           0x001090a0        0x0 libc_pic.a(strcasestr.pico)
 .bss           0x001090a0        0x0 libc_pic.a(stpcpy.pico)
 .bss           0x001090a0        0x0 libc_pic.a(bm.pico)
 .bss           0x001090a0        0x0 libc_pic.a(llabs.pico)
 .bss           0x001090a0        0x0 libc_pic.a(ldiv.pico)
 .bss           0x001090a0        0x0 libc_pic.a(labs.pico)
 .bss           0x001090a0        0x0 libc_pic.a(div.pico)
 .bss           0x001090a0        0x0 libc_pic.a(abs.pico)
 .bss           0x001090a0      0x201 libc_pic.a(mtab.pico)
 *fill*         0x001092a1        0x3 
 .bss           0x001092a4       0x18 libc_pic.a(configfile.pico)
 .bss           0x001092bc        0x0 libc_pic.a(strfmon.pico)
 .bss           0x001092bc        0x0 libc_pic.a(unsetenv.pico)
 .bss           0x001092bc        0x0 libc_pic.a(twalk.pico)
 .bss           0x001092bc        0x0 libc_pic.a(tsearch.pico)
 .bss           0x001092bc        0x0 libc_pic.a(tfind.pico)
 .bss           0x001092bc        0x0 libc_pic.a(tdelete.pico)
 .bss           0x001092bc        0x0 libc_pic.a(system.pico)
 .bss           0x001092bc        0x0 libc_pic.a(strtouq.pico)
 .bss           0x001092bc        0x0 libc_pic.a(strtoull.pico)
 .bss           0x001092bc        0x0 libc_pic.a(strtoq.pico)
 .bss           0x001092bc        0x0 libc_pic.a(strtonum.pico)
 .bss           0x001092bc        0x0 libc_pic.a(strtou.pico)
 .bss           0x001092bc        0x0 libc_pic.a(strsuftoll.pico)
 .bss           0x001092bc        0x0 libc_pic.a(srand48.pico)
 .bss           0x001092bc        0x6 libc_pic.a(seed48.pico)
 *fill*         0x001092c2        0x2 
 .bss           0x001092c4        0x0 libc_pic.a(reallocarray.pico)
 .bss           0x001092c4        0x0 libc_pic.a(remque.pico)
 .bss           0x001092c4        0x0 libc_pic.a(rand_r.pico)
 .bss           0x001092c4        0x0 libc_pic.a(rand.pico)
 .bss           0x001092c4      0x810 libc_pic.a(radixsort.pico)
 .bss           0x00109ad4        0x4 libc_pic.a(quick_exit.pico)
 .bss           0x00109ad8      0x808 libc_pic.a(pty.pico)
 .bss           0x0010a2e0        0x0 libc_pic.a(posix_openpt.pico)
 .bss           0x0010a2e0        0x0 libc_pic.a(qdiv.pico)
 .bss           0x0010a2e0        0x0 libc_pic.a(qabs.pico)
 .bss           0x0010a2e0        0x0 libc_pic.a(putenv.pico)
 .bss           0x0010a2e0        0x0 libc_pic.a(nrand48.pico)
 .bss           0x0010a2e0        0x0 libc_pic.a(mrand48.pico)
 .bss           0x0010a2e0        0x0 libc_pic.a(lsearch.pico)
 .bss           0x0010a2e0        0x0 libc_pic.a(lrand48.pico)
 .bss           0x0010a2e0        0x0 libc_pic.a(lcong48.pico)
 .bss           0x0010a2e0        0x0 libc_pic.a(lldiv.pico)
 .bss           0x0010a2e0        0x8 libc_pic.a(l64a.pico)
 .bss           0x0010a2e8        0x0 libc_pic.a(jrand48.pico)
 .bss           0x0010a2e8        0x0 libc_pic.a(insque.pico)
 .bss           0x0010a2e8        0x0 libc_pic.a(imaxdiv.pico)
 .bss           0x0010a2e8        0x0 libc_pic.a(heapsort.pico)
 .bss           0x0010a2e8        0xc libc_pic.a(hcreate.pico)
 .bss           0x0010a2f4        0x0 libc_pic.a(getsubopt.pico)
 .bss           0x0010a2f4        0x0 libc_pic.a(getopt_long.pico)
 .bss           0x0010a2f4        0x0 libc_pic.a(getopt.pico)
 .bss           0x0010a2f4        0x0 libc_pic.a(drand48.pico)
 .bss           0x0010a2f4        0x0 libc_pic.a(atoll.pico)
 .bss           0x0010a2f4        0x0 libc_pic.a(atol.pico)
 .bss           0x0010a2f4        0x0 libc_pic.a(atof.pico)
 .bss           0x0010a2f4        0x0 libc_pic.a(a64l.pico)
 .bss           0x0010a2f4      0x404 libc_pic.a(tmpnam.pico)
 .bss           0x0010a6f8        0x0 libc_pic.a(tempnam.pico)
 .bss           0x0010a6f8        0x0 libc_pic.a(open_wmemstream.pico)
 .bss           0x0010a6f8        0x0 libc_pic.a(open_memstream.pico)
 .bss           0x0010a6f8        0x0 libc_pic.a(fmemopen.pico)
 .bss           0x0010a6f8        0x0 libc_pic.a(wscanf.pico)
 .bss           0x0010a6f8        0x0 libc_pic.a(wprintf.pico)
 .bss           0x0010a6f8        0x0 libc_pic.a(vwscanf.pico)
 .bss           0x0010a6f8        0x0 libc_pic.a(vwprintf.pico)
 .bss           0x0010a6f8        0x0 libc_pic.a(vscanf.pico)
 .bss           0x0010a6f8        0x0 libc_pic.a(vprintf.pico)
 .bss           0x0010a6f8        0x0 libc_pic.a(tmpfile.pico)
 .bss           0x0010a6f8        0x0 libc_pic.a(swscanf.pico)
 .bss           0x0010a6f8        0x0 libc_pic.a(swprintf.pico)
 .bss           0x0010a6f8        0x0 libc_pic.a(setbuffer.pico)
 .bss           0x0010a6f8        0x0 libc_pic.a(setbuf.pico)
 .bss           0x0010a6f8        0x0 libc_pic.a(scanf.pico)
 .bss           0x0010a6f8        0x0 libc_pic.a(remove.pico)
 .bss           0x0010a6f8        0x0 libc_pic.a(putwchar.pico)
 .bss           0x0010a6f8        0x0 libc_pic.a(putwc.pico)
 .bss           0x0010a6f8        0x0 libc_pic.a(putw.pico)
 .bss           0x0010a6f8        0x0 libc_pic.a(putc.pico)
 .bss           0x0010a6f8        0x0 libc_pic.a(mkostemps.pico)
 .bss           0x0010a6f8        0x0 libc_pic.a(mkostemp.pico)
 .bss           0x0010a6f8        0x0 libc_pic.a(mkstemps.pico)
 .bss           0x0010a6f8        0x0 libc_pic.a(mkstemp.pico)
 .bss           0x0010a6f8        0x0 libc_pic.a(mkdtemp.pico)
 .bss           0x0010a6f8        0x0 libc_pic.a(getwchar.pico)
 .bss           0x0010a6f8        0x0 libc_pic.a(getwc.pico)
 .bss           0x0010a6f8        0x0 libc_pic.a(getw.pico)
 .bss           0x0010a6f8        0x0 libc_pic.a(getline.pico)
 .bss           0x0010a6f8        0x0 libc_pic.a(getchar.pico)
 .bss           0x0010a6f8        0x0 libc_pic.a(getc.pico)
 .bss           0x0010a6f8        0x0 libc_pic.a(fwscanf.pico)
 .bss           0x0010a6f8        0x0 libc_pic.a(fwprintf.pico)
 .bss           0x0010a6f8        0x0 libc_pic.a(fwide.pico)
 .bss           0x0010a6f8        0x0 libc_pic.a(funopen.pico)
 .bss           0x0010a6f8        0x0 libc_pic.a(fsetpos.pico)
 .bss           0x0010a6f8        0x0 libc_pic.a(fscanf.pico)
 .bss           0x0010a6f8        0x0 libc_pic.a(freopen.pico)
 .bss           0x0010a6f8        0x0 libc_pic.a(fputws.pico)
 .bss           0x0010a6f8        0x0 libc_pic.a(fpurge.pico)
 .bss           0x0010a6f8        0x0 libc_pic.a(flockfile.pico)
 .bss           0x0010a6f8        0x0 libc_pic.a(fileno.pico)
 .bss           0x0010a6f8        0x0 libc_pic.a(fgetws.pico)
 .bss           0x0010a6f8        0x0 libc_pic.a(fgetwln.pico)
 .bss           0x0010a6f8        0x0 libc_pic.a(fgetpos.pico)
 .bss           0x0010a6f8        0x0 libc_pic.a(fgetc.pico)
 .bss           0x0010a6f8        0x0 libc_pic.a(ferror.pico)
 .bss           0x0010a6f8        0x0 libc_pic.a(feof.pico)
 .bss           0x0010a6f8        0x0 libc_pic.a(dprintf.pico)
 .bss           0x0010a6f8        0x0 libc_pic.a(clrerr.pico)
 .bss           0x0010a6f8        0x0 libc_pic.a(vsprintf_chk.pico)
 .bss           0x0010a6f8        0x0 libc_pic.a(vsnprintf_chk.pico)
 .bss           0x0010a6f8        0x0 libc_pic.a(strncpy_chk.pico)
 .bss           0x0010a6f8        0x0 libc_pic.a(strncat_chk.pico)
 .bss           0x0010a6f8        0x0 libc_pic.a(strcpy_chk.pico)
 .bss           0x0010a6f8        0x0 libc_pic.a(strcat_chk.pico)
 .bss           0x0010a6f8        0x0 libc_pic.a(stpncpy_chk.pico)
 .bss           0x0010a6f8        0x0 libc_pic.a(stpcpy_chk.pico)
 .bss           0x0010a6f8        0x0 libc_pic.a(sprintf_chk.pico)
 .bss           0x0010a6f8        0x0 libc_pic.a(snprintf_chk.pico)
 .bss           0x0010a6f8        0x0 libc_pic.a(memset_chk.pico)
 .bss           0x0010a6f8        0x0 libc_pic.a(memmove_chk.pico)
 .bss           0x0010a6f8        0x0 libc_pic.a(memcpy_chk.pico)
 .bss           0x0010a6f8        0x0 libc_pic.a(fgets_chk.pico)
 .bss           0x0010a6f8        0x0 libc_pic.a(gets_chk.pico)
 .bss           0x0010a6f8        0x0 libc_pic.a(res_state.pico)
 .bss           0x0010a6f8        0x0 libc_pic.a(herror.pico)
 .bss           0x0010a6f8        0x0 libc_pic.a(regexec.pico)
 .bss           0x0010a6f8        0x0 libc_pic.a(regerror.pico)
 .bss           0x0010a6f8        0xa libc_pic.a(regcomp.pico)
 *fill*         0x0010a702        0x2 
 .bss           0x0010a704        0x0 libc_pic.a(if_nameindex.pico)
 .bss           0x0010a704        0x0 libc_pic.a(inet6_scopeid.pico)
 .bss           0x0010a704        0x0 libc_pic.a(vars6.pico)
 .bss           0x0010a704        0x0 libc_pic.a(rthdr.pico)
 .bss           0x0010a704        0x0 libc_pic.a(ip6opt.pico)
 .bss           0x0010a704        0x0 libc_pic.a(sockatmark.pico)
 .bss           0x0010a704        0x0 libc_pic.a(recv.pico)
 .bss           0x0010a704      0x601 libc_pic.a(rcmd.pico)
 *fill*         0x0010ad05        0x3 
 .bss           0x0010ad08       0x40 libc_pic.a(linkaddr.pico)
 .bss           0x0010ad48       0x55 libc_pic.a(iso_addr.pico)
 *fill*         0x0010ad9d        0x3 
 .bss           0x0010ada0        0x0 libc_pic.a(getservent.pico)
 .bss           0x0010ada0        0x0 libc_pic.a(getservbyport.pico)
 .bss           0x0010ada0        0x0 libc_pic.a(getservbyname.pico)
 .bss           0x0010ada0        0x0 libc_pic.a(getprotoent.pico)
 .bss           0x0010ada0        0x0 libc_pic.a(getprotobynumber.pico)
 .bss           0x0010ada0        0x0 libc_pic.a(getprotobyname.pico)
 .bss           0x0010ada0        0x0 libc_pic.a(getpeereid.pico)
 .bss           0x0010ada0      0x6a0 libc_pic.a(getnetnamadr.pico)
 .bss           0x0010b440       0x18 libc_pic.a(ethers.pico)
 .bss           0x0010b458        0x5 libc_pic.a(initfini.pico)
 *fill*         0x0010b45d        0x3 
 .bss           0x0010b460        0x0 libc_pic.a(md5hl.pico)
 .bss           0x0010b460        0x0 libc_pic.a(md4hl.pico)
 .bss           0x0010b460        0x0 libc_pic.a(md4c.pico)
 .bss           0x0010b460        0x0 libc_pic.a(wcsftime.pico)
 .bss           0x0010b460        0x0 libc_pic.a(wcsxfrm.pico)
 .bss           0x0010b460        0x0 libc_pic.a(wcscoll.pico)
 .bss           0x0010b460        0x0 libc_pic.a(wcstoull.pico)
 .bss           0x0010b460        0x0 libc_pic.a(wcstoul.pico)
 .bss           0x0010b460        0x0 libc_pic.a(wcstoll.pico)
 .bss           0x0010b460        0x0 libc_pic.a(wcstol.pico)
 .bss           0x0010b460        0x0 libc_pic.a(nl_langinfo.pico)
 .bss           0x0010b460        0x0 libc_pic.a(newlocale.pico)
 .bss           0x0010b460        0x0 libc_pic.a(freelocale.pico)
 .bss           0x0010b460        0x0 libc_pic.a(duplocale.pico)
 .bss           0x0010b460        0x0 libc_pic.a(assertions.pico)
 .bss           0x0010b460       0x12 libc_pic.a(inet_ntoa.pico)
 *fill*         0x0010b472        0x2 
 .bss           0x0010b474        0x0 libc_pic.a(inet_netof.pico)
 .bss           0x0010b474        0x0 libc_pic.a(inet_neta.pico)
 .bss           0x0010b474        0x0 libc_pic.a(inet_net_pton.pico)
 .bss           0x0010b474        0x0 libc_pic.a(inet_net_ntop.pico)
 .bss           0x0010b474        0x0 libc_pic.a(inet_makeaddr.pico)
 .bss           0x0010b474        0x0 libc_pic.a(inet_lnaof.pico)
 .bss           0x0010b474        0x0 libc_pic.a(inet_cidr_pton.pico)
 .bss           0x0010b474        0x0 libc_pic.a(inet_cidr_ntop.pico)
 .bss           0x0010b474        0x0 libc_pic.a(iconv.pico)
 .bss           0x0010b474        0x0 libc_pic.a(murmurhash.pico)
 .bss           0x0010b474        0x0 libc_pic.a(sha512hl.pico)
 .bss           0x0010b474        0x0 libc_pic.a(sha384hl.pico)
 .bss           0x0010b474        0x0 libc_pic.a(sha256hl.pico)
 .bss           0x0010b474        0x0 libc_pic.a(sha224hl.pico)
 .bss           0x0010b474        0x0 libc_pic.a(sha1hl.pico)
 .bss           0x0010b474        0x0 libc_pic.a(sha1.pico)
 .bss           0x0010b474        0x0 libc_pic.a(rmd160hl.pico)
 .bss           0x0010b474        0x0 libc_pic.a(rmd160.pico)
 .bss           0x0010b474        0x0 libc_pic.a(md2hl.pico)
 .bss           0x0010b474        0x0 libc_pic.a(md2.pico)
 .bss           0x0010b474        0x0 libc_pic.a(fixunsdfsi.pico)
 .bss           0x0010b474        0x0 libc_pic.a(fixdfsi.pico)
 .bss           0x0010b474        0x0 libc_pic.a(signbitl.pico)
 .bss           0x0010b474        0x0 libc_pic.a(isnanl.pico)
 .bss           0x0010b474        0x0 libc_pic.a(isinfl.pico)
 .bss           0x0010b474        0x0 libc_pic.a(isfinitel.pico)
 .bss           0x0010b474        0x0 libc_pic.a(infinityl.pico)
 .bss           0x0010b474        0x0 libc_pic.a(nanf.pico)
 .bss           0x0010b474        0x0 libc_pic.a(signbitd_ieee754.pico)
 .bss           0x0010b474        0x0 libc_pic.a(signbitf_ieee754.pico)
 .bss           0x0010b474        0x0 libc_pic.a(isfinited_ieee754.pico)
 .bss           0x0010b474        0x0 libc_pic.a(isfinitef_ieee754.pico)
 .bss           0x0010b474        0x0 libc_pic.a(isnand_ieee754.pico)
 .bss           0x0010b474        0x0 libc_pic.a(isnanf_ieee754.pico)
 .bss           0x0010b474        0x0 libc_pic.a(isinfd_ieee754.pico)
 .bss           0x0010b474        0x0 libc_pic.a(isinff_ieee754.pico)
 .bss           0x0010b474        0x0 libc_pic.a(fpclassifyf_ieee754.pico)
 .bss           0x0010b474        0x0 libc_pic.a(infinity_ieee754.pico)
 .bss           0x0010b474        0x0 libc_pic.a(infinityf_ieee754.pico)
 .bss           0x0010b474        0x0 libc_pic.a(sigsetjmp.pico)
 .bss           0x0010b474        0x0 libc_pic.a(_setjmp.pico)
 .bss           0x0010b474        0x0 libc_pic.a(setjmp.pico)
 .bss           0x0010b474        0x0 libc_pic.a(fpsetprec.pico)
 .bss           0x0010b474        0x0 libc_pic.a(fpgetprec.pico)
 .bss           0x0010b474        0x0 libc_pic.a(fpsetsticky.pico)
 .bss           0x0010b474        0x0 libc_pic.a(fpsetround.pico)
 .bss           0x0010b474        0x0 libc_pic.a(fpsetmask.pico)
 .bss           0x0010b474        0x0 libc_pic.a(fpgetsticky.pico)
 .bss           0x0010b474        0x0 libc_pic.a(fpgetround.pico)
 .bss           0x0010b474        0x0 libc_pic.a(fpgetmask.pico)
 .bss           0x0010b474        0x0 libc_pic.a(fabs.pico)
 .bss           0x0010b474        0x0 libc_pic.a(byte_swap_4.pico)
 .bss           0x0010b474        0x0 libc_pic.a(byte_swap_2.pico)
 .bss           0x0010b474        0x0 libc_pic.a(alloca.pico)
 .bss           0x0010b474        0x0 libc_pic.a(wordexp.pico)
 .bss           0x0010b474        0x0 libc_pic.a(warnc.pico)
 .bss           0x0010b474        0x0 libc_pic.a(wait.pico)
 .bss           0x0010b474        0x0 libc_pic.a(valloc.pico)
 .bss           0x0010b474        0x0 libc_pic.a(utimens.pico)
 .bss           0x0010b474        0x0 libc_pic.a(utime.pico)
 .bss           0x0010b474        0x0 libc_pic.a(uname.pico)
 .bss           0x0010b474        0x0 libc_pic.a(ulimit.pico)
 .bss           0x0010b474        0x0 libc_pic.a(ualarm.pico)
 .bss           0x0010b474        0x0 libc_pic.a(ttyslot.pico)
 .bss           0x0010b474      0x400 libc_pic.a(ttyname.pico)
 .bss           0x0010b874        0x0 libc_pic.a(toascii.pico)
 .bss           0x0010b874        0x0 libc_pic.a(time.pico)
 .bss           0x0010b874        0x0 libc_pic.a(sysctlnametomib.pico)
 .bss           0x0010b874        0x0 libc_pic.a(sigsetops.pico)
 .bss           0x0010b874        0x0 libc_pic.a(sigset.pico)
 .bss           0x0010b874        0x0 libc_pic.a(sigrelse.pico)
 .bss           0x0010b874        0x0 libc_pic.a(signame.pico)
 .bss           0x0010b874        0x0 libc_pic.a(siginterrupt.pico)
 .bss           0x0010b874        0x0 libc_pic.a(sigignore.pico)
 .bss           0x0010b874        0x0 libc_pic.a(sighold.pico)
 .bss           0x0010b874        0x0 libc_pic.a(shquotev.pico)
 .bss           0x0010b874        0x0 libc_pic.a(shquote.pico)
 .bss           0x0010b874        0x0 libc_pic.a(setprogname.pico)
 .bss           0x0010b874      0x804 libc_pic.a(setproctitle.pico)
 .bss           0x0010c078        0x0 libc_pic.a(setmode.pico)
 .bss           0x0010c078        0x0 libc_pic.a(setjmperr.pico)
 .bss           0x0010c078        0x0 libc_pic.a(sethostname.pico)
 .bss           0x0010c078        0x0 libc_pic.a(setdomainname.pico)
 .bss           0x0010c078        0x0 libc_pic.a(seekdir.pico)
 .bss           0x0010c078        0x0 libc_pic.a(scandir.pico)
 .bss           0x0010c078        0x0 libc_pic.a(randomid.pico)
 .bss           0x0010c078        0x0 libc_pic.a(pw_scan.pico)
 .bss           0x0010c078        0x0 libc_pic.a(ptree.pico)
 .bss           0x0010c078        0x0 libc_pic.a(psignal.pico)
 .bss           0x0010c078        0x0 libc_pic.a(posix_spawnp.pico)
 .bss           0x0010c078        0x0 libc_pic.a(posix_spawn_fileactions.pico)
 .bss           0x0010c078        0x0 libc_pic.a(posix_spawn_sched.pico)
 .bss           0x0010c078        0x4 libc_pic.a(popen.pico)
 .bss           0x0010c07c        0x0 libc_pic.a(pause.pico)
 .bss           0x0010c07c        0x0 libc_pic.a(nlist_elf64.pico)
 .bss           0x0010c07c        0x0 libc_pic.a(nlist_ecoff.pico)
 .bss           0x0010c07c        0x0 libc_pic.a(nlist_coff.pico)
 .bss           0x0010c07c        0x0 libc_pic.a(nlist.pico)
 .bss           0x0010c07c        0x0 libc_pic.a(nice.pico)
 .bss           0x0010c07c        0x0 libc_pic.a(nftw.pico)
 .bss           0x0010c07c        0x0 libc_pic.a(isascii.pico)
 .bss           0x0010c07c        0x0 libc_pic.a(initgroups.pico)
 .bss           0x0010c07c        0x0 libc_pic.a(humanize_number.pico)
 .bss           0x0010c07c        0x0 libc_pic.a(glob.pico)
 .bss           0x0010c07c      0x40a libc_pic.a(getusershell.pico)
 *fill*         0x0010c486        0x2 
 .bss           0x0010c488       0x28 libc_pic.a(getttyent.pico)
 .bss           0x0010c4b0       0x22 libc_pic.a(getpass.pico)
 *fill*         0x0010c4d2        0x2 
 .bss           0x0010c4d4        0xc libc_pic.a(getmntinfo.pico)
 .bss           0x0010c4e0       0x11 libc_pic.a(getlogin.pico)
 *fill*         0x0010c4f1        0x3 
 .bss           0x0010c4f4        0x0 libc_pic.a(getloadavg.pico)
 .bss           0x0010c4f4        0x0 libc_pic.a(getgrouplist.pico)
 .bss           0x0010c4f4        0x0 libc_pic.a(getdomainname.pico)
 .bss           0x0010c4f4       0x15 libc_pic.a(getcap.pico)
 *fill*         0x0010c509        0x3 
 .bss           0x0010c50c       0x14 libc_pic.a(getbsize.pico)
 .bss           0x0010c520        0x0 libc_pic.a(ftw.pico)
 .bss           0x0010c520        0x0 libc_pic.a(ftok.pico)
 .bss           0x0010c520      0x424 libc_pic.a(fstab.pico)
 .bss           0x0010c944        0x0 libc_pic.a(fnmatch.pico)
 .bss           0x0010c944        0x0 libc_pic.a(fmtmsg.pico)
 .bss           0x0010c944        0x0 libc_pic.a(fmtcheck.pico)
 .bss           0x0010c944        0x0 libc_pic.a(execv.pico)
 .bss           0x0010c944        0x0 libc_pic.a(execlp.pico)
 .bss           0x0010c944        0x0 libc_pic.a(execle.pico)
 .bss           0x0010c944        0x0 libc_pic.a(errno.pico)
 .bss           0x0010c944        0x0 libc_pic.a(errc.pico)
 .bss           0x0010c944        0x0 libc_pic.a(errx.pico)
 .bss           0x0010c944        0x0 libc_pic.a(err.pico)
 .bss           0x0010c944      0x400 libc_pic.a(dirname.pico)
 .bss           0x0010cd44        0x0 libc_pic.a(dehumanize_number.pico)
 .bss           0x0010cd44        0x0 libc_pic.a(daemon.pico)
 .bss           0x0010cd44        0x0 libc_pic.a(ctermid.pico)
 .bss           0x0010cd44        0x0 libc_pic.a(clock.pico)
 .bss           0x0010cd44      0x400 libc_pic.a(basename.pico)
 .bss           0x0010d144        0x0 libc_pic.a(asysctl.pico)
 .bss           0x0010d144        0x0 libc_pic.a(alarm.pico)
 .bss           0x0010d144        0x0 libc_pic.a(fslib.pico)
 .bss           0x0010d144        0x0 libc_pic.a(read_tsc_64.pico)
 .bss           0x0010d144        0xc libc_pic.a(itoa.pico)
 .bss           0x0010d150        0x0 libc_pic.a(gcov.pico)
 .bss           0x0010d150      0x400 libc_pic.a(fsversion.pico)
 .bss           0x0010d550       0x14 libc_pic.a(dlfcn_elf.pico)
 .bss           0x0010d564        0x1 libc_pic.a(InstrProfilingFile.pico)
 *fill*         0x0010d565        0x3 
 .bss.__llvm_profile_OwnsFilename
                0x0010d568        0x4 libc_pic.a(InstrProfilingFile.pico)
                0x0010d568                __llvm_profile_OwnsFilename
 .bss.__llvm_profile_CurrentFilename
                0x0010d56c        0x4 libc_pic.a(InstrProfilingFile.pico)
                0x0010d56c                __llvm_profile_CurrentFilename
 .bss           0x0010d570        0x0 libc_pic.a(InstrProfilingBuffer.pico)
 .bss           0x0010d570        0x0 libc_pic.a(InstrProfiling.pico)
 .bss           0x0010d570       0x40 libc_pic.a(GCDAProfiling.pico)
 .bss           0x0010d5b0        0x0 libc_pic.a(udivmoddi4.pico)
 .bss           0x0010d5b0        0x0 libc_pic.a(ucmpdi2.pico)
 .bss           0x0010d5b0        0x0 libc_pic.a(negdi2.pico)
 .bss           0x0010d5b0        0x0 libc_pic.a(muldi3.pico)
 .bss           0x0010d5b0        0x0 libc_pic.a(lshrdi3.pico)
 .bss           0x0010d5b0        0x0 libc_pic.a(divmoddi4.pico)
 .bss           0x0010d5b0        0x0 libc_pic.a(ashrdi3.pico)
 .bss           0x0010d5b0        0x0 libc_pic.a(ashldi3.pico)
 .bss           0x0010d5b0        0x0 libc_pic.a(cmpdi2.pico)
 .bss           0x0010d5b0        0x0 libc_pic.a(ffsdi2.pico)
 .bss           0x0010d5b0        0x0 libc_pic.a(ctzdi2.pico)
 .bss           0x0010d5b0        0x0 libc_pic.a(clzdi2.pico)
 .bss           0x0010d5b0        0x0 libc_pic.a(subvdi3.pico)
 .bss           0x0010d5b0        0x0 libc_pic.a(popcountdi2.pico)
 .bss           0x0010d5b0        0x0 libc_pic.a(paritydi2.pico)
 .bss           0x0010d5b0        0x0 libc_pic.a(negvdi2.pico)
 .bss           0x0010d5b0        0x0 libc_pic.a(mulvdi3.pico)
 .bss           0x0010d5b0        0x0 libc_pic.a(mulodi4.pico)
 .bss           0x0010d5b0        0x0 libc_pic.a(addvdi3.pico)
 .bss           0x0010d5b0        0x0 libc_pic.a(absvdi2.pico)
 .bss           0x0010d5b0        0x0 libc_pic.a(umodsi3.pico)
 .bss           0x0010d5b0        0x0 libc_pic.a(udivmodsi4.pico)
 .bss           0x0010d5b0        0x0 libc_pic.a(modsi3.pico)
 .bss           0x0010d5b0        0x0 libc_pic.a(divmodsi4.pico)
 .bss           0x0010d5b0        0x0 libc_pic.a(ctzsi2.pico)
 .bss           0x0010d5b0        0x0 libc_pic.a(clzsi2.pico)
 .bss           0x0010d5b0        0x0 libc_pic.a(floatuntixf.pico)
 .bss           0x0010d5b0        0x0 libc_pic.a(floatuntisf.pico)
 .bss           0x0010d5b0        0x0 libc_pic.a(floatuntidf.pico)
 .bss           0x0010d5b0        0x0 libc_pic.a(floattixf.pico)
 .bss           0x0010d5b0        0x0 libc_pic.a(floattisf.pico)
 .bss           0x0010d5b0        0x0 libc_pic.a(floattidf.pico)
 .bss           0x0010d5b0        0x0 libc_pic.a(fixxfti.pico)
 .bss           0x0010d5b0        0x0 libc_pic.a(fixunsxfti.pico)
 .bss           0x0010d5b0        0x0 libc_pic.a(fixunssfti.pico)
 .bss           0x0010d5b0        0x0 libc_pic.a(fixunsdfti.pico)
 .bss           0x0010d5b0        0x0 libc_pic.a(umodti3.pico)
 .bss           0x0010d5b0        0x0 libc_pic.a(udivti3.pico)
 .bss           0x0010d5b0        0x0 libc_pic.a(udivmodti4.pico)
 .bss           0x0010d5b0        0x0 libc_pic.a(ucmpti2.pico)
 .bss           0x0010d5b0        0x0 libc_pic.a(subvti3.pico)
 .bss           0x0010d5b0        0x0 libc_pic.a(subvsi3.pico)
 .bss           0x0010d5b0        0x0 libc_pic.a(powixf2.pico)
 .bss           0x0010d5b0        0x0 libc_pic.a(powitf2.pico)
 .bss           0x0010d5b0        0x0 libc_pic.a(powisf2.pico)
 .bss           0x0010d5b0        0x0 libc_pic.a(powidf2.pico)
 .bss           0x0010d5b0        0x0 libc_pic.a(popcountti2.pico)
 .bss           0x0010d5b0        0x0 libc_pic.a(popcountsi2.pico)
 .bss           0x0010d5b0        0x0 libc_pic.a(parityti2.pico)
 .bss           0x0010d5b0        0x0 libc_pic.a(paritysi2.pico)
 .bss           0x0010d5b0        0x0 libc_pic.a(negvti2.pico)
 .bss           0x0010d5b0        0x0 libc_pic.a(negvsi2.pico)
 .bss           0x0010d5b0        0x0 libc_pic.a(negti2.pico)
 .bss           0x0010d5b0        0x0 libc_pic.a(negsf2.pico)
 .bss           0x0010d5b0        0x0 libc_pic.a(negdf2.pico)
 .bss           0x0010d5b0        0x0 libc_pic.a(mulvti3.pico)
 .bss           0x0010d5b0        0x0 libc_pic.a(mulvsi3.pico)
 .bss           0x0010d5b0        0x0 libc_pic.a(multi3.pico)
 .bss           0x0010d5b0        0x0 libc_pic.a(muloti4.pico)
 .bss           0x0010d5b0        0x0 libc_pic.a(mulosi4.pico)
 .bss           0x0010d5b0        0x0 libc_pic.a(muldc3.pico)
 .bss           0x0010d5b0        0x0 libc_pic.a(modti3.pico)
 .bss           0x0010d5b0        0x0 libc_pic.a(lshrti3.pico)
 .bss           0x0010d5b0        0x0 libc_pic.a(int_util.pico)
 .bss           0x0010d5b0        0x0 libc_pic.a(floatundixf.pico)
 .bss           0x0010d5b0        0x0 libc_pic.a(floatundisf.pico)
 .bss           0x0010d5b0        0x0 libc_pic.a(floatundidf.pico)
 .bss           0x0010d5b0        0x0 libc_pic.a(floatdixf.pico)
 .bss           0x0010d5b0        0x0 libc_pic.a(floatdisf.pico)
 .bss           0x0010d5b0        0x0 libc_pic.a(floatdidf.pico)
 .bss           0x0010d5b0        0x0 libc_pic.a(fixxfdi.pico)
 .bss           0x0010d5b0        0x0 libc_pic.a(fixunsxfsi.pico)
 .bss           0x0010d5b0        0x0 libc_pic.a(fixunsxfdi.pico)
 .bss           0x0010d5b0        0x0 libc_pic.a(fixunssfsi.pico)
 .bss           0x0010d5b0        0x0 libc_pic.a(fixunssfdi.pico)
 .bss           0x0010d5b0        0x0 libc_pic.a(fixunsdfdi.pico)
 .bss           0x0010d5b0        0x0 libc_pic.a(fixdfdi.pico)
 .bss           0x0010d5b0        0x0 libc_pic.a(fixsfdi.pico)
 .bss           0x0010d5b0        0x0 libc_pic.a(ffsti2.pico)
 .bss           0x0010d5b0        0x0 libc_pic.a(divti3.pico)
 .bss           0x0010d5b0        0x0 libc_pic.a(ctzti2.pico)
 .bss           0x0010d5b0        0x0 libc_pic.a(cmpti2.pico)
 .bss           0x0010d5b0        0x0 libc_pic.a(clzti2.pico)
 .bss           0x0010d5b0        0x0 libc_pic.a(ashrti3.pico)
 .bss           0x0010d5b0        0x0 libc_pic.a(ashlti3.pico)
 .bss           0x0010d5b0        0x0 libc_pic.a(addvti3.pico)
 .bss           0x0010d5b0        0x0 libc_pic.a(addvsi3.pico)
 .bss           0x0010d5b0        0x0 libc_pic.a(absvti2.pico)
 .bss           0x0010d5b0        0x0 libc_pic.a(absvsi2.pico)
 .bss           0x0010d5b0        0x0 libc_pic.a(gcc_personality_v0.pico)
 .bss           0x0010d5b0        0x0 libc_pic.a(getwd.pico)
 .bss           0x0010d5b0        0x0 libc_pic.a(sigcompat.pico)
 .bss           0x0010d5b0        0x0 libc_pic.a(setpgrp.pico)
 .bss           0x0010d5b0        0x0 libc_pic.a(sethostid.pico)
 .bss           0x0010d5b0        0x0 libc_pic.a(killpg.pico)
 .bss           0x0010d5b0        0x0 libc_pic.a(gethostid.pico)
 .bss           0x0010d5b0        0x0 libc_pic.a(getdtablesize.pico)
 .bss           0x0010d5b0        0x0 libc_pic.a(creat.pico)
 .bss           0x0010d5b0        0x0 libc_pic.a(citrus_stdenc.pico)
 .bss           0x0010d5b0      0x1a5 libc_pic.a(citrus_iconv.pico)
 *fill*         0x0010d755        0x3 
 .bss           0x0010d758        0x0 libc_pic.a(citrus_esdb.pico)
 .bss           0x0010d758        0x0 libc_pic.a(citrus_ctype_fallback.pico)
 .bss           0x0010d758        0x8 libc_pic.a(citrus_csmapper.pico)
 .bss           0x0010d760        0x0 libc_pic.a(citrus_bcs_strtoul.pico)
 .bss           0x0010d760        0x0 libc_pic.a(ndbm.pico)
 .bss           0x0010d760        0x0 libc_pic.a(ndbmdatum.pico)
 .bss           0x0010d760        0x0 libc_pic.a(bt_debug.pico)
 .bss           0x0010d760        0x0 libc_pic.a(cdbw.pico)
 .bss           0x0010d760        0x0 libc_pic.a(atomic_init_cas.pico)
 .bss           0x0010d760        0x0 libc_pic.a(atomic_cas_64_cas.pico)
 .bss           0x0010d760        0x0 libc_pic.a(atomic_sub_64_cas.pico)
 .bss           0x0010d760        0x0 libc_pic.a(atomic_xor_64_cas.pico)
 .bss           0x0010d760        0x0 libc_pic.a(atomic_nand_64_cas.pico)
 .bss           0x0010d760        0x0 libc_pic.a(atomic.pico)
 .bss           0x0010d760        0x0 libc_pic.a(atomic_swap_64_cas.pico)
 .bss           0x0010d760        0x0 libc_pic.a(atomic_or_64_nv_cas.pico)
 .bss           0x0010d760        0x0 libc_pic.a(atomic_or_64_cas.pico)
 .bss           0x0010d760        0x0 libc_pic.a(atomic_inc_64_nv_cas.pico)
 .bss           0x0010d760        0x0 libc_pic.a(atomic_inc_64_cas.pico)
 .bss           0x0010d760        0x0 libc_pic.a(atomic_dec_64_nv_cas.pico)
 .bss           0x0010d760        0x0 libc_pic.a(atomic_dec_64_cas.pico)
 .bss           0x0010d760        0x0 libc_pic.a(atomic_and_64_nv_cas.pico)
 .bss           0x0010d760        0x0 libc_pic.a(atomic_and_64_cas.pico)
 .bss           0x0010d760        0x0 libc_pic.a(atomic_add_64_nv_cas.pico)
 .bss           0x0010d760        0x0 libc_pic.a(atomic_add_64_cas.pico)
 .bss           0x0010d760        0x0 libc_pic.a(compat_difftime.pico)
 .bss           0x0010d760      0x139 libc_pic.a(compat_localtime.pico)
 *fill*         0x0010d899        0x3 
 .bss           0x0010d89c        0x0 libc_pic.a(compat___shmctl13.pico)
 .bss           0x0010d89c        0x0 libc_pic.a(compat_mknod.pico)
 .bss           0x0010d89c        0x0 libc_pic.a(compat_adjtime.pico)
 .bss           0x0010d89c        0x0 libc_pic.a(compat_nanosleep.pico)
 .bss           0x0010d89c        0x0 libc_pic.a(compat_itimer.pico)
 .bss           0x0010d89c        0x0 libc_pic.a(compat_clock.pico)
 .bss           0x0010d89c        0x0 libc_pic.a(compat_settimeofday.pico)
 .bss           0x0010d89c        0x0 libc_pic.a(compat_wait4.pico)
 .bss           0x0010d89c        0x0 libc_pic.a(compat_utimes.pico)
 .bss           0x0010d89c        0x0 libc_pic.a(compat_socket.pico)
 .bss           0x0010d89c        0x0 libc_pic.a(compat_sched.pico)
 .bss           0x0010d89c        0x0 libc_pic.a(compat_getdirentries.pico)
 .bss           0x0010d89c        0x0 libc_pic.a(compat_getdents.pico)
 .bss           0x0010d89c        0x0 libc_pic.a(compat_unsetenv.pico)
 .bss           0x0010d89c        0x0 libc_pic.a(compat_random.pico)
 .bss           0x0010d89c        0x0 libc_pic.a(compat_putenv.pico)
 .bss           0x0010d89c        0x0 libc_pic.a(compat_fsetpos.pico)
 .bss           0x0010d89c        0x0 libc_pic.a(compat_fgetpos.pico)
 .bss           0x0010d89c       0x28 libc_pic.a(compat_ns_ntoa.pico)
 .bss           0x0010d8c4        0xc libc_pic.a(compat_ns_addr.pico)
 .bss           0x0010d8d0        0x0 libc_pic.a(__cmsg_alignbytes.pico)
 .bss           0x0010d8d0        0x0 libc_pic.a(compat_alloca.pico)
 .bss           0x0010d8d0        0x0 libc_pic.a(compat_syslog.pico)
 .bss           0x0010d8d0        0x0 libc_pic.a(compat___unvis13.pico)
 .bss           0x0010d8d0        0x0 libc_pic.a(compat___fts50.pico)
 .bss           0x0010d8d0        0x0 libc_pic.a(compat_utmp.pico)
 .bss           0x0010d8d0       0x38 libc_pic.a(compat_getpwent.pico)
 .bss           0x0010d908        0x0 libc_pic.a(compat_alphasort.pico)
 .bss           0x0010d908        0x0 libc_pic.a(compat_devname.pico)
 .bss           0x0010d908        0x0 libc_pic.a(compat_utime.pico)
 .bss           0x0010d908        0x0 libc_pic.a(compat_time.pico)
 .bss           0x0010d908        0x0 libc_pic.a(compat_utmpx.pico)
 .bss           0x0010d908        0x0 libc_pic.a(compat_unvis.pico)
 .bss           0x0010d908       0x32 libc_pic.a(compat_timezone.pico)
 *fill*         0x0010d93a        0x2 
 .bss           0x0010d93c        0x1 libc_pic.a(compat_times.pico)
 *fill*         0x0010d93d        0x3 
 .bss           0x0010d940        0x0 libc_pic.a(compat_sigsetops.pico)
 .bss           0x0010d940        0x0 libc_pic.a(compat_signame.pico)
 .bss           0x0010d940        0x0 libc_pic.a(compat_siglist.pico)
 .bss           0x0010d940        0x0 libc_pic.a(compat_scandir.pico)
 .bss           0x0010d940        0x0 libc_pic.a(compat__readdir_unlocked30.pico)
 .bss           0x0010d940        0x0 libc_pic.a(compat___glob13.pico)
 .bss           0x0010d940        0x0 libc_pic.a(compat_glob.pico)
 .bss           0x0010d940        0x0 libc_pic.a(compat_fts.pico)
 .bss           0x0010d940        0x0 libc_pic.a(compat_errlist.pico)
 .bss           0x0010d940        0x0 libc_pic.a(compat_setlocale32.pico)
 .bss           0x0010d940        0x0 libc_pic.a(compat_setlocale1.pico)
 .bss           0x0010d940        0x0 libc_pic.a(compat_ndbmdatum.pico)
 .bss           0x0010d940        0x0 libc_pic.a(lchown.pico)
 .bss           0x0010d940        0x0 libc_pic.a(lchmod.pico)
 .bss           0x0010d940        0x0 libc_pic.a(lchflags.pico)
 .bss           0x0010d940        0x0 libc_pic.a(uuid_is_nil.pico)
 .bss           0x0010d940       0x28 libc_pic.a(libunwind.pico)
 .bss           0x0010d968        0x0 libc_pic.a(read_tsc.pico)
 .bss           0x0010d968        0x0 libc_pic.a(setrlimit.pico)
 .bss           0x0010d968        0x0 libc_pic.a(vfork.pico)
 .bss           0x0010d968        0x0 libc_pic.a(lutimes.pico)
 .bss           0x0010d968        0x0 libc_pic.a(futimes.pico)
 .bss           0x0010d968        0x0 libc_pic.a(utimes.pico)
 .bss           0x0010d968        0x0 libc_pic.a(utimensat.pico)
 .bss           0x0010d968        0x0 libc_pic.a(umask.pico)
 .bss           0x0010d968        0x0 libc_pic.a(socketpair.pico)
 .bss           0x0010d968        0x0 libc_pic.a(sigsuspend.pico)
 .bss           0x0010d968        0x0 libc_pic.a(shmctl.pico)
 .bss           0x0010d968        0x0 libc_pic.a(settimeofday.pico)
 .bss           0x0010d968        0x0 libc_pic.a(setgroups.pico)
 .bss           0x0010d968        0x0 libc_pic.a(rmdir.pico)
 .bss           0x0010d968        0x0 libc_pic.a(posix_spawn.pico)
 .bss           0x0010d968        0x0 libc_pic.a(poll.pico)
 .bss           0x0010d968        0x0 libc_pic.a(pipe.pico)
 .bss           0x0010d968        0x0 libc_pic.a(minix_rs.pico)
 .bss           0x0010d968        0x0 libc_pic.a(listen.pico)
 .bss           0x0010d968        0x0 libc_pic.a(getvfsstat.pico)
 .bss           0x0010d968        0x0 libc_pic.a(getsockopt.pico)
 .bss           0x0010d968        0x0 libc_pic.a(priority.pico)
 .bss           0x0010d968        0x0 libc_pic.a(__getlogin.pico)
 .bss           0x0010d968        0x0 libc_pic.a(setitimer.pico)
 .bss           0x0010d968        0x0 libc_pic.a(getitimer.pico)
 .bss           0x0010d968        0x0 libc_pic.a(getegid.pico)
 .bss           0x0010d968        0x0 libc_pic.a(fstatvfs.pico)
 .bss           0x0010d968        0x0 libc_pic.a(dup2.pico)
 .bss           0x0010d968        0x0 libc_pic.a(clock_settime.pico)
 .bss           0x0010d968        0x0 libc_pic.a(clock_getres.pico)
 .bss           0x0010d968        0x0 libc_pic.a(chown.pico)
 .bss           0x0010d968        0x0 libc_pic.a(chmod.pico)
 .bss           0x0010d968        0x0 libc_pic.a(adjtime.pico)
 .bss           0x0010d968        0x0 libc_pic.a(accept.pico)
 .bss           0x0010d968        0x0 libc_pic.a(tcsetattr.pico)
 .bss           0x0010d968        0x0 libc_pic.a(wmemset.pico)
 .bss           0x0010d968        0x0 libc_pic.a(wmemcpy.pico)
 .bss           0x0010d968        0x0 libc_pic.a(wcscpy.pico)
 .bss           0x0010d968        0x0 libc_pic.a(wcscmp.pico)
 .bss           0x0010d968        0x0 libc_pic.a(strsep.pico)
 .bss           0x0010d968        0x0 libc_pic.a(strncat.pico)
 .bss           0x0010d968        0x0 libc_pic.a(stresep.pico)
 .bss           0x0010d968        0x0 libc_pic.a(__strsignal.pico)
 .bss           0x0010d968        0x0 libc_pic.a(strtok_r.pico)
 .bss           0x0010d968        0x0 libc_pic.a(stpncpy.pico)
 .bss           0x0010d968        0x0 libc_pic.a(stderr.pico)
 .bss           0x0010d968        0x0 libc_pic.a(erand48_ieee754.pico)
 .bss           0x0010d968        0x0 libc_pic.a(strtoll.pico)
 .bss           0x0010d968        0x0 libc_pic.a(setenv.pico)
 .bss           0x0010d968        0x0 libc_pic.a(random.pico)
 .bss           0x0010d968        0x0 libc_pic.a(_rand48.pico)
 .bss           0x0010d968        0x0 libc_pic.a(mktemp.pico)
 .bss           0x0010d968        0x0 libc_pic.a(gets.pico)
 .bss           0x0010d968        0x0 libc_pic.a(vswscanf.pico)
 .bss           0x0010d968        0x0 libc_pic.a(vswprintf.pico)
 .bss           0x0010d968        0x0 libc_pic.a(vfwscanf.pico)
 .bss           0x0010d968        0x0 libc_pic.a(vfwprintf.pico)
 .bss           0x0010d968        0x0 libc_pic.a(vdprintf.pico)
 .bss           0x0010d968        0x0 libc_pic.a(ungetwc.pico)
 .bss           0x0010d968        0x0 libc_pic.a(sscanf.pico)
 .bss           0x0010d968        0x0 libc_pic.a(setvbuf.pico)
 .bss           0x0010d968        0x0 libc_pic.a(perror.pico)
 .bss           0x0010d968        0x0 libc_pic.a(gettemp.pico)
 .bss           0x0010d968        0x0 libc_pic.a(ftello.pico)
 .bss           0x0010d968        0x0 libc_pic.a(ftell.pico)
 .bss           0x0010d968        0x0 libc_pic.a(fputwc.pico)
 .bss           0x0010d968        0x0 libc_pic.a(fgetwc.pico)
 .bss           0x0010d968        0x0 libc_pic.a(regfree.pico)
 .bss           0x0010d968        0x0 libc_pic.a(getprotobynumber_r.pico)
 .bss           0x0010d968        0x0 libc_pic.a(getprotobyname_r.pico)
 .bss           0x0010d968      0x4a4 libc_pic.a(getnetent.pico)
 .bss           0x0010de0c       0x20 libc_pic.a(stack_protector.pico)
                0x0010de0c                __stack_chk_guard
 .bss           0x0010de2c        0x0 libc_pic.a(wcstold.pico)
 .bss           0x0010de2c        0x0 libc_pic.a(wcstof.pico)
 .bss           0x0010de2c        0x0 libc_pic.a(wcstod.pico)
 .bss           0x0010de2c        0x0 libc_pic.a(wcstoumax.pico)
 .bss           0x0010de2c        0x0 libc_pic.a(wcstoimax.pico)
 .bss           0x0010de2c        0x0 libc_pic.a(inet_network.pico)
 .bss           0x0010de2c        0x0 libc_pic.a(udivsi3.pico)
 .bss           0x0010de2c        0x0 libc_pic.a(divsi3.pico)
 .bss           0x0010de2c        0x0 libc_pic.a(verrx.pico)
 .bss           0x0010de2c        0x0 libc_pic.a(verr.pico)
 .bss           0x0010de2c        0x0 libc_pic.a(warn.pico)
 .bss           0x0010de2c        0x0 libc_pic.a(wait3.pico)
 .bss           0x0010de2c      0x209 libc_pic.a(utmpx.pico)
 *fill*         0x0010e035        0x3 
 .bss           0x0010e038       0x2c libc_pic.a(utmp.pico)
 .bss           0x0010e064        0x0 libc_pic.a(unvis.pico)
 .bss           0x0010e064        0x4 libc_pic.a(times.pico)
 .bss           0x0010e068        0x0 libc_pic.a(siglist.pico)
 .bss           0x0010e068       0x28 libc_pic.a(pwcache.pico)
 .bss           0x0010e090        0x0 libc_pic.a(nlist_elf32.pico)
 .bss           0x0010e090        0x0 libc_pic.a(nlist_aout.pico)
 .bss           0x0010e090        0x0 libc_pic.a(lockf.pico)
 .bss           0x0010e090      0xcc4 libc_pic.a(getpwent.pico)
 .bss           0x0010ed54        0xc libc_pic.a(getnetgrent.pico)
 .bss           0x0010ed60        0x0 libc_pic.a(getgroupmembership.pico)
 .bss           0x0010ed60      0x838 libc_pic.a(getgrent.pico)
 .bss           0x0010f598        0x0 libc_pic.a(getcwd.pico)
 .bss           0x0010f598        0x0 libc_pic.a(execvp.pico)
 .bss           0x0010f598        0x0 libc_pic.a(execl.pico)
 .bss           0x0010f598      0x40c libc_pic.a(devname.pico)
 .bss           0x0010f9a4       0x22 libc_pic.a(arc4random.pico)
 *fill*         0x0010f9c6        0x2 
 .bss           0x0010f9c8       0x18 libc_pic.a(InstrProfilingPlatformOther.pico)
 .bss           0x0010f9e0        0x0 libc_pic.a(citrus_mapper.pico)
 .bss           0x0010f9e0        0x0 libc_pic.a(citrus_hash.pico)
 .bss           0x0010f9e0        0x0 libc_pic.a(compat_gettimeofday.pico)
 .bss           0x0010f9e0        0x0 libc_pic.a(compat_getrusage.pico)
 .bss           0x0010f9e0        0x0 libc_pic.a(compat_stat.pico)
 .bss           0x0010f9e0      0x108 libc_pic.a(compat_readdir.pico)
 .bss           0x0010fae8        0x0 libc_pic.a(compat_opendir.pico)
 .bss           0x0010fae8        0x0 libc_pic.a(unwind_registers.pico)
 .bss           0x0010fae8        0x0 libc_pic.a(setpgid.pico)
 .bss           0x0010fae8        0x0 libc_pic.a(getrusage.pico)
 .bss           0x0010fae8        0x0 libc_pic.a(__getcwd.pico)
 .bss           0x0010fae8        0x0 libc_pic.a(environ.pico)
 .bss           0x0010fae8        0x0 libc_pic.a(setuid.pico)
 .bss           0x0010fae8        0x0 libc_pic.a(setgid.pico)
 .bss           0x0010fae8        0x0 libc_pic.a(setsid.pico)
 .bss           0x0010fae8        0x0 libc_pic.a(mkdir.pico)
 .bss           0x0010fae8        0x0 libc_pic.a(geteuid.pico)
 .bss           0x0010fae8        0x0 libc_pic.a(fork.pico)
 .bss           0x0010fae8        0x0 libc_pic.a(execve.pico)
 .bss           0x0010fae8        0x0 libc_pic.a(wmemchr.pico)
 .bss           0x0010fae8        0x0 libc_pic.a(explicit_memset.pico)
 .bss           0x0010fae8        0x0 libc_pic.a(strstr.pico)
 .bss           0x0010fae8        0x0 libc_pic.a(vsscanf.pico)
 .bss           0x0010fae8        0x8 libc_pic.a(vfscanf.pico)
                0x0010fae8                __scanfdebug
 .bss           0x0010faf0        0x0 libc_pic.a(ungetc.pico)
 .bss           0x0010faf0        0x0 libc_pic.a(getprotoent_r.pico)
 .bss           0x0010faf0        0x0 libc_pic.a(sha2.pico)
 .bss           0x0010faf0        0x0 libc_pic.a(bswap64.pico)
 .bss           0x0010faf0        0x0 libc_pic.a(verrc.pico)
 .bss           0x0010faf0        0x0 libc_pic.a(vwarn.pico)
 .bss           0x0010faf0        0x0 libc_pic.a(warnx.pico)
 .bss           0x0010faf0        0x0 libc_pic.a(waitpid.pico)
 .bss           0x0010faf0        0x0 libc_pic.a(vis.pico)
 .bss           0x0010faf0        0x0 libc_pic.a(stringlist.pico)
 .bss           0x0010faf0        0x0 libc_pic.a(sleep.pico)
 .bss           0x0010faf0        0x0 libc_pic.a(rewinddir.pico)
 .bss           0x0010faf0        0x0 libc_pic.a(getdevmajor.pico)
 .bss           0x0010faf0        0x0 libc_pic.a(fts.pico)
 .bss           0x0010faf0        0x0 libc_pic.a(closedir.pico)
 .bss           0x0010faf0        0x0 libc_pic.a(strtod.pico)
 .bss           0x0010faf0        0x0 libc_pic.a(strtold_px.pico)
 .bss           0x0010faf0        0x0 libc_pic.a(strtof.pico)
 .bss           0x0010faf0        0x0 libc_pic.a(citrus_module.pico)
 .bss           0x0010faf0        0x0 libc_pic.a(stack_utils.pico)
 .bss           0x0010faf0        0x0 libc_pic.a(kernel_utils.pico)
 .bss           0x0010faf0        0x0 libc_pic.a(wait4.pico)
 .bss           0x0010faf0        0x0 libc_pic.a(chdir.pico)
 .bss           0x0010faf0        0x0 libc_pic.a(strrchr.pico)
 .bss           0x0010faf0        0x0 libc_pic.a(wcslen.pico)
 .bss           0x0010faf0        0x0 libc_pic.a(wcschr.pico)
 .bss           0x0010faf0        0x0 libc_pic.a(strcoll.pico)
 .bss           0x0010faf0        0x0 libc_pic.a(strtoumax.pico)
 .bss           0x0010faf0        0x0 libc_pic.a(reallocarr.pico)
 .bss           0x0010faf0        0x0 libc_pic.a(iswctype_mb.pico)
 .bss           0x0010faf0        0x0 libc_pic.a(multibyte_c90.pico)
 .bss           0x0010faf0        0x0 libc_pic.a(vwarnc.pico)
 .bss           0x0010faf0        0x0 libc_pic.a(vwarnx.pico)
 .bss           0x0010faf0        0x0 libc_pic.a(sysctlbyname.pico)
 .bss           0x0010faf0        0x0 libc_pic.a(opendir.pico)
 .bss           0x0010faf0        0x0 libc_pic.a(initdir.pico)
 .bss           0x0010faf0        0x0 libc_pic.a(alphasort.pico)
 .bss           0x0010faf0        0x0 libc_pic.a(strtord.pico)
 .bss           0x0010faf0        0x0 libc_pic.a(ulp.pico)
 .bss           0x0010faf0        0x0 libc_pic.a(strtopx.pico)
 .bss           0x0010faf0        0x0 libc_pic.a(merge.pico)
 .bss           0x0010faf0        0x0 libc_pic.a(telldir.pico)
 .bss           0x0010faf0        0x0 libc_pic.a(readdir.pico)
 .bss           0x0010faf0        0x0 libc_pic.a(getdents.pico)
 .bss           0x0010faf0        0x0 libc_pic.a(ucontext.pico)
 .bss           0x0010faf0        0x0 libc_pic.a(_ucontext.pico)
 .bss           0x0010faf0        0x0 libc_pic.a(_mcontext.pico)
 .bss           0x0010faf0        0x0 libc_pic.a(socket.pico)
 .bss           0x0010faf0        0x0 libc_pic.a(bind.pico)
 .bss           0x0010faf0        0x0 libc_pic.a(mknod.pico)
 .bss           0x0010faf0        0x0 libc_pic.a(vectorio.pico)
 .bss           0x0010faf0        0x0 libc_pic.a(sendto.pico)
 .bss           0x0010faf0        0x0 libc_pic.a(ioctl.pico)
 .bss           0x0010faf0        0x0 libc_pic.a(strftime.pico)
 .bss           0x0010faf0       0x50 libc_pic.a(malloc.pico)
 .bss           0x0010fb40        0x0 libc_pic.a(readlink.pico)
 .bss           0x0010fb40        0x0 libc_pic.a(getuid.pico)
 .bss           0x0010fb40        0x0 libc_pic.a(getgid.pico)
 .bss           0x0010fb40        0x0 libc_pic.a(sbrk.pico)
 .bss           0x0010fb40        0x0 libc_pic.a(brk.pico)
 .bss           0x0010fb40        0x0 libc_pic.a(brksize.pico)
 .bss           0x0010fb40        0x0 libc_pic.a(wsetup.pico)
 .bss           0x0010fb40        0x0 libc_pic.a(fwalk.pico)
 .bss           0x0010fb40        0x0 libc_pic.a(res_send.pico)
 .bss           0x0010fb40        0x0 libc_pic.a(recvfrom.pico)
 .bss           0x0010fb40        0x0 libc_pic.a(getpeername.pico)
 .bss           0x0010fb40        0x0 libc_pic.a(getnameinfo.pico)
 .bss           0x0010fb40        0x0 libc_pic.a(getservbyport_r.pico)
 .bss           0x0010fb40        0x0 libc_pic.a(ev_streams.pico)
 .bss           0x0010fb40        0x0 libc_pic.a(ev_timers.pico)
 .bss           0x0010fb40        0x0 libc_pic.a(assert.pico)
 .bss           0x0010fb40        0x0 libc_pic.a(clock_gettime.pico)
 .bss           0x0010fb40        0x0 libc_pic.a(if_indextoname.pico)
 .bss           0x0010fb40        0x0 libc_pic.a(res_query.pico)
 .bss           0x0010fb40        0x0 libc_pic.a(res_mkquery.pico)
 .bss           0x0010fb40       0x10 libc_pic.a(res_init.pico)
 .bss           0x0010fb50        0x0 libc_pic.a(puts.pico)
 .bss           0x0010fb50        0x8 libc_pic.a(getaddrinfo.pico)
 .bss           0x0010fb58        0x0 libc_pic.a(getservbyname_r.pico)
 .bss           0x0010fb58        0x0 libc_pic.a(md5c.pico)
 .bss           0x0010fb58        0x0 libc_pic.a(inet_addr.pico)
 .bss           0x0010fb58        0x0 libc_pic.a(vasprintf.pico)
 .bss           0x0010fb58        0x0 libc_pic.a(fgets.pico)
 .bss           0x0010fb58        0x0 libc_pic.a(if_nametoindex.pico)
 .bss           0x0010fb58        0x0 libc_pic.a(getservent_r.pico)
 .bss           0x0010fb58        0x0 libc_pic.a(getifaddrs.pico)
 .bss           0x0010fb58        0x0 libc_pic.a(cdbr.pico)
 .bss           0x0010fb58        0x0 libc_pic.a(mi_vector_hash.pico)
 .bss           0x0010fb58        0x0 libc_pic.a(atoi.pico)
 .bss           0x0010fb58       0x7f libc_pic.a(res_debug.pico)
 *fill*         0x0010fbd7        0x1 
 .bss           0x0010fbd8      0x800 libc_pic.a(strerror.pico)
 .bss           0x001103d8        0x0 libc_pic.a(strtoul.pico)
 .bss           0x001103d8        0x0 libc_pic.a(fputs.pico)
 .bss           0x001103d8        0x0 libc_pic.a(fputc.pico)
 .bss           0x001103d8        0x0 libc_pic.a(ns_print.pico)
 .bss           0x001103d8        0x0 libc_pic.a(ns_parse.pico)
 .bss           0x001103d8        0x0 libc_pic.a(base64.pico)
 .bss           0x001103d8        0x0 libc_pic.a(nsap_addr.pico)
 .bss           0x001103d8        0x0 libc_pic.a(inet_ntop.pico)
 .bss           0x001103d8      0x3f4 libc_pic.a(mtctxres.pico)
 .bss           0x001107cc        0x0 libc_pic.a(ns_ttl.pico)
 .bss           0x001107cc        0x0 libc_pic.a(ns_samedomain.pico)
 .bss           0x001107cc        0x0 libc_pic.a(sethostent.pico)
 .bss           0x001107cc        0x0 libc_pic.a(rewind.pico)
 .bss           0x001107cc        0x0 libc_pic.a(fseek.pico)
 .bss           0x001107cc      0x401 libc_pic.a(res_data.pico)
 *fill*         0x00110bcd        0x3 
 .bss           0x00110bd0        0x0 libc_pic.a(h_errno.pico)
 .bss           0x00110bd0     0x4014 libc_pic.a(gethnamaddr.pico)
 .bss           0x00114be4        0x0 libc_pic.a(inet_pton.pico)
 .bss           0x00114be4        0x0 libc_pic.a(fseeko.pico)
 .bss           0x00114be4        0x0 libc_pic.a(fparseln.pico)
 .bss           0x00114be4        0x0 libc_pic.a(fgetln.pico)
 .bss           0x00114be4        0x0 libc_pic.a(res_compat.pico)
 .bss           0x00114be4        0x0 libc_pic.a(res_comp.pico)
 .bss           0x00114be4        0x0 libc_pic.a(ns_netint.pico)
 .bss           0x00114be4        0x0 libc_pic.a(ns_name.pico)
 .bss           0x00114be4        0x0 libc_pic.a(strncasecmp.pico)
 .bss           0x00114be4        0x0 libc_pic.a(strtol.pico)
 .bss           0x00114be4        0x0 libc_pic.a(vsprintf.pico)
 .bss           0x00114be4        0x0 libc_pic.a(fgetstr.pico)
 .bss           0x00114be4        0x0 libc_pic.a(getdelim.pico)
 .bss           0x00114be4       0x2c libc_pic.a(nsparser.pico)
 .bss           0x00114c10       0x30 libc_pic.a(nslexer.pico)
                0x00114c10                _nsyyin
                0x00114c14                _nsyyout
                0x00114c18                _nsyy_flex_debug
 .bss           0x00114c40       0x20 libc_pic.a(nsdispatch.pico)
 .bss           0x00114c60        0x0 libc_pic.a(syslog.pico)
 .bss           0x00114c60        0x0 libc_pic.a(getprogname.pico)
 .bss           0x00114c60        0x0 libc_pic.a(gethostname.pico)
 .bss           0x00114c60        0x0 libc_pic.a(connect.pico)
 .bss           0x00114c60      0x141 libc_pic.a(localtime.pico)
                0x00114c60                __timezone13
                0x00114c64                daylight
                0x00114c64                _daylight
 *fill*         0x00114da1        0x3 
 .bss           0x00114da4       0x48 libc_pic.a(asctime.pico)
 .bss           0x00114dec        0x0 libc_pic.a(strcat.pico)
 .bss           0x00114dec        0x0 libc_pic.a(strerror_r.pico)
 .bss           0x00114dec        0x0 libc_pic.a(strcasecmp.pico)
 .bss           0x00114dec        0x0 libc_pic.a(exit.pico)
 .bss           0x00114dec        0x0 libc_pic.a(bsearch.pico)
 .bss           0x00114dec      0x238 libc_pic.a(atexit.pico)
 .bss           0x00115024        0x0 libc_pic.a(snprintf_ss.pico)
 .bss           0x00115024        0x0 libc_pic.a(putchar.pico)
 .bss           0x00115024        0x0 libc_pic.a(printf.pico)
 .bss           0x00115024        0x0 libc_pic.a(fread.pico)
 .bss           0x00115024        0x0 libc_pic.a(fprintf.pico)
 .bss           0x00115024        0x0 libc_pic.a(fopen.pico)
 .bss           0x00115024        0x0 libc_pic.a(catopen.pico)
 .bss           0x00115024        0x0 libc_pic.a(catgets.pico)
 .bss           0x00115024        0x0 libc_pic.a(catclose.pico)
 .bss           0x00115024        0x0 libc_pic.a(send.pico)
 .bss           0x00115024        0x0 libc_pic.a(usleep.pico)
 .bss           0x00115024        0x0 libc_pic.a(errlist.pico)
 .bss           0x00115024        0x0 libc_pic.a(nanosleep.pico)
 .bss           0x00115024        0x0 libc_pic.a(gettimeofday.pico)
 .bss           0x00115024        0x0 libc_pic.a(access.pico)
 .bss           0x00115024        0x0 libc_pic.a(wbuf.pico)
 .bss           0x00115024        0x0 libc_pic.a(vsnprintf_ss.pico)
 .bss           0x00115024        0x0 libc_pic.a(select.pico)
 .bss           0x00115024        0x0 libc_pic.a(dummy_lc_collate.pico)
 .bss           0x00115024        0x0 libc_pic.a(generic_lc_all.pico)
 .bss           0x00115024        0x5 libc_pic.a(setlocale.pico)
                0x00115024                _PathLocale
 *fill*         0x00115029        0x3 
 .bss           0x0011502c        0x0 libc_pic.a(citrus_lc_messages.pico)
 .bss           0x0011502c        0x0 libc_pic.a(citrus_lc_time.pico)
 .bss           0x0011502c        0x0 libc_pic.a(citrus_lc_numeric.pico)
 .bss           0x0011502c        0x0 libc_pic.a(citrus_lc_monetary.pico)
 .bss           0x0011502c        0x0 libc_pic.a(citrus_lc_ctype.pico)
 .bss           0x0011502c        0x0 libc_pic.a(citrus_lookup.pico)
 .bss           0x0011502c        0x0 libc_pic.a(citrus_db_hash.pico)
 .bss           0x0011502c        0x0 libc_pic.a(citrus_db.pico)
 .bss           0x0011502c        0x0 libc_pic.a(citrus_bcs_strtol.pico)
 .bss           0x0011502c        0x0 libc_pic.a(strndup.pico)
 .bss           0x0011502c        0x0 libc_pic.a(rune.pico)
 .bss           0x0011502c        0x0 libc_pic.a(_wctype.pico)
 .bss           0x0011502c        0x0 libc_pic.a(_wctrans.pico)
 .bss           0x0011502c        0x0 libc_pic.a(fix_grouping.pico)
 .bss           0x0011502c        0x0 libc_pic.a(__mb_cur_max.pico)
 .bss           0x0011502c        0x0 libc_pic.a(citrus_mmap.pico)
 .bss           0x0011502c        0x0 libc_pic.a(citrus_memstream.pico)
 .bss           0x0011502c        0x0 libc_pic.a(citrus_bcs.pico)
 .bss           0x0011502c        0x0 libc_pic.a(strtodg.pico)
 .bss           0x0011502c        0x0 libc_pic.a(sum.pico)
 .bss           0x0011502c        0x0 libc_pic.a(hexnan.pico)
 .bss           0x0011502c        0x0 libc_pic.a(gethex.pico)
 .bss           0x0011502c        0x0 libc_pic.a(smisc.pico)
 .bss           0x0011502c        0x0 libc_pic.a(hd_init.pico)
 .bss           0x0011502c        0x0 libc_pic.a(rec_put.pico)
 .bss           0x0011502c        0x0 libc_pic.a(rec_open.pico)
 .bss           0x0011502c        0x0 libc_pic.a(fdopen.pico)
 .bss           0x0011502c        0x0 libc_pic.a(rec_seq.pico)
 .bss           0x0011502c        0x0 libc_pic.a(rec_get.pico)
 .bss           0x0011502c        0x0 libc_pic.a(rec_delete.pico)
 .bss           0x0011502c        0x0 libc_pic.a(rec_close.pico)
 .bss           0x0011502c        0x0 libc_pic.a(mmap.pico)
 .bss           0x0011502c        0x0 libc_pic.a(ftruncate.pico)
 .bss           0x0011502c        0x0 libc_pic.a(rget.pico)
 .bss           0x0011502c        0x0 libc_pic.a(refill.pico)
 .bss           0x0011502c        0x0 libc_pic.a(makebuf.pico)
 .bss           0x0011502c        0x0 libc_pic.a(flags.pico)
 .bss           0x0011502c        0x0 libc_pic.a(fclose.pico)
 .bss           0x0011502c        0x0 libc_pic.a(isatty.pico)
 .bss           0x0011502c        0x0 libc_pic.a(rec_utils.pico)
 .bss           0x0011502c        0x0 libc_pic.a(rec_search.pico)
 .bss           0x0011502c        0x0 libc_pic.a(tcgetattr.pico)
 .bss           0x0011502c        0x0 libc_pic.a(strtoi.pico)
 .bss           0x0011502c        0x0 libc_pic.a(vsnprintf.pico)
 .bss           0x0011502c        0x0 libc_pic.a(vfprintf.pico)
 .bss           0x0011502c        0x0 libc_pic.a(multibyte_amd1.pico)
 .bss           0x0011502c        0x0 libc_pic.a(localeconv.pico)
 .bss           0x0011502c        0x0 libc_pic.a(hdtoa.pico)
 .bss           0x0011502c        0x0 libc_pic.a(ldtoa.pico)
 .bss           0x0011502c        0x0 libc_pic.a(dtoa.pico)
 .bss           0x0011502c        0x0 libc_pic.a(umoddi3.pico)
 .bss           0x0011502c        0x0 libc_pic.a(strdup.pico)
 .bss           0x0011502c        0x0 libc_pic.a(fpclassifyl.pico)
 .bss           0x0011502c        0x0 libc_pic.a(fpclassifyd_ieee754.pico)
 .bss           0x0011502c        0x0 libc_pic.a(flt_rounds.pico)
 .bss           0x0011502c        0x0 libc_pic.a(gdtoa.pico)
 .bss           0x0011502c        0x0 libc_pic.a(gmisc.pico)
 .bss           0x0011502c        0x0 libc_pic.a(dmisc.pico)
 *fill*         0x0011502c        0x4 
 .bss           0x00115030      0x98c libc_pic.a(misc.pico)
 .bss           0x001159bc        0x0 libc_pic.a(hash_page.pico)
 .bss           0x001159bc        0x0 libc_pic.a(hash_bigkey.pico)
 .bss           0x001159bc        0x0 libc_pic.a(db.pico)
 .bss           0x001159bc        0x0 libc_pic.a(hash.pico)
 .bss           0x001159bc        0x0 libc_pic.a(bt_open.pico)
 .bss           0x001159bc        0x0 libc_pic.a(bt_get.pico)
 .bss           0x001159bc        0x0 libc_pic.a(bt_conv.pico)
 .bss           0x001159bc        0x0 libc_pic.a(bt_close.pico)
 .bss           0x001159bc        0x0 libc_pic.a(memcmp.pico)
 .bss           0x001159bc        0x0 libc_pic.a(hash_log2.pico)
 .bss           0x001159bc        0x0 libc_pic.a(hash_func.pico)
 .bss           0x001159bc        0x0 libc_pic.a(hash_buf.pico)
 .bss           0x001159bc        0x0 libc_pic.a(dbfile.pico)
 .bss           0x001159bc        0x0 libc_pic.a(bt_put.pico)
 .bss           0x001159bc        0x0 libc_pic.a(bt_delete.pico)
 .bss           0x001159bc        0x0 libc_pic.a(unlink.pico)
 .bss           0x001159bc        0x0 libc_pic.a(issetugid.pico)
 .bss           0x001159bc        0x0 libc_pic.a(fcntl.pico)
 .bss           0x001159bc        0x0 libc_pic.a(getenv.pico)
 .bss           0x001159bc       0x19 libc_pic.a(_env.pico)
 *fill*         0x001159d5        0x3 
 .bss           0x001159d8        0x0 libc_pic.a(rb.pico)
 .bss           0x001159d8        0x0 libc_pic.a(bt_split.pico)
 .bss           0x001159d8        0x0 libc_pic.a(bt_seq.pico)
 .bss           0x001159d8        0x0 libc_pic.a(bt_search.pico)
 .bss           0x001159d8        0x0 libc_pic.a(strncmp.pico)
 .bss           0x001159d8        0x0 libc_pic.a(strcspn.pico)
 .bss           0x001159d8        0x0 libc_pic.a(bt_utils.pico)
 .bss           0x001159d8        0x0 libc_pic.a(bt_overflow.pico)
 .bss           0x001159d8        0x0 libc_pic.a(memmove.pico)
 .bss           0x001159d8        0x0 libc_pic.a(bt_page.pico)
 .bss           0x001159d8        0x0 libc_pic.a(mpool.pico)
 .bss           0x001159d8        0x0 libc_pic.a(pwrite.pico)
 .bss           0x001159d8        0x0 libc_pic.a(pread.pico)
 .bss           0x001159d8        0x0 libc_pic.a(fsync.pico)
 .bss           0x001159d8        0x1 libc_pic.a(abort.pico)
 *fill*         0x001159d9        0x3 
 .bss           0x001159dc        0x0 libc_pic.a(fwrite.pico)
 .bss           0x001159dc        0x0 libc_pic.a(fvwrite.pico)
 .bss           0x001159dc     0x18b4 libc_pic.a(findfp.pico)
 .bss           0x00117290        0x0 libc_pic.a(fflush.pico)
 .bss           0x00117290        0x4 libc_pic.a(sysconf.pico)
 .bss           0x00117294        0x0 libc_pic.a(signal.pico)
 .bss           0x00117294        0x0 libc_pic.a(raise.pico)
 .bss           0x00117294        0x4 libc_pic.a(getpagesize.pico)
 .bss           0x00117298        0x0 libc_pic.a(udivdi3.pico)
 .bss           0x00117298        0x0 libc_pic.a(_exit.pico)
 .bss           0x00117298        0x0 libc_pic.a(sigaction.pico)
 .bss           0x00117298        0x0 libc_pic.a(pathconf.pico)
 .bss           0x00117298        0x0 libc_pic.a(open.pico)
 .bss           0x00117298        0x0 libc_pic.a(loadname.pico)
 .bss           0x00117298        0x0 libc_pic.a(kill.pico)
 .bss           0x00117298        0x0 libc_pic.a(getrlimit.pico)
 .bss           0x00117298        0x0 libc_pic.a(getpid.pico)
 .bss           0x00117298        0x0 libc_pic.a(fpathconf.pico)
 .bss           0x00117298        0x0 libc_pic.a(strcpy.pico)
 .bss           0x00117298        0x0 libc_pic.a(memchr.pico)
 .bss           0x00117298        0x0 libc_pic.a(stdio.pico)
 .bss           0x00117298        0x0 libc_pic.a(sysctlgetmibinfo.pico)
 .bss           0x00117298        0x0 libc_pic.a(sysctl.pico)
 .bss           0x00117298        0x0 libc_pic.a(__sigreturn.pico)
 .bss           0x00117298        0x0 libc_pic.a(__sysctl.pico)
 .bss           0x00117298        0x0 libc_pic.a(write.pico)
 .bss           0x00117298        0x0 libc_pic.a(stat.pico)
 *fill*         0x00117298        0x8 
 .bss           0x001172a0       0x40 libc_pic.a(sigreturn.pico)
 .bss           0x001172e0        0x0 libc_pic.a(read.pico)
 .bss           0x001172e0        0x0 libc_pic.a(lseek.pico)
 .bss           0x001172e0        0x0 libc_pic.a(close.pico)
 .bss           0x001172e0        0x0 libc_pic.a(memset.pico)
 .bss           0x001172e0        0x0 libc_pic.a(memcpy.pico)
 .bss           0x001172e0        0x0 libc_pic.a(strpbrk.pico)
 .bss           0x001172e0        0x0 libc_pic.a(strncpy.pico)
 .bss           0x001172e0        0x0 libc_pic.a(strlcpy.pico)
 .bss           0x001172e0        0x0 libc_pic.a(strlcat.pico)
 .bss           0x001172e0        0x0 libc_pic.a(strtoimax.pico)
 .bss           0x001172e0        0x0 libc_pic.a(qsort.pico)
 .bss           0x001172e0        0x0 libc_pic.a(global_locale.pico)
 .bss           0x001172e0        0x0 libc_pic.a(isctype.pico)
 .bss           0x001172e0        0x0 libc_pic.a(moddi3.pico)
 .bss           0x001172e0        0x0 libc_pic.a(divdi3.pico)
 .bss           0x001172e0        0x0 libc_pic.a(sigprocmask.pico)
 .bss           0x001172e0        0x0 libc_pic.a(strlen.pico)
 .bss           0x001172e0        0x0 libc_pic.a(strchr.pico)
 .bss           0x001172e0        0x0 libc_pic.a(runetable.pico)
 .bss           0x001172e0        0x0 libc_pic.a(toupper_.pico)
 .bss           0x001172e0        0x0 libc_pic.a(tolower_.pico)
 .bss           0x001172e0        0x0 libc_pic.a(ctype_.pico)
 .bss           0x001172e0        0x0 libc_pic.a(citrus_ctype.pico)
 .bss           0x001172e0        0x0 libc_pic.a(syscall.pico)
 .bss           0x001172e0        0x0 libc_pic.a(strcmp.pico)
 .bss           0x001172e0        0x0 libc_pic.a(_errno.pico)
 .bss           0x001172e0        0x0 libc_pic.a(citrus_none.pico)
 .bss           0x001172e0        0x4 libc_pic.a(init.pico)
                0x001172e0                _minix_kerninfo
 .bss           0x001172e4        0x0 libc_pic.a(ipc_minix_kerninfo.pico)
 .bss           0x001172e4        0x0 libc_pic.a(_ipc.pico)
 .bss           0x001172e4        0x0 libc_pic.a(_do_kernel_call_intr.pico)
 .bss           0x001172e4        0x0 /usr/lib/crtendS.o
 .bss           0x001172e4        0x0 /usr/lib/crtn.o
 *(COMMON)
 COMMON         0x001172e4        0x4 libc_pic.a(getdate.pico)
                0x001172e4                getdate_err
 COMMON         0x001172e8        0x4 libc_pic.a(getsubopt.pico)
                0x001172e8                suboptarg
 COMMON         0x001172ec        0xc libc_pic.a(getopt.pico)
                0x001172ec                optarg
                0x001172f0                optreset
                0x001172f4                optopt
 COMMON         0x001172f8      0x1f0 libc_pic.a(res_state.pico)
                0x001172f8                _nres
 COMMON         0x001174e8        0x4 libc_pic.a(herror.pico)
                0x001174e8                h_errno
 COMMON         0x001174ec        0x4 libc_pic.a(rcmd.pico)
                0x001174ec                __rcmd_errstr
 COMMON         0x001174f0       0x38 libc_pic.a(getservent.pico)
                0x001174f0                _servent_data
 COMMON         0x00117528       0x24 libc_pic.a(getprotoent.pico)
                0x00117528                _protoent_data
 COMMON         0x0011754c        0x4 libc_pic.a(initfini.pico)
                0x0011754c                __ps_strings
 COMMON         0x00117550        0x4 libc_pic.a(getlogin.pico)
                0x00117550                __logname_valid
 COMMON         0x00117554        0x4 libc_pic.a(errno.pico)
                0x00117554                errno
 COMMON         0x00117558        0x4 libc_pic.a(getnetent.pico)
                0x00117558                _net_stayopen
 COMMON         0x0011755c        0x4 libc_pic.a(malloc.pico)
                0x0011755c                _malloc_options
 COMMON         0x00117560        0x4 libc_pic.a(gethnamaddr.pico)
                0x00117560                _h_file
 COMMON         0x00117564      0x1bc libc_pic.a(res_compat.pico)
                0x00117564                _res
 COMMON         0x00117720       0x18 libc_pic.a(nsparser.pico)
                0x00117720                _nsyychar
                0x00117724                _nsyynerrs
                0x00117728                _nsyydebug
                0x0011772c                _nsyyerrflag
                0x00117730                _nsyyval
                0x00117734                _nsyylval
 COMMON         0x00117738        0x8 libc_pic.a(nslexer.pico)
                0x00117738                _nsyytext
                0x0011773c                _nsyyleng
 COMMON         0x00117740        0x4 libc_pic.a(getprogname.pico)
                0x00117740                __progname
 COMMON         0x00117744        0x4 libc_pic.a(exit.pico)
                0x00117744                __cleanup
 COMMON         0x00117748      0x100 libc_pic.a(hd_init.pico)
                0x00117748                __hexdig_D2A
 COMMON         0x00117848        0x4 libc_pic.a(dmisc.pico)
                0x00117848                __dtoa_result_D2A
 COMMON         0x0011784c      0x358 libc_pic.a(findfp.pico)
                0x0011784c                __sFext
                0x00117ba0                __sdidinit
 COMMON         0x00117ba4       0x10 libc_pic.a(signal.pico)
                0x00117ba4                __sigintr
                0x00117bb4                . = ALIGN ((. != 0x0)?0x4:0x1)
                0x00117bb4                . = ALIGN (0x4)
                0x00117bb4                . = ALIGN (0x4)
                0x00117bb4                _end = .
                0x00117bb4                PROVIDE (end, .)
                0x00117bb4                . = DATA_SEGMENT_END (.)

.stab
 *(.stab)

.stabstr
 *(.stabstr)

.stab.excl
 *(.stab.excl)

.stab.exclstr
 *(.stab.exclstr)

.stab.index
 *(.stab.index)

.stab.indexstr
 *(.stab.indexstr)

.comment        0x00000000       0x2f
 *(.comment)
 .comment       0x00000000       0x2f libc_pic.a(uuid_to_string.pico)
                                 0x30 (size before relaxing)
 .comment       0x00000000       0x30 libc_pic.a(uuid_stream.pico)
 .comment       0x00000000       0x30 libc_pic.a(uuid_hash.pico)
 .comment       0x00000000       0x30 libc_pic.a(uuid_from_string.pico)
 .comment       0x00000000       0x30 libc_pic.a(uuid_equal.pico)
 .comment       0x00000000       0x30 libc_pic.a(uuid_create_nil.pico)
 .comment       0x00000000       0x30 libc_pic.a(uuid_create.pico)
 .comment       0x00000000       0x30 libc_pic.a(uuid_compare.pico)
 .comment       0x00000000       0x30 libc_pic.a(_cpufeature.pico)
 .comment       0x00000000       0x30 libc_pic.a(sprofile.pico)
 .comment       0x00000000       0x30 libc_pic.a(sizeup.pico)
 .comment       0x00000000       0x30 libc_pic.a(futimens.pico)
 .comment       0x00000000       0x30 libc_pic.a(truncate.pico)
 .comment       0x00000000       0x30 libc_pic.a(sync.pico)
 .comment       0x00000000       0x30 libc_pic.a(symlink.pico)
 .comment       0x00000000       0x30 libc_pic.a(svrctl.pico)
 .comment       0x00000000       0x30 libc_pic.a(statvfs.pico)
 .comment       0x00000000       0x30 libc_pic.a(sigpending.pico)
 .comment       0x00000000       0x30 libc_pic.a(shutdown.pico)
 .comment       0x00000000       0x30 libc_pic.a(stime.pico)
 .comment       0x00000000       0x30 libc_pic.a(shmget.pico)
 .comment       0x00000000       0x30 libc_pic.a(shmat.pico)
 .comment       0x00000000       0x30 libc_pic.a(sendmsg.pico)
 .comment       0x00000000       0x30 libc_pic.a(sem.pico)
 .comment       0x00000000       0x30 libc_pic.a(rename.pico)
 .comment       0x00000000       0x30 libc_pic.a(recvmsg.pico)
 .comment       0x00000000       0x30 libc_pic.a(reboot.pico)
 .comment       0x00000000       0x30 libc_pic.a(ptrace.pico)
 .comment       0x00000000       0x30 libc_pic.a(mount.pico)
 .comment       0x00000000       0x30 libc_pic.a(mkfifo.pico)
 .comment       0x00000000       0x30 libc_pic.a(link.pico)
 .comment       0x00000000       0x30 libc_pic.a(setsockopt.pico)
 .comment       0x00000000       0x30 libc_pic.a(getsockname.pico)
 .comment       0x00000000       0x30 libc_pic.a(getppid.pico)
 .comment       0x00000000       0x30 libc_pic.a(getpgrp.pico)
 .comment       0x00000000       0x30 libc_pic.a(getgroups.pico)
 .comment       0x00000000       0x30 libc_pic.a(gcov_flush_sys.pico)
 .comment       0x00000000       0x30 libc_pic.a(fstatfs.pico)
 .comment       0x00000000       0x30 libc_pic.a(flock.pico)
 .comment       0x00000000       0x30 libc_pic.a(dup.pico)
 .comment       0x00000000       0x30 libc_pic.a(chroot.pico)
 .comment       0x00000000       0x30 libc_pic.a(fchown.pico)
 .comment       0x00000000       0x30 libc_pic.a(fchmod.pico)
 .comment       0x00000000       0x30 libc_pic.a(getsid.pico)
 .comment       0x00000000       0x30 libc_pic.a(m_closefrom.pico)
 .comment       0x00000000       0x30 libc_pic.a(strptime.pico)
 .comment       0x00000000       0x30 libc_pic.a(getdate.pico)
 .comment       0x00000000       0x30 libc_pic.a(difftime.pico)
 .comment       0x00000000       0x30 libc_pic.a(thread-stub-init.pico)
 .comment       0x00000000       0x30 libc_pic.a(thread-stub.pico)
 .comment       0x00000000       0x30 libc_pic.a(__isthreaded.pico)
 .comment       0x00000000       0x30 libc_pic.a(tcsetpgrp.pico)
 .comment       0x00000000       0x30 libc_pic.a(tcsendbreak.pico)
 .comment       0x00000000       0x30 libc_pic.a(tcgetpgrp.pico)
 .comment       0x00000000       0x30 libc_pic.a(tcflush.pico)
 .comment       0x00000000       0x30 libc_pic.a(tcflow.pico)
 .comment       0x00000000       0x30 libc_pic.a(tcdrain.pico)
 .comment       0x00000000       0x30 libc_pic.a(cfsetspeed.pico)
 .comment       0x00000000       0x30 libc_pic.a(cfsetospeed.pico)
 .comment       0x00000000       0x30 libc_pic.a(cfsetispeed.pico)
 .comment       0x00000000       0x30 libc_pic.a(cfmakeraw.pico)
 .comment       0x00000000       0x30 libc_pic.a(cfgetospeed.pico)
 .comment       0x00000000       0x30 libc_pic.a(cfgetispeed.pico)
 .comment       0x00000000       0x30 libc_pic.a(wmemmove.pico)
 .comment       0x00000000       0x30 libc_pic.a(wmemcmp.pico)
 .comment       0x00000000       0x30 libc_pic.a(wcswcs.pico)
 .comment       0x00000000       0x30 libc_pic.a(wcstok.pico)
 .comment       0x00000000       0x30 libc_pic.a(wcsstr.pico)
 .comment       0x00000000       0x30 libc_pic.a(wcsspn.pico)
 .comment       0x00000000       0x30 libc_pic.a(wcsrchr.pico)
 .comment       0x00000000       0x30 libc_pic.a(wcspbrk.pico)
 .comment       0x00000000       0x30 libc_pic.a(wcsncpy.pico)
 .comment       0x00000000       0x30 libc_pic.a(wcsncmp.pico)
 .comment       0x00000000       0x30 libc_pic.a(wcsncasecmp.pico)
 .comment       0x00000000       0x30 libc_pic.a(wcsdup.pico)
 .comment       0x00000000       0x30 libc_pic.a(wcscasecmp.pico)
 .comment       0x00000000       0x30 libc_pic.a(wcsncat.pico)
 .comment       0x00000000       0x30 libc_pic.a(wcslcpy.pico)
 .comment       0x00000000       0x30 libc_pic.a(wcslcat.pico)
 .comment       0x00000000       0x30 libc_pic.a(wcscspn.pico)
 .comment       0x00000000       0x30 libc_pic.a(wcscat.pico)
 .comment       0x00000000       0x30 libc_pic.a(popcount64.pico)
 .comment       0x00000000       0x30 libc_pic.a(popcount32.pico)
 .comment       0x00000000       0x30 libc_pic.a(memmem.pico)
 .comment       0x00000000       0x30 libc_pic.a(memccpy.pico)
 .comment       0x00000000       0x30 libc_pic.a(consttime_memequal.pico)
 .comment       0x00000000       0x30 libc_pic.a(strnstr.pico)
 .comment       0x00000000       0x30 libc_pic.a(strspn.pico)
 .comment       0x00000000       0x30 libc_pic.a(memrchr.pico)
 .comment       0x00000000       0x30 libc_pic.a(strxfrm.pico)
 .comment       0x00000000       0x30 libc_pic.a(strtok.pico)
 .comment       0x00000000       0x30 libc_pic.a(strsignal.pico)
 .comment       0x00000000       0x30 libc_pic.a(strmode.pico)
 .comment       0x00000000       0x30 libc_pic.a(strnlen.pico)
 .comment       0x00000000       0x30 libc_pic.a(strcasestr.pico)
 .comment       0x00000000       0x30 libc_pic.a(stpcpy.pico)
 .comment       0x00000000       0x30 libc_pic.a(bm.pico)
 .comment       0x00000000       0x30 libc_pic.a(mtab.pico)
 .comment       0x00000000       0x30 libc_pic.a(configfile.pico)
 .comment       0x00000000       0x30 libc_pic.a(strfmon.pico)
 .comment       0x00000000       0x30 libc_pic.a(unsetenv.pico)
 .comment       0x00000000       0x30 libc_pic.a(twalk.pico)
 .comment       0x00000000       0x30 libc_pic.a(tsearch.pico)
 .comment       0x00000000       0x30 libc_pic.a(tfind.pico)
 .comment       0x00000000       0x30 libc_pic.a(tdelete.pico)
 .comment       0x00000000       0x30 libc_pic.a(system.pico)
 .comment       0x00000000       0x30 libc_pic.a(strtouq.pico)
 .comment       0x00000000       0x30 libc_pic.a(strtoull.pico)
 .comment       0x00000000       0x30 libc_pic.a(strtoq.pico)
 .comment       0x00000000       0x30 libc_pic.a(strtonum.pico)
 .comment       0x00000000       0x30 libc_pic.a(strtou.pico)
 .comment       0x00000000       0x30 libc_pic.a(strsuftoll.pico)
 .comment       0x00000000       0x30 libc_pic.a(srand48.pico)
 .comment       0x00000000       0x30 libc_pic.a(seed48.pico)
 .comment       0x00000000       0x30 libc_pic.a(reallocarray.pico)
 .comment       0x00000000       0x30 libc_pic.a(remque.pico)
 .comment       0x00000000       0x30 libc_pic.a(rand_r.pico)
 .comment       0x00000000       0x30 libc_pic.a(rand.pico)
 .comment       0x00000000       0x30 libc_pic.a(radixsort.pico)
 .comment       0x00000000       0x30 libc_pic.a(quick_exit.pico)
 .comment       0x00000000       0x30 libc_pic.a(pty.pico)
 .comment       0x00000000       0x30 libc_pic.a(posix_openpt.pico)
 .comment       0x00000000       0x30 libc_pic.a(qdiv.pico)
 .comment       0x00000000       0x30 libc_pic.a(qabs.pico)
 .comment       0x00000000       0x30 libc_pic.a(putenv.pico)
 .comment       0x00000000       0x30 libc_pic.a(nrand48.pico)
 .comment       0x00000000       0x30 libc_pic.a(mrand48.pico)
 .comment       0x00000000       0x30 libc_pic.a(lsearch.pico)
 .comment       0x00000000       0x30 libc_pic.a(lrand48.pico)
 .comment       0x00000000       0x30 libc_pic.a(lcong48.pico)
 .comment       0x00000000       0x30 libc_pic.a(lldiv.pico)
 .comment       0x00000000       0x30 libc_pic.a(l64a.pico)
 .comment       0x00000000       0x30 libc_pic.a(jrand48.pico)
 .comment       0x00000000       0x30 libc_pic.a(insque.pico)
 .comment       0x00000000       0x30 libc_pic.a(imaxdiv.pico)
 .comment       0x00000000       0x30 libc_pic.a(heapsort.pico)
 .comment       0x00000000       0x30 libc_pic.a(hcreate.pico)
 .comment       0x00000000       0x30 libc_pic.a(getsubopt.pico)
 .comment       0x00000000       0x30 libc_pic.a(getopt_long.pico)
 .comment       0x00000000       0x30 libc_pic.a(getopt.pico)
 .comment       0x00000000       0x30 libc_pic.a(drand48.pico)
 .comment       0x00000000       0x30 libc_pic.a(atoll.pico)
 .comment       0x00000000       0x30 libc_pic.a(atol.pico)
 .comment       0x00000000       0x30 libc_pic.a(atof.pico)
 .comment       0x00000000       0x30 libc_pic.a(a64l.pico)
 .comment       0x00000000       0x30 libc_pic.a(tmpnam.pico)
 .comment       0x00000000       0x30 libc_pic.a(tempnam.pico)
 .comment       0x00000000       0x30 libc_pic.a(open_wmemstream.pico)
 .comment       0x00000000       0x30 libc_pic.a(open_memstream.pico)
 .comment       0x00000000       0x30 libc_pic.a(fmemopen.pico)
 .comment       0x00000000       0x30 libc_pic.a(wscanf.pico)
 .comment       0x00000000       0x30 libc_pic.a(wprintf.pico)
 .comment       0x00000000       0x30 libc_pic.a(vwscanf.pico)
 .comment       0x00000000       0x30 libc_pic.a(vwprintf.pico)
 .comment       0x00000000       0x30 libc_pic.a(vscanf.pico)
 .comment       0x00000000       0x30 libc_pic.a(vprintf.pico)
 .comment       0x00000000       0x30 libc_pic.a(tmpfile.pico)
 .comment       0x00000000       0x30 libc_pic.a(swscanf.pico)
 .comment       0x00000000       0x30 libc_pic.a(swprintf.pico)
 .comment       0x00000000       0x30 libc_pic.a(setbuffer.pico)
 .comment       0x00000000       0x30 libc_pic.a(setbuf.pico)
 .comment       0x00000000       0x30 libc_pic.a(scanf.pico)
 .comment       0x00000000       0x30 libc_pic.a(remove.pico)
 .comment       0x00000000       0x30 libc_pic.a(putwchar.pico)
 .comment       0x00000000       0x30 libc_pic.a(putwc.pico)
 .comment       0x00000000       0x30 libc_pic.a(putw.pico)
 .comment       0x00000000       0x30 libc_pic.a(putc.pico)
 .comment       0x00000000       0x30 libc_pic.a(mkostemps.pico)
 .comment       0x00000000       0x30 libc_pic.a(mkostemp.pico)
 .comment       0x00000000       0x30 libc_pic.a(mkstemps.pico)
 .comment       0x00000000       0x30 libc_pic.a(mkstemp.pico)
 .comment       0x00000000       0x30 libc_pic.a(mkdtemp.pico)
 .comment       0x00000000       0x30 libc_pic.a(getwchar.pico)
 .comment       0x00000000       0x30 libc_pic.a(getwc.pico)
 .comment       0x00000000       0x30 libc_pic.a(getw.pico)
 .comment       0x00000000       0x30 libc_pic.a(getline.pico)
 .comment       0x00000000       0x30 libc_pic.a(getchar.pico)
 .comment       0x00000000       0x30 libc_pic.a(getc.pico)
 .comment       0x00000000       0x30 libc_pic.a(fwscanf.pico)
 .comment       0x00000000       0x30 libc_pic.a(fwprintf.pico)
 .comment       0x00000000       0x30 libc_pic.a(fwide.pico)
 .comment       0x00000000       0x30 libc_pic.a(funopen.pico)
 .comment       0x00000000       0x30 libc_pic.a(fsetpos.pico)
 .comment       0x00000000       0x30 libc_pic.a(fscanf.pico)
 .comment       0x00000000       0x30 libc_pic.a(freopen.pico)
 .comment       0x00000000       0x30 libc_pic.a(fputws.pico)
 .comment       0x00000000       0x30 libc_pic.a(fpurge.pico)
 .comment       0x00000000       0x30 libc_pic.a(flockfile.pico)
 .comment       0x00000000       0x30 libc_pic.a(fileno.pico)
 .comment       0x00000000       0x30 libc_pic.a(fgetws.pico)
 .comment       0x00000000       0x30 libc_pic.a(fgetwln.pico)
 .comment       0x00000000       0x30 libc_pic.a(fgetpos.pico)
 .comment       0x00000000       0x30 libc_pic.a(fgetc.pico)
 .comment       0x00000000       0x30 libc_pic.a(ferror.pico)
 .comment       0x00000000       0x30 libc_pic.a(feof.pico)
 .comment       0x00000000       0x30 libc_pic.a(dprintf.pico)
 .comment       0x00000000       0x30 libc_pic.a(clrerr.pico)
 .comment       0x00000000       0x30 libc_pic.a(vsprintf_chk.pico)
 .comment       0x00000000       0x30 libc_pic.a(vsnprintf_chk.pico)
 .comment       0x00000000       0x30 libc_pic.a(strncpy_chk.pico)
 .comment       0x00000000       0x30 libc_pic.a(strncat_chk.pico)
 .comment       0x00000000       0x30 libc_pic.a(strcpy_chk.pico)
 .comment       0x00000000       0x30 libc_pic.a(strcat_chk.pico)
 .comment       0x00000000       0x30 libc_pic.a(stpncpy_chk.pico)
 .comment       0x00000000       0x30 libc_pic.a(stpcpy_chk.pico)
 .comment       0x00000000       0x30 libc_pic.a(sprintf_chk.pico)
 .comment       0x00000000       0x30 libc_pic.a(snprintf_chk.pico)
 .comment       0x00000000       0x30 libc_pic.a(memset_chk.pico)
 .comment       0x00000000       0x30 libc_pic.a(memmove_chk.pico)
 .comment       0x00000000       0x30 libc_pic.a(memcpy_chk.pico)
 .comment       0x00000000       0x30 libc_pic.a(fgets_chk.pico)
 .comment       0x00000000       0x30 libc_pic.a(gets_chk.pico)
 .comment       0x00000000       0x30 libc_pic.a(res_state.pico)
 .comment       0x00000000       0x30 libc_pic.a(herror.pico)
 .comment       0x00000000       0x30 libc_pic.a(regexec.pico)
 .comment       0x00000000       0x30 libc_pic.a(regerror.pico)
 .comment       0x00000000       0x30 libc_pic.a(regcomp.pico)
 .comment       0x00000000       0x30 libc_pic.a(if_nameindex.pico)
 .comment       0x00000000       0x30 libc_pic.a(inet6_scopeid.pico)
 .comment       0x00000000       0x30 libc_pic.a(vars6.pico)
 .comment       0x00000000       0x30 libc_pic.a(rthdr.pico)
 .comment       0x00000000       0x30 libc_pic.a(ip6opt.pico)
 .comment       0x00000000       0x30 libc_pic.a(sockatmark.pico)
 .comment       0x00000000       0x30 libc_pic.a(recv.pico)
 .comment       0x00000000       0x30 libc_pic.a(rcmd.pico)
 .comment       0x00000000       0x30 libc_pic.a(linkaddr.pico)
 .comment       0x00000000       0x30 libc_pic.a(iso_addr.pico)
 .comment       0x00000000       0x30 libc_pic.a(getservent.pico)
 .comment       0x00000000       0x30 libc_pic.a(getservbyport.pico)
 .comment       0x00000000       0x30 libc_pic.a(getservbyname.pico)
 .comment       0x00000000       0x30 libc_pic.a(getprotoent.pico)
 .comment       0x00000000       0x30 libc_pic.a(getprotobynumber.pico)
 .comment       0x00000000       0x30 libc_pic.a(getprotobyname.pico)
 .comment       0x00000000       0x30 libc_pic.a(getpeereid.pico)
 .comment       0x00000000       0x30 libc_pic.a(getnetnamadr.pico)
 .comment       0x00000000       0x30 libc_pic.a(ethers.pico)
 .comment       0x00000000       0x30 libc_pic.a(initfini.pico)
 .comment       0x00000000       0x30 libc_pic.a(md5hl.pico)
 .comment       0x00000000       0x30 libc_pic.a(md4hl.pico)
 .comment       0x00000000       0x30 libc_pic.a(md4c.pico)
 .comment       0x00000000       0x30 libc_pic.a(wcsftime.pico)
 .comment       0x00000000       0x30 libc_pic.a(wcsxfrm.pico)
 .comment       0x00000000       0x30 libc_pic.a(wcscoll.pico)
 .comment       0x00000000       0x30 libc_pic.a(wcstoull.pico)
 .comment       0x00000000       0x30 libc_pic.a(wcstoul.pico)
 .comment       0x00000000       0x30 libc_pic.a(wcstoll.pico)
 .comment       0x00000000       0x30 libc_pic.a(wcstol.pico)
 .comment       0x00000000       0x30 libc_pic.a(nl_langinfo.pico)
 .comment       0x00000000       0x30 libc_pic.a(newlocale.pico)
 .comment       0x00000000       0x30 libc_pic.a(freelocale.pico)
 .comment       0x00000000       0x30 libc_pic.a(duplocale.pico)
 .comment       0x00000000       0x30 libc_pic.a(assertions.pico)
 .comment       0x00000000       0x30 libc_pic.a(inet_ntoa.pico)
 .comment       0x00000000       0x30 libc_pic.a(inet_netof.pico)
 .comment       0x00000000       0x30 libc_pic.a(inet_neta.pico)
 .comment       0x00000000       0x30 libc_pic.a(inet_net_pton.pico)
 .comment       0x00000000       0x30 libc_pic.a(inet_net_ntop.pico)
 .comment       0x00000000       0x30 libc_pic.a(inet_makeaddr.pico)
 .comment       0x00000000       0x30 libc_pic.a(inet_lnaof.pico)
 .comment       0x00000000       0x30 libc_pic.a(inet_cidr_pton.pico)
 .comment       0x00000000       0x30 libc_pic.a(inet_cidr_ntop.pico)
 .comment       0x00000000       0x30 libc_pic.a(iconv.pico)
 .comment       0x00000000       0x30 libc_pic.a(murmurhash.pico)
 .comment       0x00000000       0x30 libc_pic.a(sha512hl.pico)
 .comment       0x00000000       0x30 libc_pic.a(sha384hl.pico)
 .comment       0x00000000       0x30 libc_pic.a(sha256hl.pico)
 .comment       0x00000000       0x30 libc_pic.a(sha224hl.pico)
 .comment       0x00000000       0x30 libc_pic.a(sha1hl.pico)
 .comment       0x00000000       0x30 libc_pic.a(sha1.pico)
 .comment       0x00000000       0x30 libc_pic.a(rmd160hl.pico)
 .comment       0x00000000       0x30 libc_pic.a(rmd160.pico)
 .comment       0x00000000       0x30 libc_pic.a(md2hl.pico)
 .comment       0x00000000       0x30 libc_pic.a(md2.pico)
 .comment       0x00000000       0x30 libc_pic.a(signbitl.pico)
 .comment       0x00000000       0x30 libc_pic.a(isnanl.pico)
 .comment       0x00000000       0x30 libc_pic.a(isinfl.pico)
 .comment       0x00000000       0x30 libc_pic.a(isfinitel.pico)
 .comment       0x00000000       0x30 libc_pic.a(infinityl.pico)
 .comment       0x00000000       0x30 libc_pic.a(nanf.pico)
 .comment       0x00000000       0x30 libc_pic.a(signbitd_ieee754.pico)
 .comment       0x00000000       0x30 libc_pic.a(signbitf_ieee754.pico)
 .comment       0x00000000       0x30 libc_pic.a(isfinited_ieee754.pico)
 .comment       0x00000000       0x30 libc_pic.a(isfinitef_ieee754.pico)
 .comment       0x00000000       0x30 libc_pic.a(isnand_ieee754.pico)
 .comment       0x00000000       0x30 libc_pic.a(isnanf_ieee754.pico)
 .comment       0x00000000       0x30 libc_pic.a(isinfd_ieee754.pico)
 .comment       0x00000000       0x30 libc_pic.a(isinff_ieee754.pico)
 .comment       0x00000000       0x30 libc_pic.a(fpclassifyf_ieee754.pico)
 .comment       0x00000000       0x30 libc_pic.a(infinity_ieee754.pico)
 .comment       0x00000000       0x30 libc_pic.a(infinityf_ieee754.pico)
 .comment       0x00000000       0x30 libc_pic.a(wordexp.pico)
 .comment       0x00000000       0x30 libc_pic.a(warnc.pico)
 .comment       0x00000000       0x30 libc_pic.a(wait.pico)
 .comment       0x00000000       0x30 libc_pic.a(valloc.pico)
 .comment       0x00000000       0x30 libc_pic.a(utimens.pico)
 .comment       0x00000000       0x30 libc_pic.a(utime.pico)
 .comment       0x00000000       0x30 libc_pic.a(uname.pico)
 .comment       0x00000000       0x30 libc_pic.a(ulimit.pico)
 .comment       0x00000000       0x30 libc_pic.a(ualarm.pico)
 .comment       0x00000000       0x30 libc_pic.a(ttyslot.pico)
 .comment       0x00000000       0x30 libc_pic.a(ttyname.pico)
 .comment       0x00000000       0x30 libc_pic.a(toascii.pico)
 .comment       0x00000000       0x30 libc_pic.a(time.pico)
 .comment       0x00000000       0x30 libc_pic.a(sysctlnametomib.pico)
 .comment       0x00000000       0x30 libc_pic.a(sigsetops.pico)
 .comment       0x00000000       0x30 libc_pic.a(sigset.pico)
 .comment       0x00000000       0x30 libc_pic.a(sigrelse.pico)
 .comment       0x00000000       0x30 libc_pic.a(signame.pico)
 .comment       0x00000000       0x30 libc_pic.a(siginterrupt.pico)
 .comment       0x00000000       0x30 libc_pic.a(sigignore.pico)
 .comment       0x00000000       0x30 libc_pic.a(sighold.pico)
 .comment       0x00000000       0x30 libc_pic.a(shquotev.pico)
 .comment       0x00000000       0x30 libc_pic.a(shquote.pico)
 .comment       0x00000000       0x30 libc_pic.a(setprogname.pico)
 .comment       0x00000000       0x30 libc_pic.a(setproctitle.pico)
 .comment       0x00000000       0x30 libc_pic.a(setmode.pico)
 .comment       0x00000000       0x30 libc_pic.a(setjmperr.pico)
 .comment       0x00000000       0x30 libc_pic.a(sethostname.pico)
 .comment       0x00000000       0x30 libc_pic.a(setdomainname.pico)
 .comment       0x00000000       0x30 libc_pic.a(seekdir.pico)
 .comment       0x00000000       0x30 libc_pic.a(scandir.pico)
 .comment       0x00000000       0x30 libc_pic.a(randomid.pico)
 .comment       0x00000000       0x30 libc_pic.a(pw_scan.pico)
 .comment       0x00000000       0x30 libc_pic.a(ptree.pico)
 .comment       0x00000000       0x30 libc_pic.a(psignal.pico)
 .comment       0x00000000       0x30 libc_pic.a(posix_spawnp.pico)
 .comment       0x00000000       0x30 libc_pic.a(posix_spawn_fileactions.pico)
 .comment       0x00000000       0x30 libc_pic.a(posix_spawn_sched.pico)
 .comment       0x00000000       0x30 libc_pic.a(popen.pico)
 .comment       0x00000000       0x30 libc_pic.a(pause.pico)
 .comment       0x00000000       0x30 libc_pic.a(nlist_elf64.pico)
 .comment       0x00000000       0x30 libc_pic.a(nlist_ecoff.pico)
 .comment       0x00000000       0x30 libc_pic.a(nlist_coff.pico)
 .comment       0x00000000       0x30 libc_pic.a(nlist.pico)
 .comment       0x00000000       0x30 libc_pic.a(nice.pico)
 .comment       0x00000000       0x30 libc_pic.a(nftw.pico)
 .comment       0x00000000       0x30 libc_pic.a(isascii.pico)
 .comment       0x00000000       0x30 libc_pic.a(initgroups.pico)
 .comment       0x00000000       0x30 libc_pic.a(humanize_number.pico)
 .comment       0x00000000       0x30 libc_pic.a(glob.pico)
 .comment       0x00000000       0x30 libc_pic.a(getusershell.pico)
 .comment       0x00000000       0x30 libc_pic.a(getttyent.pico)
 .comment       0x00000000       0x30 libc_pic.a(getpass.pico)
 .comment       0x00000000       0x30 libc_pic.a(getmntinfo.pico)
 .comment       0x00000000       0x30 libc_pic.a(getlogin.pico)
 .comment       0x00000000       0x30 libc_pic.a(getloadavg.pico)
 .comment       0x00000000       0x30 libc_pic.a(getgrouplist.pico)
 .comment       0x00000000       0x30 libc_pic.a(getdomainname.pico)
 .comment       0x00000000       0x30 libc_pic.a(getcap.pico)
 .comment       0x00000000       0x30 libc_pic.a(getbsize.pico)
 .comment       0x00000000       0x30 libc_pic.a(ftw.pico)
 .comment       0x00000000       0x30 libc_pic.a(ftok.pico)
 .comment       0x00000000       0x30 libc_pic.a(fstab.pico)
 .comment       0x00000000       0x30 libc_pic.a(fnmatch.pico)
 .comment       0x00000000       0x30 libc_pic.a(fmtmsg.pico)
 .comment       0x00000000       0x30 libc_pic.a(fmtcheck.pico)
 .comment       0x00000000       0x30 libc_pic.a(execv.pico)
 .comment       0x00000000       0x30 libc_pic.a(execlp.pico)
 .comment       0x00000000       0x30 libc_pic.a(execle.pico)
 .comment       0x00000000       0x30 libc_pic.a(errno.pico)
 .comment       0x00000000       0x30 libc_pic.a(errc.pico)
 .comment       0x00000000       0x30 libc_pic.a(errx.pico)
 .comment       0x00000000       0x30 libc_pic.a(err.pico)
 .comment       0x00000000       0x30 libc_pic.a(dirname.pico)
 .comment       0x00000000       0x30 libc_pic.a(dehumanize_number.pico)
 .comment       0x00000000       0x30 libc_pic.a(daemon.pico)
 .comment       0x00000000       0x30 libc_pic.a(ctermid.pico)
 .comment       0x00000000       0x30 libc_pic.a(clock.pico)
 .comment       0x00000000       0x30 libc_pic.a(basename.pico)
 .comment       0x00000000       0x30 libc_pic.a(asysctl.pico)
 .comment       0x00000000       0x30 libc_pic.a(alarm.pico)
 .comment       0x00000000       0x30 libc_pic.a(fslib.pico)
 .comment       0x00000000       0x30 libc_pic.a(read_tsc_64.pico)
 .comment       0x00000000       0x30 libc_pic.a(itoa.pico)
 .comment       0x00000000       0x30 libc_pic.a(gcov.pico)
 .comment       0x00000000       0x30 libc_pic.a(fsversion.pico)
 .comment       0x00000000       0x30 libc_pic.a(dlfcn_elf.pico)
 .comment       0x00000000       0x30 libc_pic.a(InstrProfilingFile.pico)
 .comment       0x00000000       0x30 libc_pic.a(InstrProfilingBuffer.pico)
 .comment       0x00000000       0x30 libc_pic.a(InstrProfiling.pico)
 .comment       0x00000000       0x30 libc_pic.a(GCDAProfiling.pico)
 .comment       0x00000000       0x30 libc_pic.a(udivmoddi4.pico)
 .comment       0x00000000       0x30 libc_pic.a(ucmpdi2.pico)
 .comment       0x00000000       0x30 libc_pic.a(negdi2.pico)
 .comment       0x00000000       0x30 libc_pic.a(divmoddi4.pico)
 .comment       0x00000000       0x30 libc_pic.a(cmpdi2.pico)
 .comment       0x00000000       0x30 libc_pic.a(ffsdi2.pico)
 .comment       0x00000000       0x30 libc_pic.a(ctzdi2.pico)
 .comment       0x00000000       0x30 libc_pic.a(clzdi2.pico)
 .comment       0x00000000       0x30 libc_pic.a(subvdi3.pico)
 .comment       0x00000000       0x30 libc_pic.a(popcountdi2.pico)
 .comment       0x00000000       0x30 libc_pic.a(paritydi2.pico)
 .comment       0x00000000       0x30 libc_pic.a(negvdi2.pico)
 .comment       0x00000000       0x30 libc_pic.a(mulvdi3.pico)
 .comment       0x00000000       0x30 libc_pic.a(mulodi4.pico)
 .comment       0x00000000       0x30 libc_pic.a(addvdi3.pico)
 .comment       0x00000000       0x30 libc_pic.a(absvdi2.pico)
 .comment       0x00000000       0x30 libc_pic.a(umodsi3.pico)
 .comment       0x00000000       0x30 libc_pic.a(udivmodsi4.pico)
 .comment       0x00000000       0x30 libc_pic.a(modsi3.pico)
 .comment       0x00000000       0x30 libc_pic.a(divmodsi4.pico)
 .comment       0x00000000       0x30 libc_pic.a(ctzsi2.pico)
 .comment       0x00000000       0x30 libc_pic.a(clzsi2.pico)
 .comment       0x00000000       0x30 libc_pic.a(floatuntixf.pico)
 .comment       0x00000000       0x30 libc_pic.a(floatuntisf.pico)
 .comment       0x00000000       0x30 libc_pic.a(floatuntidf.pico)
 .comment       0x00000000       0x30 libc_pic.a(floattixf.pico)
 .comment       0x00000000       0x30 libc_pic.a(floattisf.pico)
 .comment       0x00000000       0x30 libc_pic.a(floattidf.pico)
 .comment       0x00000000       0x30 libc_pic.a(fixxfti.pico)
 .comment       0x00000000       0x30 libc_pic.a(fixunsxfti.pico)
 .comment       0x00000000       0x30 libc_pic.a(fixunssfti.pico)
 .comment       0x00000000       0x30 libc_pic.a(fixunsdfti.pico)
 .comment       0x00000000       0x30 libc_pic.a(umodti3.pico)
 .comment       0x00000000       0x30 libc_pic.a(udivti3.pico)
 .comment       0x00000000       0x30 libc_pic.a(udivmodti4.pico)
 .comment       0x00000000       0x30 libc_pic.a(ucmpti2.pico)
 .comment       0x00000000       0x30 libc_pic.a(subvti3.pico)
 .comment       0x00000000       0x30 libc_pic.a(subvsi3.pico)
 .comment       0x00000000       0x30 libc_pic.a(powixf2.pico)
 .comment       0x00000000       0x30 libc_pic.a(powitf2.pico)
 .comment       0x00000000       0x30 libc_pic.a(powisf2.pico)
 .comment       0x00000000       0x30 libc_pic.a(powidf2.pico)
 .comment       0x00000000       0x30 libc_pic.a(popcountti2.pico)
 .comment       0x00000000       0x30 libc_pic.a(popcountsi2.pico)
 .comment       0x00000000       0x30 libc_pic.a(parityti2.pico)
 .comment       0x00000000       0x30 libc_pic.a(paritysi2.pico)
 .comment       0x00000000       0x30 libc_pic.a(negvti2.pico)
 .comment       0x00000000       0x30 libc_pic.a(negvsi2.pico)
 .comment       0x00000000       0x30 libc_pic.a(negti2.pico)
 .comment       0x00000000       0x30 libc_pic.a(negsf2.pico)
 .comment       0x00000000       0x30 libc_pic.a(negdf2.pico)
 .comment       0x00000000       0x30 libc_pic.a(mulvti3.pico)
 .comment       0x00000000       0x30 libc_pic.a(mulvsi3.pico)
 .comment       0x00000000       0x30 libc_pic.a(multi3.pico)
 .comment       0x00000000       0x30 libc_pic.a(muloti4.pico)
 .comment       0x00000000       0x30 libc_pic.a(mulosi4.pico)
 .comment       0x00000000       0x30 libc_pic.a(muldc3.pico)
 .comment       0x00000000       0x30 libc_pic.a(modti3.pico)
 .comment       0x00000000       0x30 libc_pic.a(lshrti3.pico)
 .comment       0x00000000       0x30 libc_pic.a(int_util.pico)
 .comment       0x00000000       0x30 libc_pic.a(fixxfdi.pico)
 .comment       0x00000000       0x30 libc_pic.a(fixunsxfsi.pico)
 .comment       0x00000000       0x30 libc_pic.a(fixunsxfdi.pico)
 .comment       0x00000000       0x30 libc_pic.a(fixunssfsi.pico)
 .comment       0x00000000       0x30 libc_pic.a(fixunssfdi.pico)
 .comment       0x00000000       0x30 libc_pic.a(fixunsdfdi.pico)
 .comment       0x00000000       0x30 libc_pic.a(fixdfdi.pico)
 .comment       0x00000000       0x30 libc_pic.a(fixsfdi.pico)
 .comment       0x00000000       0x30 libc_pic.a(ffsti2.pico)
 .comment       0x00000000       0x30 libc_pic.a(divti3.pico)
 .comment       0x00000000       0x30 libc_pic.a(ctzti2.pico)
 .comment       0x00000000       0x30 libc_pic.a(cmpti2.pico)
 .comment       0x00000000       0x30 libc_pic.a(clzti2.pico)
 .comment       0x00000000       0x30 libc_pic.a(ashrti3.pico)
 .comment       0x00000000       0x30 libc_pic.a(ashlti3.pico)
 .comment       0x00000000       0x30 libc_pic.a(addvti3.pico)
 .comment       0x00000000       0x30 libc_pic.a(addvsi3.pico)
 .comment       0x00000000       0x30 libc_pic.a(absvti2.pico)
 .comment       0x00000000       0x30 libc_pic.a(absvsi2.pico)
 .comment       0x00000000       0x30 libc_pic.a(gcc_personality_v0.pico)
 .comment       0x00000000       0x30 libc_pic.a(getwd.pico)
 .comment       0x00000000       0x30 libc_pic.a(sigcompat.pico)
 .comment       0x00000000       0x30 libc_pic.a(setpgrp.pico)
 .comment       0x00000000       0x30 libc_pic.a(sethostid.pico)
 .comment       0x00000000       0x30 libc_pic.a(killpg.pico)
 .comment       0x00000000       0x30 libc_pic.a(gethostid.pico)
 .comment       0x00000000       0x30 libc_pic.a(getdtablesize.pico)
 .comment       0x00000000       0x30 libc_pic.a(creat.pico)
 .comment       0x00000000       0x30 libc_pic.a(citrus_stdenc.pico)
 .comment       0x00000000       0x30 libc_pic.a(citrus_iconv.pico)
 .comment       0x00000000       0x30 libc_pic.a(citrus_esdb.pico)
 .comment       0x00000000       0x30 libc_pic.a(citrus_ctype_fallback.pico)
 .comment       0x00000000       0x30 libc_pic.a(citrus_csmapper.pico)
 .comment       0x00000000       0x30 libc_pic.a(citrus_bcs_strtoul.pico)
 .comment       0x00000000       0x30 libc_pic.a(ndbm.pico)
 .comment       0x00000000       0x30 libc_pic.a(ndbmdatum.pico)
 .comment       0x00000000       0x30 libc_pic.a(bt_debug.pico)
 .comment       0x00000000       0x30 libc_pic.a(cdbw.pico)
 .comment       0x00000000       0x30 libc_pic.a(atomic_init_cas.pico)
 .comment       0x00000000       0x30 libc_pic.a(atomic_cas_64_cas.pico)
 .comment       0x00000000       0x30 libc_pic.a(atomic_sub_64_cas.pico)
 .comment       0x00000000       0x30 libc_pic.a(atomic_xor_64_cas.pico)
 .comment       0x00000000       0x30 libc_pic.a(atomic_nand_64_cas.pico)
 .comment       0x00000000       0x30 libc_pic.a(atomic_swap_64_cas.pico)
 .comment       0x00000000       0x30 libc_pic.a(atomic_or_64_nv_cas.pico)
 .comment       0x00000000       0x30 libc_pic.a(atomic_or_64_cas.pico)
 .comment       0x00000000       0x30 libc_pic.a(atomic_inc_64_nv_cas.pico)
 .comment       0x00000000       0x30 libc_pic.a(atomic_inc_64_cas.pico)
 .comment       0x00000000       0x30 libc_pic.a(atomic_dec_64_nv_cas.pico)
 .comment       0x00000000       0x30 libc_pic.a(atomic_dec_64_cas.pico)
 .comment       0x00000000       0x30 libc_pic.a(atomic_and_64_nv_cas.pico)
 .comment       0x00000000       0x30 libc_pic.a(atomic_and_64_cas.pico)
 .comment       0x00000000       0x30 libc_pic.a(atomic_add_64_nv_cas.pico)
 .comment       0x00000000       0x30 libc_pic.a(atomic_add_64_cas.pico)
 .comment       0x00000000       0x30 libc_pic.a(compat_difftime.pico)
 .comment       0x00000000       0x30 libc_pic.a(compat_localtime.pico)
 .comment       0x00000000       0x30 libc_pic.a(compat___shmctl13.pico)
 .comment       0x00000000       0x30 libc_pic.a(compat_mknod.pico)
 .comment       0x00000000       0x30 libc_pic.a(compat_adjtime.pico)
 .comment       0x00000000       0x30 libc_pic.a(compat_nanosleep.pico)
 .comment       0x00000000       0x30 libc_pic.a(compat_itimer.pico)
 .comment       0x00000000       0x30 libc_pic.a(compat_clock.pico)
 .comment       0x00000000       0x30 libc_pic.a(compat_settimeofday.pico)
 .comment       0x00000000       0x30 libc_pic.a(compat_wait4.pico)
 .comment       0x00000000       0x30 libc_pic.a(compat_utimes.pico)
 .comment       0x00000000       0x30 libc_pic.a(compat_socket.pico)
 .comment       0x00000000       0x30 libc_pic.a(compat_sched.pico)
 .comment       0x00000000       0x30 libc_pic.a(compat_getdirentries.pico)
 .comment       0x00000000       0x30 libc_pic.a(compat_getdents.pico)
 .comment       0x00000000       0x30 libc_pic.a(compat_unsetenv.pico)
 .comment       0x00000000       0x30 libc_pic.a(compat_random.pico)
 .comment       0x00000000       0x30 libc_pic.a(compat_putenv.pico)
 .comment       0x00000000       0x30 libc_pic.a(compat_fsetpos.pico)
 .comment       0x00000000       0x30 libc_pic.a(compat_fgetpos.pico)
 .comment       0x00000000       0x30 libc_pic.a(compat_ns_ntoa.pico)
 .comment       0x00000000       0x30 libc_pic.a(compat_ns_addr.pico)
 .comment       0x00000000       0x30 libc_pic.a(__cmsg_alignbytes.pico)
 .comment       0x00000000       0x30 libc_pic.a(compat_alloca.pico)
 .comment       0x00000000       0x30 libc_pic.a(compat_syslog.pico)
 .comment       0x00000000       0x30 libc_pic.a(compat___unvis13.pico)
 .comment       0x00000000       0x30 libc_pic.a(compat___fts50.pico)
 .comment       0x00000000       0x30 libc_pic.a(compat_utmp.pico)
 .comment       0x00000000       0x30 libc_pic.a(compat_getpwent.pico)
 .comment       0x00000000       0x30 libc_pic.a(compat_alphasort.pico)
 .comment       0x00000000       0x30 libc_pic.a(compat_devname.pico)
 .comment       0x00000000       0x30 libc_pic.a(compat_utime.pico)
 .comment       0x00000000       0x30 libc_pic.a(compat_time.pico)
 .comment       0x00000000       0x30 libc_pic.a(compat_utmpx.pico)
 .comment       0x00000000       0x30 libc_pic.a(compat_unvis.pico)
 .comment       0x00000000       0x30 libc_pic.a(compat_timezone.pico)
 .comment       0x00000000       0x30 libc_pic.a(compat_times.pico)
 .comment       0x00000000       0x30 libc_pic.a(compat_sigsetops.pico)
 .comment       0x00000000       0x30 libc_pic.a(compat_signame.pico)
 .comment       0x00000000       0x30 libc_pic.a(compat_siglist.pico)
 .comment       0x00000000       0x30 libc_pic.a(compat_scandir.pico)
 .comment       0x00000000       0x30 libc_pic.a(compat__readdir_unlocked30.pico)
 .comment       0x00000000       0x30 libc_pic.a(compat___glob13.pico)
 .comment       0x00000000       0x30 libc_pic.a(compat_glob.pico)
 .comment       0x00000000       0x30 libc_pic.a(compat_fts.pico)
 .comment       0x00000000       0x30 libc_pic.a(compat_errlist.pico)
 .comment       0x00000000       0x30 libc_pic.a(compat_setlocale32.pico)
 .comment       0x00000000       0x30 libc_pic.a(compat_setlocale1.pico)
 .comment       0x00000000       0x30 libc_pic.a(compat_ndbmdatum.pico)
 .comment       0x00000000       0x30 libc_pic.a(lchown.pico)
 .comment       0x00000000       0x30 libc_pic.a(lchmod.pico)
 .comment       0x00000000       0x30 libc_pic.a(lchflags.pico)
 .comment       0x00000000       0x30 libc_pic.a(uuid_is_nil.pico)
 .comment       0x00000000       0x30 libc_pic.a(libunwind.pico)
 .comment       0x00000000       0x30 libc_pic.a(setrlimit.pico)
 .comment       0x00000000       0x30 libc_pic.a(vfork.pico)
 .comment       0x00000000       0x30 libc_pic.a(lutimes.pico)
 .comment       0x00000000       0x30 libc_pic.a(futimes.pico)
 .comment       0x00000000       0x30 libc_pic.a(utimes.pico)
 .comment       0x00000000       0x30 libc_pic.a(utimensat.pico)
 .comment       0x00000000       0x30 libc_pic.a(umask.pico)
 .comment       0x00000000       0x30 libc_pic.a(socketpair.pico)
 .comment       0x00000000       0x30 libc_pic.a(sigsuspend.pico)
 .comment       0x00000000       0x30 libc_pic.a(shmctl.pico)
 .comment       0x00000000       0x30 libc_pic.a(settimeofday.pico)
 .comment       0x00000000       0x30 libc_pic.a(setgroups.pico)
 .comment       0x00000000       0x30 libc_pic.a(rmdir.pico)
 .comment       0x00000000       0x30 libc_pic.a(posix_spawn.pico)
 .comment       0x00000000       0x30 libc_pic.a(poll.pico)
 .comment       0x00000000       0x30 libc_pic.a(pipe.pico)
 .comment       0x00000000       0x30 libc_pic.a(minix_rs.pico)
 .comment       0x00000000       0x30 libc_pic.a(listen.pico)
 .comment       0x00000000       0x30 libc_pic.a(getvfsstat.pico)
 .comment       0x00000000       0x30 libc_pic.a(getsockopt.pico)
 .comment       0x00000000       0x30 libc_pic.a(priority.pico)
 .comment       0x00000000       0x30 libc_pic.a(__getlogin.pico)
 .comment       0x00000000       0x30 libc_pic.a(setitimer.pico)
 .comment       0x00000000       0x30 libc_pic.a(getitimer.pico)
 .comment       0x00000000       0x30 libc_pic.a(getegid.pico)
 .comment       0x00000000       0x30 libc_pic.a(fstatvfs.pico)
 .comment       0x00000000       0x30 libc_pic.a(dup2.pico)
 .comment       0x00000000       0x30 libc_pic.a(clock_settime.pico)
 .comment       0x00000000       0x30 libc_pic.a(clock_getres.pico)
 .comment       0x00000000       0x30 libc_pic.a(chown.pico)
 .comment       0x00000000       0x30 libc_pic.a(chmod.pico)
 .comment       0x00000000       0x30 libc_pic.a(adjtime.pico)
 .comment       0x00000000       0x30 libc_pic.a(accept.pico)
 .comment       0x00000000       0x30 libc_pic.a(tcsetattr.pico)
 .comment       0x00000000       0x30 libc_pic.a(wmemset.pico)
 .comment       0x00000000       0x30 libc_pic.a(wmemcpy.pico)
 .comment       0x00000000       0x30 libc_pic.a(wcscpy.pico)
 .comment       0x00000000       0x30 libc_pic.a(wcscmp.pico)
 .comment       0x00000000       0x30 libc_pic.a(strsep.pico)
 .comment       0x00000000       0x30 libc_pic.a(strncat.pico)
 .comment       0x00000000       0x30 libc_pic.a(stresep.pico)
 .comment       0x00000000       0x30 libc_pic.a(__strsignal.pico)
 .comment       0x00000000       0x30 libc_pic.a(strtok_r.pico)
 .comment       0x00000000       0x30 libc_pic.a(stpncpy.pico)
 .comment       0x00000000       0x30 libc_pic.a(stderr.pico)
 .comment       0x00000000       0x30 libc_pic.a(erand48_ieee754.pico)
 .comment       0x00000000       0x30 libc_pic.a(strtoll.pico)
 .comment       0x00000000       0x30 libc_pic.a(setenv.pico)
 .comment       0x00000000       0x30 libc_pic.a(random.pico)
 .comment       0x00000000       0x30 libc_pic.a(_rand48.pico)
 .comment       0x00000000       0x30 libc_pic.a(mktemp.pico)
 .comment       0x00000000       0x30 libc_pic.a(gets.pico)
 .comment       0x00000000       0x30 libc_pic.a(vswscanf.pico)
 .comment       0x00000000       0x30 libc_pic.a(vswprintf.pico)
 .comment       0x00000000       0x30 libc_pic.a(vfwscanf.pico)
 .comment       0x00000000       0x30 libc_pic.a(vfwprintf.pico)
 .comment       0x00000000       0x30 libc_pic.a(vdprintf.pico)
 .comment       0x00000000       0x30 libc_pic.a(ungetwc.pico)
 .comment       0x00000000       0x30 libc_pic.a(sscanf.pico)
 .comment       0x00000000       0x30 libc_pic.a(setvbuf.pico)
 .comment       0x00000000       0x30 libc_pic.a(perror.pico)
 .comment       0x00000000       0x30 libc_pic.a(gettemp.pico)
 .comment       0x00000000       0x30 libc_pic.a(ftello.pico)
 .comment       0x00000000       0x30 libc_pic.a(ftell.pico)
 .comment       0x00000000       0x30 libc_pic.a(fputwc.pico)
 .comment       0x00000000       0x30 libc_pic.a(fgetwc.pico)
 .comment       0x00000000       0x30 libc_pic.a(regfree.pico)
 .comment       0x00000000       0x30 libc_pic.a(getprotobynumber_r.pico)
 .comment       0x00000000       0x30 libc_pic.a(getprotobyname_r.pico)
 .comment       0x00000000       0x30 libc_pic.a(getnetent.pico)
 .comment       0x00000000       0x30 libc_pic.a(stack_protector.pico)
 .comment       0x00000000       0x30 libc_pic.a(wcstold.pico)
 .comment       0x00000000       0x30 libc_pic.a(wcstof.pico)
 .comment       0x00000000       0x30 libc_pic.a(wcstod.pico)
 .comment       0x00000000       0x30 libc_pic.a(wcstoumax.pico)
 .comment       0x00000000       0x30 libc_pic.a(wcstoimax.pico)
 .comment       0x00000000       0x30 libc_pic.a(inet_network.pico)
 .comment       0x00000000       0x30 libc_pic.a(verrx.pico)
 .comment       0x00000000       0x30 libc_pic.a(verr.pico)
 .comment       0x00000000       0x30 libc_pic.a(warn.pico)
 .comment       0x00000000       0x30 libc_pic.a(wait3.pico)
 .comment       0x00000000       0x30 libc_pic.a(utmpx.pico)
 .comment       0x00000000       0x30 libc_pic.a(utmp.pico)
 .comment       0x00000000       0x30 libc_pic.a(unvis.pico)
 .comment       0x00000000       0x30 libc_pic.a(times.pico)
 .comment       0x00000000       0x30 libc_pic.a(siglist.pico)
 .comment       0x00000000       0x30 libc_pic.a(pwcache.pico)
 .comment       0x00000000       0x30 libc_pic.a(nlist_elf32.pico)
 .comment       0x00000000       0x30 libc_pic.a(nlist_aout.pico)
 .comment       0x00000000       0x30 libc_pic.a(lockf.pico)
 .comment       0x00000000       0x30 libc_pic.a(getpwent.pico)
 .comment       0x00000000       0x30 libc_pic.a(getnetgrent.pico)
 .comment       0x00000000       0x30 libc_pic.a(getgroupmembership.pico)
 .comment       0x00000000       0x30 libc_pic.a(getgrent.pico)
 .comment       0x00000000       0x30 libc_pic.a(getcwd.pico)
 .comment       0x00000000       0x30 libc_pic.a(execvp.pico)
 .comment       0x00000000       0x30 libc_pic.a(execl.pico)
 .comment       0x00000000       0x30 libc_pic.a(devname.pico)
 .comment       0x00000000       0x30 libc_pic.a(arc4random.pico)
 .comment       0x00000000       0x30 libc_pic.a(InstrProfilingPlatformOther.pico)
 .comment       0x00000000       0x30 libc_pic.a(citrus_mapper.pico)
 .comment       0x00000000       0x30 libc_pic.a(citrus_hash.pico)
 .comment       0x00000000       0x30 libc_pic.a(compat_gettimeofday.pico)
 .comment       0x00000000       0x30 libc_pic.a(compat_getrusage.pico)
 .comment       0x00000000       0x30 libc_pic.a(compat_stat.pico)
 .comment       0x00000000       0x30 libc_pic.a(compat_readdir.pico)
 .comment       0x00000000       0x30 libc_pic.a(compat_opendir.pico)
 .comment       0x00000000       0x30 libc_pic.a(setpgid.pico)
 .comment       0x00000000       0x30 libc_pic.a(getrusage.pico)
 .comment       0x00000000       0x30 libc_pic.a(__getcwd.pico)
 .comment       0x00000000       0x30 libc_pic.a(environ.pico)
 .comment       0x00000000       0x30 libc_pic.a(setuid.pico)
 .comment       0x00000000       0x30 libc_pic.a(setgid.pico)
 .comment       0x00000000       0x30 libc_pic.a(setsid.pico)
 .comment       0x00000000       0x30 libc_pic.a(mkdir.pico)
 .comment       0x00000000       0x30 libc_pic.a(geteuid.pico)
 .comment       0x00000000       0x30 libc_pic.a(fork.pico)
 .comment       0x00000000       0x30 libc_pic.a(execve.pico)
 .comment       0x00000000       0x30 libc_pic.a(wmemchr.pico)
 .comment       0x00000000       0x30 libc_pic.a(explicit_memset.pico)
 .comment       0x00000000       0x30 libc_pic.a(strstr.pico)
 .comment       0x00000000       0x30 libc_pic.a(vsscanf.pico)
 .comment       0x00000000       0x30 libc_pic.a(vfscanf.pico)
 .comment       0x00000000       0x30 libc_pic.a(ungetc.pico)
 .comment       0x00000000       0x30 libc_pic.a(getprotoent_r.pico)
 .comment       0x00000000       0x30 libc_pic.a(sha2.pico)
 .comment       0x00000000       0x30 libc_pic.a(bswap64.pico)
 .comment       0x00000000       0x30 libc_pic.a(verrc.pico)
 .comment       0x00000000       0x30 libc_pic.a(vwarn.pico)
 .comment       0x00000000       0x30 libc_pic.a(warnx.pico)
 .comment       0x00000000       0x30 libc_pic.a(waitpid.pico)
 .comment       0x00000000       0x30 libc_pic.a(vis.pico)
 .comment       0x00000000       0x30 libc_pic.a(stringlist.pico)
 .comment       0x00000000       0x30 libc_pic.a(sleep.pico)
 .comment       0x00000000       0x30 libc_pic.a(rewinddir.pico)
 .comment       0x00000000       0x30 libc_pic.a(getdevmajor.pico)
 .comment       0x00000000       0x30 libc_pic.a(fts.pico)
 .comment       0x00000000       0x30 libc_pic.a(closedir.pico)
 .comment       0x00000000       0x30 libc_pic.a(strtod.pico)
 .comment       0x00000000       0x30 libc_pic.a(strtold_px.pico)
 .comment       0x00000000       0x30 libc_pic.a(strtof.pico)
 .comment       0x00000000       0x30 libc_pic.a(citrus_module.pico)
 .comment       0x00000000       0x30 libc_pic.a(stack_utils.pico)
 .comment       0x00000000       0x30 libc_pic.a(kernel_utils.pico)
 .comment       0x00000000       0x30 libc_pic.a(wait4.pico)
 .comment       0x00000000       0x30 libc_pic.a(chdir.pico)
 .comment       0x00000000       0x30 libc_pic.a(wcslen.pico)
 .comment       0x00000000       0x30 libc_pic.a(wcschr.pico)
 .comment       0x00000000       0x30 libc_pic.a(strcoll.pico)
 .comment       0x00000000       0x30 libc_pic.a(strtoumax.pico)
 .comment       0x00000000       0x30 libc_pic.a(reallocarr.pico)
 .comment       0x00000000       0x30 libc_pic.a(iswctype_mb.pico)
 .comment       0x00000000       0x30 libc_pic.a(multibyte_c90.pico)
 .comment       0x00000000       0x30 libc_pic.a(vwarnc.pico)
 .comment       0x00000000       0x30 libc_pic.a(vwarnx.pico)
 .comment       0x00000000       0x30 libc_pic.a(sysctlbyname.pico)
 .comment       0x00000000       0x30 libc_pic.a(opendir.pico)
 .comment       0x00000000       0x30 libc_pic.a(initdir.pico)
 .comment       0x00000000       0x30 libc_pic.a(alphasort.pico)
 .comment       0x00000000       0x30 libc_pic.a(strtord.pico)
 .comment       0x00000000       0x30 libc_pic.a(ulp.pico)
 .comment       0x00000000       0x30 libc_pic.a(strtopx.pico)
 .comment       0x00000000       0x30 libc_pic.a(merge.pico)
 .comment       0x00000000       0x30 libc_pic.a(telldir.pico)
 .comment       0x00000000       0x30 libc_pic.a(readdir.pico)
 .comment       0x00000000       0x30 libc_pic.a(getdents.pico)
 .comment       0x00000000       0x30 libc_pic.a(_ucontext.pico)
 .comment       0x00000000       0x30 libc_pic.a(_mcontext.pico)
 .comment       0x00000000       0x30 libc_pic.a(socket.pico)
 .comment       0x00000000       0x30 libc_pic.a(bind.pico)
 .comment       0x00000000       0x30 libc_pic.a(mknod.pico)
 .comment       0x00000000       0x30 libc_pic.a(vectorio.pico)
 .comment       0x00000000       0x30 libc_pic.a(sendto.pico)
 .comment       0x00000000       0x30 libc_pic.a(ioctl.pico)
 .comment       0x00000000       0x30 libc_pic.a(strftime.pico)
 .comment       0x00000000       0x30 libc_pic.a(malloc.pico)
 .comment       0x00000000       0x30 libc_pic.a(readlink.pico)
 .comment       0x00000000       0x30 libc_pic.a(getuid.pico)
 .comment       0x00000000       0x30 libc_pic.a(getgid.pico)
 .comment       0x00000000       0x30 libc_pic.a(sbrk.pico)
 .comment       0x00000000       0x30 libc_pic.a(brk.pico)
 .comment       0x00000000       0x30 libc_pic.a(wsetup.pico)
 .comment       0x00000000       0x30 libc_pic.a(fwalk.pico)
 .comment       0x00000000       0x30 libc_pic.a(res_send.pico)
 .comment       0x00000000       0x30 libc_pic.a(recvfrom.pico)
 .comment       0x00000000       0x30 libc_pic.a(getpeername.pico)
 .comment       0x00000000       0x30 libc_pic.a(getnameinfo.pico)
 .comment       0x00000000       0x30 libc_pic.a(getservbyport_r.pico)
 .comment       0x00000000       0x30 libc_pic.a(ev_streams.pico)
 .comment       0x00000000       0x30 libc_pic.a(ev_timers.pico)
 .comment       0x00000000       0x30 libc_pic.a(assert.pico)
 .comment       0x00000000       0x30 libc_pic.a(clock_gettime.pico)
 .comment       0x00000000       0x30 libc_pic.a(if_indextoname.pico)
 .comment       0x00000000       0x30 libc_pic.a(res_query.pico)
 .comment       0x00000000       0x30 libc_pic.a(res_mkquery.pico)
 .comment       0x00000000       0x30 libc_pic.a(res_init.pico)
 .comment       0x00000000       0x30 libc_pic.a(puts.pico)
 .comment       0x00000000       0x30 libc_pic.a(getaddrinfo.pico)
 .comment       0x00000000       0x30 libc_pic.a(getservbyname_r.pico)
 .comment       0x00000000       0x30 libc_pic.a(md5c.pico)
 .comment       0x00000000       0x30 libc_pic.a(inet_addr.pico)
 .comment       0x00000000       0x30 libc_pic.a(vasprintf.pico)
 .comment       0x00000000       0x30 libc_pic.a(fgets.pico)
 .comment       0x00000000       0x30 libc_pic.a(if_nametoindex.pico)
 .comment       0x00000000       0x30 libc_pic.a(getservent_r.pico)
 .comment       0x00000000       0x30 libc_pic.a(getifaddrs.pico)
 .comment       0x00000000       0x30 libc_pic.a(cdbr.pico)
 .comment       0x00000000       0x30 libc_pic.a(mi_vector_hash.pico)
 .comment       0x00000000       0x30 libc_pic.a(atoi.pico)
 .comment       0x00000000       0x30 libc_pic.a(res_debug.pico)
 .comment       0x00000000       0x30 libc_pic.a(strerror.pico)
 .comment       0x00000000       0x30 libc_pic.a(strtoul.pico)
 .comment       0x00000000       0x30 libc_pic.a(fputs.pico)
 .comment       0x00000000       0x30 libc_pic.a(fputc.pico)
 .comment       0x00000000       0x30 libc_pic.a(ns_print.pico)
 .comment       0x00000000       0x30 libc_pic.a(ns_parse.pico)
 .comment       0x00000000       0x30 libc_pic.a(base64.pico)
 .comment       0x00000000       0x30 libc_pic.a(nsap_addr.pico)
 .comment       0x00000000       0x30 libc_pic.a(inet_ntop.pico)
 .comment       0x00000000       0x30 libc_pic.a(mtctxres.pico)
 .comment       0x00000000       0x30 libc_pic.a(ns_ttl.pico)
 .comment       0x00000000       0x30 libc_pic.a(ns_samedomain.pico)
 .comment       0x00000000       0x30 libc_pic.a(sethostent.pico)
 .comment       0x00000000       0x30 libc_pic.a(rewind.pico)
 .comment       0x00000000       0x30 libc_pic.a(fseek.pico)
 .comment       0x00000000       0x30 libc_pic.a(res_data.pico)
 .comment       0x00000000       0x30 libc_pic.a(h_errno.pico)
 .comment       0x00000000       0x30 libc_pic.a(gethnamaddr.pico)
 .comment       0x00000000       0x30 libc_pic.a(inet_pton.pico)
 .comment       0x00000000       0x30 libc_pic.a(fseeko.pico)
 .comment       0x00000000       0x30 libc_pic.a(fparseln.pico)
 .comment       0x00000000       0x30 libc_pic.a(fgetln.pico)
 .comment       0x00000000       0x30 libc_pic.a(res_compat.pico)
 .comment       0x00000000       0x30 libc_pic.a(res_comp.pico)
 .comment       0x00000000       0x30 libc_pic.a(ns_netint.pico)
 .comment       0x00000000       0x30 libc_pic.a(ns_name.pico)
 .comment       0x00000000       0x30 libc_pic.a(strncasecmp.pico)
 .comment       0x00000000       0x30 libc_pic.a(strtol.pico)
 .comment       0x00000000       0x30 libc_pic.a(vsprintf.pico)
 .comment       0x00000000       0x30 libc_pic.a(fgetstr.pico)
 .comment       0x00000000       0x30 libc_pic.a(getdelim.pico)
 .comment       0x00000000       0x30 libc_pic.a(nsparser.pico)
 .comment       0x00000000       0x30 libc_pic.a(nslexer.pico)
 .comment       0x00000000       0x30 libc_pic.a(nsdispatch.pico)
 .comment       0x00000000       0x30 libc_pic.a(syslog.pico)
 .comment       0x00000000       0x30 libc_pic.a(getprogname.pico)
 .comment       0x00000000       0x30 libc_pic.a(gethostname.pico)
 .comment       0x00000000       0x30 libc_pic.a(connect.pico)
 .comment       0x00000000       0x30 libc_pic.a(localtime.pico)
 .comment       0x00000000       0x30 libc_pic.a(asctime.pico)
 .comment       0x00000000       0x30 libc_pic.a(strerror_r.pico)
 .comment       0x00000000       0x30 libc_pic.a(strcasecmp.pico)
 .comment       0x00000000       0x30 libc_pic.a(exit.pico)
 .comment       0x00000000       0x30 libc_pic.a(bsearch.pico)
 .comment       0x00000000       0x30 libc_pic.a(atexit.pico)
 .comment       0x00000000       0x30 libc_pic.a(snprintf_ss.pico)
 .comment       0x00000000       0x30 libc_pic.a(putchar.pico)
 .comment       0x00000000       0x30 libc_pic.a(printf.pico)
 .comment       0x00000000       0x30 libc_pic.a(fread.pico)
 .comment       0x00000000       0x30 libc_pic.a(fprintf.pico)
 .comment       0x00000000       0x30 libc_pic.a(fopen.pico)
 .comment       0x00000000       0x30 libc_pic.a(catopen.pico)
 .comment       0x00000000       0x30 libc_pic.a(catgets.pico)
 .comment       0x00000000       0x30 libc_pic.a(catclose.pico)
 .comment       0x00000000       0x30 libc_pic.a(send.pico)
 .comment       0x00000000       0x30 libc_pic.a(usleep.pico)
 .comment       0x00000000       0x30 libc_pic.a(errlist.pico)
 .comment       0x00000000       0x30 libc_pic.a(nanosleep.pico)
 .comment       0x00000000       0x30 libc_pic.a(gettimeofday.pico)
 .comment       0x00000000       0x30 libc_pic.a(access.pico)
 .comment       0x00000000       0x30 libc_pic.a(wbuf.pico)
 .comment       0x00000000       0x30 libc_pic.a(vsnprintf_ss.pico)
 .comment       0x00000000       0x30 libc_pic.a(select.pico)
 .comment       0x00000000       0x30 libc_pic.a(dummy_lc_collate.pico)
 .comment       0x00000000       0x30 libc_pic.a(generic_lc_all.pico)
 .comment       0x00000000       0x30 libc_pic.a(setlocale.pico)
 .comment       0x00000000       0x30 libc_pic.a(citrus_lc_messages.pico)
 .comment       0x00000000       0x30 libc_pic.a(citrus_lc_time.pico)
 .comment       0x00000000       0x30 libc_pic.a(citrus_lc_numeric.pico)
 .comment       0x00000000       0x30 libc_pic.a(citrus_lc_monetary.pico)
 .comment       0x00000000       0x30 libc_pic.a(citrus_lc_ctype.pico)
 .comment       0x00000000       0x30 libc_pic.a(citrus_lookup.pico)
 .comment       0x00000000       0x30 libc_pic.a(citrus_db_hash.pico)
 .comment       0x00000000       0x30 libc_pic.a(citrus_db.pico)
 .comment       0x00000000       0x30 libc_pic.a(citrus_bcs_strtol.pico)
 .comment       0x00000000       0x30 libc_pic.a(strndup.pico)
 .comment       0x00000000       0x30 libc_pic.a(rune.pico)
 .comment       0x00000000       0x30 libc_pic.a(_wctype.pico)
 .comment       0x00000000       0x30 libc_pic.a(_wctrans.pico)
 .comment       0x00000000       0x30 libc_pic.a(fix_grouping.pico)
 .comment       0x00000000       0x30 libc_pic.a(__mb_cur_max.pico)
 .comment       0x00000000       0x30 libc_pic.a(citrus_mmap.pico)
 .comment       0x00000000       0x30 libc_pic.a(citrus_memstream.pico)
 .comment       0x00000000       0x30 libc_pic.a(citrus_bcs.pico)
 .comment       0x00000000       0x30 libc_pic.a(strtodg.pico)
 .comment       0x00000000       0x30 libc_pic.a(sum.pico)
 .comment       0x00000000       0x30 libc_pic.a(hexnan.pico)
 .comment       0x00000000       0x30 libc_pic.a(gethex.pico)
 .comment       0x00000000       0x30 libc_pic.a(smisc.pico)
 .comment       0x00000000       0x30 libc_pic.a(hd_init.pico)
 .comment       0x00000000       0x30 libc_pic.a(rec_put.pico)
 .comment       0x00000000       0x30 libc_pic.a(rec_open.pico)
 .comment       0x00000000       0x30 libc_pic.a(fdopen.pico)
 .comment       0x00000000       0x30 libc_pic.a(rec_seq.pico)
 .comment       0x00000000       0x30 libc_pic.a(rec_get.pico)
 .comment       0x00000000       0x30 libc_pic.a(rec_delete.pico)
 .comment       0x00000000       0x30 libc_pic.a(rec_close.pico)
 .comment       0x00000000       0x30 libc_pic.a(mmap.pico)
 .comment       0x00000000       0x30 libc_pic.a(ftruncate.pico)
 .comment       0x00000000       0x30 libc_pic.a(rget.pico)
 .comment       0x00000000       0x30 libc_pic.a(refill.pico)
 .comment       0x00000000       0x30 libc_pic.a(makebuf.pico)
 .comment       0x00000000       0x30 libc_pic.a(flags.pico)
 .comment       0x00000000       0x30 libc_pic.a(fclose.pico)
 .comment       0x00000000       0x30 libc_pic.a(isatty.pico)
 .comment       0x00000000       0x30 libc_pic.a(rec_utils.pico)
 .comment       0x00000000       0x30 libc_pic.a(rec_search.pico)
 .comment       0x00000000       0x30 libc_pic.a(tcgetattr.pico)
 .comment       0x00000000       0x30 libc_pic.a(strtoi.pico)
 .comment       0x00000000       0x30 libc_pic.a(vsnprintf.pico)
 .comment       0x00000000       0x30 libc_pic.a(vfprintf.pico)
 .comment       0x00000000       0x30 libc_pic.a(multibyte_amd1.pico)
 .comment       0x00000000       0x30 libc_pic.a(localeconv.pico)
 .comment       0x00000000       0x30 libc_pic.a(hdtoa.pico)
 .comment       0x00000000       0x30 libc_pic.a(ldtoa.pico)
 .comment       0x00000000       0x30 libc_pic.a(dtoa.pico)
 .comment       0x00000000       0x30 libc_pic.a(strdup.pico)
 .comment       0x00000000       0x30 libc_pic.a(fpclassifyl.pico)
 .comment       0x00000000       0x30 libc_pic.a(fpclassifyd_ieee754.pico)
 .comment       0x00000000       0x30 libc_pic.a(gdtoa.pico)
 .comment       0x00000000       0x30 libc_pic.a(gmisc.pico)
 .comment       0x00000000       0x30 libc_pic.a(dmisc.pico)
 .comment       0x00000000       0x30 libc_pic.a(misc.pico)
 .comment       0x00000000       0x30 libc_pic.a(hash_page.pico)
 .comment       0x00000000       0x30 libc_pic.a(hash_bigkey.pico)
 .comment       0x00000000       0x30 libc_pic.a(db.pico)
 .comment       0x00000000       0x30 libc_pic.a(hash.pico)
 .comment       0x00000000       0x30 libc_pic.a(bt_open.pico)
 .comment       0x00000000       0x30 libc_pic.a(bt_get.pico)
 .comment       0x00000000       0x30 libc_pic.a(bt_conv.pico)
 .comment       0x00000000       0x30 libc_pic.a(bt_close.pico)
 .comment       0x00000000       0x30 libc_pic.a(hash_log2.pico)
 .comment       0x00000000       0x30 libc_pic.a(hash_func.pico)
 .comment       0x00000000       0x30 libc_pic.a(hash_buf.pico)
 .comment       0x00000000       0x30 libc_pic.a(dbfile.pico)
 .comment       0x00000000       0x30 libc_pic.a(bt_put.pico)
 .comment       0x00000000       0x30 libc_pic.a(bt_delete.pico)
 .comment       0x00000000       0x30 libc_pic.a(unlink.pico)
 .comment       0x00000000       0x30 libc_pic.a(issetugid.pico)
 .comment       0x00000000       0x30 libc_pic.a(fcntl.pico)
 .comment       0x00000000       0x30 libc_pic.a(getenv.pico)
 .comment       0x00000000       0x30 libc_pic.a(_env.pico)
 .comment       0x00000000       0x30 libc_pic.a(rb.pico)
 .comment       0x00000000       0x30 libc_pic.a(bt_split.pico)
 .comment       0x00000000       0x30 libc_pic.a(bt_seq.pico)
 .comment       0x00000000       0x30 libc_pic.a(bt_search.pico)
 .comment       0x00000000       0x30 libc_pic.a(strcspn.pico)
 .comment       0x00000000       0x30 libc_pic.a(bt_utils.pico)
 .comment       0x00000000       0x30 libc_pic.a(bt_overflow.pico)
 .comment       0x00000000       0x30 libc_pic.a(bt_page.pico)
 .comment       0x00000000       0x30 libc_pic.a(mpool.pico)
 .comment       0x00000000       0x30 libc_pic.a(pwrite.pico)
 .comment       0x00000000       0x30 libc_pic.a(pread.pico)
 .comment       0x00000000       0x30 libc_pic.a(fsync.pico)
 .comment       0x00000000       0x30 libc_pic.a(abort.pico)
 .comment       0x00000000       0x30 libc_pic.a(fwrite.pico)
 .comment       0x00000000       0x30 libc_pic.a(fvwrite.pico)
 .comment       0x00000000       0x30 libc_pic.a(findfp.pico)
 .comment       0x00000000       0x30 libc_pic.a(fflush.pico)
 .comment       0x00000000       0x30 libc_pic.a(sysconf.pico)
 .comment       0x00000000       0x30 libc_pic.a(signal.pico)
 .comment       0x00000000       0x30 libc_pic.a(raise.pico)
 .comment       0x00000000       0x30 libc_pic.a(getpagesize.pico)
 .comment       0x00000000       0x30 libc_pic.a(_exit.pico)
 .comment       0x00000000       0x30 libc_pic.a(sigaction.pico)
 .comment       0x00000000       0x30 libc_pic.a(pathconf.pico)
 .comment       0x00000000       0x30 libc_pic.a(open.pico)
 .comment       0x00000000       0x30 libc_pic.a(loadname.pico)
 .comment       0x00000000       0x30 libc_pic.a(kill.pico)
 .comment       0x00000000       0x30 libc_pic.a(getrlimit.pico)
 .comment       0x00000000       0x30 libc_pic.a(getpid.pico)
 .comment       0x00000000       0x30 libc_pic.a(fpathconf.pico)
 .comment       0x00000000       0x30 libc_pic.a(stdio.pico)
 .comment       0x00000000       0x30 libc_pic.a(sysctlgetmibinfo.pico)
 .comment       0x00000000       0x30 libc_pic.a(sysctl.pico)
 .comment       0x00000000       0x30 libc_pic.a(__sysctl.pico)
 .comment       0x00000000       0x30 libc_pic.a(write.pico)
 .comment       0x00000000       0x30 libc_pic.a(stat.pico)
 .comment       0x00000000       0x30 libc_pic.a(sigreturn.pico)
 .comment       0x00000000       0x30 libc_pic.a(read.pico)
 .comment       0x00000000       0x30 libc_pic.a(lseek.pico)
 .comment       0x00000000       0x30 libc_pic.a(close.pico)
 .comment       0x00000000       0x30 libc_pic.a(strpbrk.pico)
 .comment       0x00000000       0x30 libc_pic.a(strncpy.pico)
 .comment       0x00000000       0x30 libc_pic.a(strlcpy.pico)
 .comment       0x00000000       0x30 libc_pic.a(strlcat.pico)
 .comment       0x00000000       0x30 libc_pic.a(strtoimax.pico)
 .comment       0x00000000       0x30 libc_pic.a(qsort.pico)
 .comment       0x00000000       0x30 libc_pic.a(global_locale.pico)
 .comment       0x00000000       0x30 libc_pic.a(isctype.pico)
 .comment       0x00000000       0x30 libc_pic.a(sigprocmask.pico)
 .comment       0x00000000       0x30 libc_pic.a(runetable.pico)
 .comment       0x00000000       0x30 libc_pic.a(toupper_.pico)
 .comment       0x00000000       0x30 libc_pic.a(tolower_.pico)
 .comment       0x00000000       0x30 libc_pic.a(ctype_.pico)
 .comment       0x00000000       0x30 libc_pic.a(citrus_ctype.pico)
 .comment       0x00000000       0x30 libc_pic.a(syscall.pico)
 .comment       0x00000000       0x30 libc_pic.a(_errno.pico)
 .comment       0x00000000       0x30 libc_pic.a(citrus_none.pico)
 .comment       0x00000000       0x30 libc_pic.a(init.pico)

.ident          0x00000000     0x1ca0
 .ident         0x00000000       0x36 /usr/lib/crti.o
 .ident         0x00000036       0x3a /usr/lib/crtbeginS.o
 .ident         0x00000070       0x38 libc_pic.a(wcsspn.pico)
 .ident         0x000000a8       0x39 libc_pic.a(wcspbrk.pico)
 .ident         0x000000e1       0x39 libc_pic.a(wcscspn.pico)
 .ident         0x0000011a       0x3b libc_pic.a(popcount64.pico)
 .ident         0x00000155       0x3b libc_pic.a(popcount32.pico)
 .ident         0x00000190       0x38 libc_pic.a(strspn.pico)
 .ident         0x000001c8       0x3d libc_pic.a(strtouq.pico)
 .ident         0x00000205       0x3a libc_pic.a(strtoull.pico)
 .ident         0x0000023f       0x39 libc_pic.a(strtoq.pico)
 .ident         0x00000278       0x3d libc_pic.a(strtonum.pico)
 .ident         0x000002b5       0x3b libc_pic.a(strtou.pico)
 .ident         0x000002f0       0x3e libc_pic.a(reallocarray.pico)
 .ident         0x0000032e       0x3f libc_pic.a(quick_exit.pico)
 .ident         0x0000036d       0x3e libc_pic.a(getopt_long.pico)
 .ident         0x000003ab       0x3c libc_pic.a(getopt.pico)
 .ident         0x000003e7       0x44 libc_pic.a(open_wmemstream.pico)
 .ident         0x0000042b       0x43 libc_pic.a(open_memstream.pico)
 .ident         0x0000046e       0x37 libc_pic.a(getline.pico)
 .ident         0x000004a5       0x3e libc_pic.a(vsprintf_chk.pico)
 .ident         0x000004e3       0x40 libc_pic.a(vsnprintf_chk.pico)
 .ident         0x00000523       0x40 libc_pic.a(strncpy_chk.pico)
 .ident         0x00000563       0x3d libc_pic.a(strncat_chk.pico)
 .ident         0x000005a0       0x3f libc_pic.a(strcpy_chk.pico)
 .ident         0x000005df       0x3c libc_pic.a(strcat_chk.pico)
 .ident         0x0000061b       0x40 libc_pic.a(stpncpy_chk.pico)
 .ident         0x0000065b       0x3f libc_pic.a(stpcpy_chk.pico)
 .ident         0x0000069a       0x3d libc_pic.a(sprintf_chk.pico)
 .ident         0x000006d7       0x3f libc_pic.a(snprintf_chk.pico)
 .ident         0x00000716       0x3c libc_pic.a(memset_chk.pico)
 .ident         0x00000752       0x3d libc_pic.a(memmove_chk.pico)
 .ident         0x0000078f       0x3c libc_pic.a(memcpy_chk.pico)
 .ident         0x000007cb       0x3b libc_pic.a(fgets_chk.pico)
 .ident         0x00000806       0x3d libc_pic.a(gets_chk.pico)
 .ident         0x00000843       0x42 libc_pic.a(inet6_scopeid.pico)
 .ident         0x00000885       0x3a libc_pic.a(initfini.pico)
 .ident         0x000008bf       0x3a libc_pic.a(wcsftime.pico)
 .ident         0x000008f9       0x3e libc_pic.a(nl_langinfo.pico)
 .ident         0x00000937       0x3b libc_pic.a(newlocale.pico)
 .ident         0x00000972       0x3c libc_pic.a(freelocale.pico)
 .ident         0x000009ae       0x3b libc_pic.a(duplocale.pico)
 .ident         0x000009e9       0x3c libc_pic.a(assertions.pico)
 .ident         0x00000a25       0x3e libc_pic.a(sha224hl.pico)
 .ident         0x00000a63       0x37 libc_pic.a(ptree.pico)
 .ident         0x00000a9a       0x4a libc_pic.a(posix_spawn_fileactions.pico)
 .ident         0x00000ae4       0x44 libc_pic.a(posix_spawn_sched.pico)
 .ident         0x00000b28       0x34 libc_pic.a(nftw.pico)
 .ident         0x00000b5c       0x33 libc_pic.a(ftw.pico)
 .ident         0x00000b8f       0x39 libc_pic.a(asysctl.pico)
 .ident         0x00000bc8       0x44 libc_pic.a(citrus_bcs_strtoul.pico)
 .ident         0x00000c0c       0x37 libc_pic.a(ndbm.pico)
 .ident         0x00000c43       0x3e libc_pic.a(ndbmdatum.pico)
 .ident         0x00000c81       0x3e libc_pic.a(bt_debug.pico)
 .ident         0x00000cbf       0x36 libc_pic.a(cdbw.pico)
 .ident         0x00000cf5       0x40 libc_pic.a(atomic_init_cas.pico)
 .ident         0x00000d35       0x43 libc_pic.a(__cmsg_alignbytes.pico)
 .ident         0x00000d78       0x3e libc_pic.a(compat_ndbmdatum.pico)
 .ident         0x00000db6       0x39 libc_pic.a(strtoll.pico)
 .ident         0x00000def       0x40 libc_pic.a(stack_protector.pico)
 .ident         0x00000e2f       0x3a libc_pic.a(devname.pico)
 .ident         0x00000e69       0x3e libc_pic.a(arc4random.pico)
 .ident         0x00000ea7       0x3b libc_pic.a(strtoumax.pico)
 .ident         0x00000ee2       0x3c libc_pic.a(reallocarr.pico)
 .ident         0x00000f1e       0x3f libc_pic.a(ev_streams.pico)
 .ident         0x00000f5d       0x3f libc_pic.a(ev_timers.pico)
 .ident         0x00000f9c       0x36 libc_pic.a(cdbr.pico)
 .ident         0x00000fd2       0x40 libc_pic.a(mi_vector_hash.pico)
 .ident         0x00001012       0x3e libc_pic.a(strerror.pico)
 .ident         0x00001050       0x39 libc_pic.a(strtoul.pico)
 .ident         0x00001089       0x3e libc_pic.a(ns_print.pico)
 .ident         0x000010c7       0x3d libc_pic.a(ns_parse.pico)
 .ident         0x00001104       0x3b libc_pic.a(ns_ttl.pico)
 .ident         0x0000113f       0x42 libc_pic.a(ns_samedomain.pico)
 .ident         0x00001181       0x37 libc_pic.a(fgetln.pico)
 .ident         0x000011b8       0x3e libc_pic.a(ns_netint.pico)
 .ident         0x000011f6       0x3d libc_pic.a(ns_name.pico)
 .ident         0x00001233       0x39 libc_pic.a(strtol.pico)
 .ident         0x0000126c       0x3a libc_pic.a(fgetstr.pico)
 .ident         0x000012a6       0x3b libc_pic.a(getdelim.pico)
 .ident         0x000012e1       0x3c libc_pic.a(strerror_r.pico)
 .ident         0x0000131d       0x3d libc_pic.a(catopen.pico)
 .ident         0x0000135a       0x3b libc_pic.a(errlist.pico)
 .ident         0x00001395       0x43 libc_pic.a(citrus_bcs_strtol.pico)
 .ident         0x000013d8       0x3d libc_pic.a(rec_put.pico)
 .ident         0x00001415       0x3e libc_pic.a(rec_open.pico)
 .ident         0x00001453       0x3a libc_pic.a(rec_seq.pico)
 .ident         0x0000148d       0x3d libc_pic.a(rec_get.pico)
 .ident         0x000014ca       0x3d libc_pic.a(rec_delete.pico)
 .ident         0x00001507       0x3c libc_pic.a(rec_close.pico)
 .ident         0x00001543       0x3f libc_pic.a(rec_utils.pico)
 .ident         0x00001582       0x3d libc_pic.a(rec_search.pico)
 .ident         0x000015bf       0x3b libc_pic.a(strtoi.pico)
 .ident         0x000015fa       0x35 libc_pic.a(hdtoa.pico)
 .ident         0x0000162f       0x3a libc_pic.a(ldtoa.pico)
 .ident         0x00001669       0x3f libc_pic.a(hash_page.pico)
 .ident         0x000016a8       0x41 libc_pic.a(hash_bigkey.pico)
 .ident         0x000016e9       0x38 libc_pic.a(db.pico)
 .ident         0x00001721       0x3a libc_pic.a(hash.pico)
 .ident         0x0000175b       0x3d libc_pic.a(bt_open.pico)
 .ident         0x00001798       0x39 libc_pic.a(bt_get.pico)
 .ident         0x000017d1       0x3a libc_pic.a(bt_conv.pico)
 .ident         0x0000180b       0x3b libc_pic.a(bt_close.pico)
 .ident         0x00001846       0x3c libc_pic.a(hash_log2.pico)
 .ident         0x00001882       0x3c libc_pic.a(hash_func.pico)
 .ident         0x000018be       0x3e libc_pic.a(hash_buf.pico)
 .ident         0x000018fc       0x3b libc_pic.a(dbfile.pico)
 .ident         0x00001937       0x3c libc_pic.a(bt_put.pico)
 .ident         0x00001973       0x3c libc_pic.a(bt_delete.pico)
 .ident         0x000019af       0x34 libc_pic.a(rb.pico)
 .ident         0x000019e3       0x39 libc_pic.a(bt_split.pico)
 .ident         0x00001a1c       0x39 libc_pic.a(bt_seq.pico)
 .ident         0x00001a55       0x3c libc_pic.a(bt_search.pico)
 .ident         0x00001a91       0x39 libc_pic.a(strcspn.pico)
 .ident         0x00001aca       0x3e libc_pic.a(bt_utils.pico)
 .ident         0x00001b08       0x41 libc_pic.a(bt_overflow.pico)
 .ident         0x00001b49       0x3a libc_pic.a(bt_page.pico)
 .ident         0x00001b83       0x3b libc_pic.a(mpool.pico)
 .ident         0x00001bbe       0x39 libc_pic.a(strpbrk.pico)
 .ident         0x00001bf7       0x3b libc_pic.a(strtoimax.pico)
 .ident         0x00001c32       0x38 /usr/lib/crtendS.o
 .ident         0x00001c6a       0x36 /usr/lib/crtn.o

.copyright      0x00000000       0x48
 .copyright     0x00000000       0x48 libc_pic.a(hcreate.pico)

.debug
 *(.debug)

.line
 *(.line)

.debug_srcinfo
 *(.debug_srcinfo)

.debug_sfnames
 *(.debug_sfnames)

.debug_aranges
 *(.debug_aranges)

.debug_pubnames
 *(.debug_pubnames)

.debug_info
 *(.debug_info .gnu.linkonce.wi.*)

.debug_abbrev
 *(.debug_abbrev)

.debug_line
 *(.debug_line)

.debug_frame
 *(.debug_frame)

.debug_str
 *(.debug_str)

.debug_loc
 *(.debug_loc)

.debug_macinfo
 *(.debug_macinfo)

.debug_weaknames
 *(.debug_weaknames)

.debug_funcnames
 *(.debug_funcnames)

.debug_typenames
 *(.debug_typenames)

.debug_varnames
 *(.debug_varnames)

.debug_pubtypes
 *(.debug_pubtypes)

.debug_ranges
 *(.debug_ranges)

.debug_macro
 *(.debug_macro)

.gnu.attributes
 *(.gnu.attributes)

/DISCARD/
 *(.note.GNU-stack)
 *(.gnu_debuglink)
 *(.gnu.lto_*)
OUTPUT(libc.so.12.197 elf32-i386-minix)
