Archive member included because of file (symbol)

libcrypto_pic.a(rc5_enc_dummy.pico)
                              (--whole-archive)
libcrypto_pic.a(rc5_skey_dummy.pico)
                              (--whole-archive)
libcrypto_pic.a(mdc2_one.pico)
                              (--whole-archive)
libcrypto_pic.a(x509type.pico)
                              (--whole-archive)
libcrypto_pic.a(x509cset.pico)
                              (--whole-archive)
libcrypto_pic.a(x509spki.pico)
                              (--whole-archive)
libcrypto_pic.a(x509_r2x.pico)
                              (--whole-archive)
libcrypto_pic.a(x509_d2.pico)
                              (--whole-archive)
libcrypto_pic.a(ts_conf.pico)
                              (--whole-archive)
libcrypto_pic.a(ts_verify_ctx.pico)
                              (--whole-archive)
libcrypto_pic.a(ts_rsp_verify.pico)
                              (--whole-archive)
libcrypto_pic.a(ts_rsp_sign.pico)
                              (--whole-archive)
libcrypto_pic.a(ts_rsp_print.pico)
                              (--whole-archive)
libcrypto_pic.a(ts_rsp_utils.pico)
                              (--whole-archive)
libcrypto_pic.a(ts_req_print.pico)
                              (--whole-archive)
libcrypto_pic.a(str_meth.pico)
                              (--whole-archive)
libcrypto_pic.a(str_mem.pico)
                              (--whole-archive)
libcrypto_pic.a(str_lib.pico)
                              (--whole-archive)
libcrypto_pic.a(str_err.pico)
                              (--whole-archive)
libcrypto_pic.a(srp_vfy.pico)
                              (--whole-archive)
libcrypto_pic.a(srp_lib.pico)
                              (--whole-archive)
libcrypto_pic.a(libc-sha256.pico)
                              (--whole-archive)
libcrypto_pic.a(libc-sha512.pico)
                              (--whole-archive)
libcrypto_pic.a(sha1_one.pico)
                              (--whole-archive)
libcrypto_pic.a(sha_one.pico)
                              (--whole-archive)
libcrypto_pic.a(rsa_prn.pico)
                              (--whole-archive)
libcrypto_pic.a(rsa_depr.pico)
                              (--whole-archive)
libcrypto_pic.a(rsa_null.pico)
                              (--whole-archive)
libcrypto_pic.a(rsa_chk.pico)
                              (--whole-archive)
libcrypto_pic.a(rmd_one.pico)
                              (--whole-archive)
libcrypto_pic.a(rand_os2.pico)
                              (--whole-archive)
libcrypto_pic.a(rand_win.pico)
                              (--whole-archive)
libcrypto_pic.a(randfile.pico)
                              (--whole-archive)
libcrypto_pic.a(pqueue.pico)  (--whole-archive)
libcrypto_pic.a(pk7_mime.pico)
                              (--whole-archive)
libcrypto_pic.a(pk7_smime.pico)
                              (--whole-archive)
libcrypto_pic.a(p12_npas.pico)
                              (--whole-archive)
libcrypto_pic.a(p12_kiss.pico)
                              (--whole-archive)
libcrypto_pic.a(p12_crt.pico)
                              (--whole-archive)
libcrypto_pic.a(p12_attr.pico)
                              (--whole-archive)
libcrypto_pic.a(pvkfmt.pico)  (--whole-archive)
libcrypto_pic.a(pem_seal.pico)
                              (--whole-archive)
libcrypto_pic.a(pem_sign.pico)
                              (--whole-archive)
libcrypto_pic.a(ocsp_vfy.pico)
                              (--whole-archive)
libcrypto_pic.a(ocsp_prn.pico)
                              (--whole-archive)
libcrypto_pic.a(ocsp_srv.pico)
                              (--whole-archive)
libcrypto_pic.a(ocsp_cl.pico)
                              (--whole-archive)
libcrypto_pic.a(ocsp_lib.pico)
                              (--whole-archive)
libcrypto_pic.a(ocsp_ht.pico)
                              (--whole-archive)
libcrypto_pic.a(ocsp_ext.pico)
                              (--whole-archive)
libcrypto_pic.a(md5_one.pico)
                              (--whole-archive)
libcrypto_pic.a(md4_one.pico)
                              (--whole-archive)
libcrypto_pic.a(md2_one.pico)
                              (--whole-archive)
libcrypto_pic.a(cmll_ctr.pico)
                              (--whole-archive)
libcrypto_pic.a(cts128.pico)  (--whole-archive)
libcrypto_pic.a(lh_stats.pico)
                              (--whole-archive)
libcrypto_pic.a(krb5_asn.pico)
                              (--whole-archive)
libcrypto_pic.a(evp_fips.pico)
                              (--whole-archive)
libcrypto_pic.a(bio_ok.pico)  (--whole-archive)
libcrypto_pic.a(e_null.pico)  (--whole-archive)
libcrypto_pic.a(p_seal.pico)  (--whole-archive)
libcrypto_pic.a(p_open.pico)  (--whole-archive)
libcrypto_pic.a(m_md2.pico)   (--whole-archive)
libcrypto_pic.a(m_null.pico)  (--whole-archive)
libcrypto_pic.a(evp_acnf.pico)
                              (--whole-archive)
libcrypto_pic.a(err_all.pico)
                              (--whole-archive)
libcrypto_pic.a(e_ubsec_err.pico)
                              (--whole-archive)
libcrypto_pic.a(e_sureware_err.pico)
                              (--whole-archive)
libcrypto_pic.a(e_nuron_err.pico)
                              (--whole-archive)
libcrypto_pic.a(e_gmp_err.pico)
                              (--whole-archive)
libcrypto_pic.a(e_gmp.pico)   (--whole-archive)
libcrypto_pic.a(e_cswift_err.pico)
                              (--whole-archive)
libcrypto_pic.a(e_chil_err.pico)
                              (--whole-archive)
libcrypto_pic.a(e_atalla_err.pico)
                              (--whole-archive)
libcrypto_pic.a(e_aep_err.pico)
                              (--whole-archive)
libcrypto_pic.a(e_4758cca_err.pico)
                              (--whole-archive)
libcrypto_pic.a(tb_store.pico)
                              (--whole-archive)
libcrypto_pic.a(eng_cryptodev.pico)
                              (--whole-archive)
libcrypto_pic.a(eng_openssl.pico)
                              (--whole-archive)
libcrypto_pic.a(eng_err.pico)
                              (--whole-archive)
libcrypto_pic.a(ecs_err.pico)
                              (--whole-archive)
libcrypto_pic.a(ech_err.pico)
                              (--whole-archive)
libcrypto_pic.a(ec_check.pico)
                              (--whole-archive)
libcrypto_pic.a(ec_err.pico)  (--whole-archive)
libcrypto_pic.a(dso_vms.pico)
                              (--whole-archive)
libcrypto_pic.a(dso_win32.pico)
                              (--whole-archive)
libcrypto_pic.a(dso_null.pico)
                              (--whole-archive)
libcrypto_pic.a(dso_err.pico)
                              (--whole-archive)
libcrypto_pic.a(dso_dl.pico)  (--whole-archive)
libcrypto_pic.a(dsa_prn.pico)
                              (--whole-archive)
libcrypto_pic.a(dsa_depr.pico)
                              (--whole-archive)
libcrypto_pic.a(dsa_err.pico)
                              (--whole-archive)
libcrypto_pic.a(dh_prn.pico)  (--whole-archive)
libcrypto_pic.a(dh_depr.pico)
                              (--whole-archive)
libcrypto_pic.a(dh_err.pico)  (--whole-archive)
libcrypto_pic.a(read2pwd.pico)
                              (--whole-archive)
libcrypto_pic.a(ede_cbcm_enc.pico)
                              (--whole-archive)
libcrypto_pic.a(str2key.pico)
                              (--whole-archive)
libcrypto_pic.a(rpc_enc.pico)
                              (--whole-archive)
libcrypto_pic.a(rand_key.pico)
                              (--whole-archive)
libcrypto_pic.a(qud_cksm.pico)
                              (--whole-archive)
libcrypto_pic.a(ofb_enc.pico)
                              (--whole-archive)
libcrypto_pic.a(fcrypt.pico)  (--whole-archive)
libcrypto_pic.a(enc_writ.pico)
                              (--whole-archive)
libcrypto_pic.a(enc_read.pico)
                              (--whole-archive)
libcrypto_pic.a(cbc_enc.pico)
                              (--whole-archive)
libcrypto_pic.a(cbc_cksm.pico)
                              (--whole-archive)
libcrypto_pic.a(crypt586.pico)
                              (--whole-archive)
libcrypto_pic.a(o_fips.pico)  (--whole-archive)
libcrypto_pic.a(o_dir.pico)   (--whole-archive)
libcrypto_pic.a(o_str.pico)   (--whole-archive)
libcrypto_pic.a(uid.pico)     (--whole-archive)
libcrypto_pic.a(ebcdic.pico)  (--whole-archive)
libcrypto_pic.a(cpt_err.pico)
                              (--whole-archive)
libcrypto_pic.a(cversion.pico)
                              (--whole-archive)
libcrypto_pic.a(conf_sap.pico)
                              (--whole-archive)
libcrypto_pic.a(conf_mall.pico)
                              (--whole-archive)
libcrypto_pic.a(conf_err.pico)
                              (--whole-archive)
libcrypto_pic.a(c_zlib.pico)  (--whole-archive)
libcrypto_pic.a(c_rle.pico)   (--whole-archive)
libcrypto_pic.a(comp_err.pico)
                              (--whole-archive)
libcrypto_pic.a(comp_lib.pico)
                              (--whole-archive)
libcrypto_pic.a(cms_cd.pico)  (--whole-archive)
libcrypto_pic.a(cms_err.pico)
                              (--whole-archive)
libcrypto_pic.a(cms_smime.pico)
                              (--whole-archive)
libcrypto_pic.a(buf_err.pico)
                              (--whole-archive)
libcrypto_pic.a(bn_x931p.pico)
                              (--whole-archive)
libcrypto_pic.a(bn_const.pico)
                              (--whole-archive)
libcrypto_pic.a(bn_depr.pico)
                              (--whole-archive)
libcrypto_pic.a(bn_mpi.pico)  (--whole-archive)
libcrypto_pic.a(bn_err.pico)  (--whole-archive)
libcrypto_pic.a(bss_dgram.pico)
                              (--whole-archive)
libcrypto_pic.a(bss_bio.pico)
                              (--whole-archive)
libcrypto_pic.a(bss_log.pico)
                              (--whole-archive)
libcrypto_pic.a(bf_nbio.pico)
                              (--whole-archive)
libcrypto_pic.a(bss_acpt.pico)
                              (--whole-archive)
libcrypto_pic.a(bf_null.pico)
                              (--whole-archive)
libcrypto_pic.a(bss_conn.pico)
                              (--whole-archive)
libcrypto_pic.a(bss_fd.pico)  (--whole-archive)
libcrypto_pic.a(bio_err.pico)
                              (--whole-archive)
libcrypto_pic.a(bio_cb.pico)  (--whole-archive)
libcrypto_pic.a(x_nx509.pico)
                              (--whole-archive)
libcrypto_pic.a(asn_moid.pico)
                              (--whole-archive)
libcrypto_pic.a(asn1_err.pico)
                              (--whole-archive)
libcrypto_pic.a(f_enum.pico)  (--whole-archive)
libcrypto_pic.a(n_pkey.pico)  (--whole-archive)
libcrypto_pic.a(t_bitst.pico)
                              (--whole-archive)
libcrypto_pic.a(t_spki.pico)  (--whole-archive)
libcrypto_pic.a(t_crl.pico)   (--whole-archive)
libcrypto_pic.a(t_req.pico)   (--whole-archive)
libcrypto_pic.a(i2d_pu.pico)  (--whole-archive)
libcrypto_pic.a(d2i_pu.pico)  (--whole-archive)
libcrypto_pic.a(aes_ecb.pico)
                              (--whole-archive)
libcrypto_pic.a(aes_ige.pico)
                              (--whole-archive)
libcrypto_pic.a(aes_ctr.pico)
                              (--whole-archive)
libcrypto_pic.a(aes_ofb.pico)
                              (--whole-archive)
libcrypto_pic.a(aes_cfb.pico)
                              (--whole-archive)
libcrypto_pic.a(v3err.pico)   (--whole-archive)
libcrypto_pic.a(by_dir.pico)  (--whole-archive)
libcrypto_pic.a(by_file.pico)
                              (--whole-archive)
libcrypto_pic.a(x509_txt.pico)
                              (--whole-archive)
libcrypto_pic.a(x509_err.pico)
                              (--whole-archive)
libcrypto_pic.a(x509_set.pico)
                              (--whole-archive)
libcrypto_pic.a(ui_util.pico)
                              (--whole-archive)
libcrypto_pic.a(ui_err.pico)  (--whole-archive)
libcrypto_pic.a(ts_lib.pico)  (--whole-archive)
libcrypto_pic.a(ts_req_utils.pico)
                              (--whole-archive)
libcrypto_pic.a(ts_err.pico)  (--whole-archive)
libcrypto_pic.a(txt_db.pico)  (--whole-archive)
libcrypto_pic.a(rsa_err.pico)
                              (--whole-archive)
libcrypto_pic.a(rand_err.pico)
                              (--whole-archive)
libcrypto_pic.a(pkcs7err.pico)
                              (--whole-archive)
libcrypto_pic.a(pk12err.pico)
                              (--whole-archive)
libcrypto_pic.a(p12_mutl.pico)
                              (--whole-archive)
libcrypto_pic.a(p12_init.pico)
                              (--whole-archive)
libcrypto_pic.a(pem_xaux.pico)
                              (--whole-archive)
libcrypto_pic.a(pem_err.pico)
                              (--whole-archive)
libcrypto_pic.a(pem_info.pico)
                              (--whole-archive)
libcrypto_pic.a(ocsp_err.pico)
                              (--whole-archive)
libcrypto_pic.a(obj_err.pico)
                              (--whole-archive)
libcrypto_pic.a(md2_dgst.pico)
                              (--whole-archive)
libcrypto_pic.a(c_all.pico)   (--whole-archive)
libcrypto_pic.a(evp_err.pico)
                              (--whole-archive)
libcrypto_pic.a(evp_cnf.pico)
                              (--whole-archive)
libcrypto_pic.a(p_dec.pico)   (--whole-archive)
libcrypto_pic.a(p_enc.pico)   (--whole-archive)
libcrypto_pic.a(eng_cnf.pico)
                              (--whole-archive)
libcrypto_pic.a(eng_all.pico)
                              (--whole-archive)
libcrypto_pic.a(eng_fat.pico)
                              (--whole-archive)
libcrypto_pic.a(pcbc_enc.pico)
                              (--whole-archive)
libcrypto_pic.a(cms_ess.pico)
                              (--whole-archive)
libcrypto_pic.a(b_sock.pico)  (--whole-archive)
libcrypto_pic.a(bss_sock.pico)
                              (--whole-archive)
libcrypto_pic.a(x_info.pico)  (--whole-archive)
libcrypto_pic.a(ts_asn1.pico)
                              (--whole-archive)
libcrypto_pic.a(pem_x509.pico)
                              (--whole-archive)
libcrypto_pic.a(pem_all.pico)
                              (--whole-archive)
libcrypto_pic.a(c_alld.pico)  (--whole-archive)
libcrypto_pic.a(c_allc.pico)  (--whole-archive)
libcrypto_pic.a(m_ripemd.pico)
                              (--whole-archive)
libcrypto_pic.a(m_mdc2.pico)  (--whole-archive)
libcrypto_pic.a(m_dss1.pico)  (--whole-archive)
libcrypto_pic.a(m_dss.pico)   (--whole-archive)
libcrypto_pic.a(m_sha.pico)   (--whole-archive)
libcrypto_pic.a(m_md4.pico)   (--whole-archive)
libcrypto_pic.a(e_rc5.pico)   (--whole-archive)
libcrypto_pic.a(e_cast.pico)  (--whole-archive)
libcrypto_pic.a(e_rc2.pico)   (--whole-archive)
libcrypto_pic.a(e_xcbc_d.pico)
                              (--whole-archive)
libcrypto_pic.a(e_camellia.pico)
                              (--whole-archive)
libcrypto_pic.a(e_aes.pico)   (--whole-archive)
libcrypto_pic.a(e_rc4.pico)   (--whole-archive)
libcrypto_pic.a(e_des3.pico)  (--whole-archive)
libcrypto_pic.a(e_idea.pico)  (--whole-archive)
libcrypto_pic.a(e_bf.pico)    (--whole-archive)
libcrypto_pic.a(e_des.pico)   (--whole-archive)
libcrypto_pic.a(gost_eng.pico)
                              (--whole-archive)
libcrypto_pic.a(e_seed.pico)  (--whole-archive)
libcrypto_pic.a(e_padlock.pico)
                              (--whole-archive)
libcrypto_pic.a(e_ubsec.pico)
                              (--whole-archive)
libcrypto_pic.a(e_sureware.pico)
                              (--whole-archive)
libcrypto_pic.a(e_nuron.pico)
                              (--whole-archive)
libcrypto_pic.a(e_cswift.pico)
                              (--whole-archive)
libcrypto_pic.a(e_chil.pico)  (--whole-archive)
libcrypto_pic.a(e_atalla.pico)
                              (--whole-archive)
libcrypto_pic.a(e_aep.pico)   (--whole-archive)
libcrypto_pic.a(e_4758cca.pico)
                              (--whole-archive)
libcrypto_pic.a(eng_rsax.pico)
                              (--whole-archive)
libcrypto_pic.a(eng_rdrand.pico)
                              (--whole-archive)
libcrypto_pic.a(eng_dyn.pico)
                              (--whole-archive)
libcrypto_pic.a(eng_pkey.pico)
                              (--whole-archive)
libcrypto_pic.a(ofb64ede.pico)
                              (--whole-archive)
libcrypto_pic.a(cfb64ede.pico)
                              (--whole-archive)
libcrypto_pic.a(xcbc_enc.pico)
                              (--whole-archive)
libcrypto_pic.a(ofb64enc.pico)
                              (--whole-archive)
libcrypto_pic.a(ecb_enc.pico)
                              (--whole-archive)
libcrypto_pic.a(ecb3_enc.pico)
                              (--whole-archive)
libcrypto_pic.a(cfb_enc.pico)
                              (--whole-archive)
libcrypto_pic.a(cfb64enc.pico)
                              (--whole-archive)
libcrypto_pic.a(c_ofb64.pico)
                              (--whole-archive)
libcrypto_pic.a(c_cfb64.pico)
                              (--whole-archive)
libcrypto_pic.a(c_ecb.pico)   (--whole-archive)
libcrypto_pic.a(c_enc.pico)   (--whole-archive)
libcrypto_pic.a(bf_ofb64.pico)
                              (--whole-archive)
libcrypto_pic.a(bf_cfb64.pico)
                              (--whole-archive)
libcrypto_pic.a(bf_ecb.pico)  (--whole-archive)
libcrypto_pic.a(bf_skey.pico)
                              (--whole-archive)
libcrypto_pic.a(bf-586.pico)  (--whole-archive)
libcrypto_pic.a(x_pkey.pico)  (--whole-archive)
libcrypto_pic.a(nsseq.pico)   (--whole-archive)
libcrypto_pic.a(aesni-x86.pico)
                              (--whole-archive)
libcrypto_pic.a(rc5ofb64.pico)
                              (--whole-archive)
libcrypto_pic.a(rc5cfb64.pico)
                              (--whole-archive)
libcrypto_pic.a(rc5_ecb.pico)
                              (--whole-archive)
libcrypto_pic.a(seed_ofb.pico)
                              (--whole-archive)
libcrypto_pic.a(seed_cfb.pico)
                              (--whole-archive)
libcrypto_pic.a(seed_cbc.pico)
                              (--whole-archive)
libcrypto_pic.a(seed_ecb.pico)
                              (--whole-archive)
libcrypto_pic.a(seed.pico)    (--whole-archive)
libcrypto_pic.a(mdc2dgst.pico)
                              (--whole-archive)
libcrypto_pic.a(i_skey.pico)  (--whole-archive)
libcrypto_pic.a(i_ecb.pico)   (--whole-archive)
libcrypto_pic.a(i_ofb64.pico)
                              (--whole-archive)
libcrypto_pic.a(i_cfb64.pico)
                              (--whole-archive)
libcrypto_pic.a(sha_dgst.pico)
                              (--whole-archive)
libcrypto_pic.a(rmd_dgst.pico)
                              (--whole-archive)
libcrypto_pic.a(rc2ofb64.pico)
                              (--whole-archive)
libcrypto_pic.a(rc2cfb64.pico)
                              (--whole-archive)
libcrypto_pic.a(rc2_skey.pico)
                              (--whole-archive)
libcrypto_pic.a(rc2_ecb.pico)
                              (--whole-archive)
libcrypto_pic.a(pem_pkey.pico)
                              (--whole-archive)
libcrypto_pic.a(pem_pk8.pico)
                              (--whole-archive)
libcrypto_pic.a(md4_dgst.pico)
                              (--whole-archive)
libcrypto_pic.a(cmll_utl.pico)
                              (--whole-archive)
libcrypto_pic.a(cmll_ofb.pico)
                              (--whole-archive)
libcrypto_pic.a(cmll_cfb.pico)
                              (--whole-archive)
libcrypto_pic.a(cmll_ecb.pico)
                              (--whole-archive)
libcrypto_pic.a(cmll_cbc.pico)
                              (--whole-archive)
libcrypto_pic.a(xts128.pico)  (--whole-archive)
libcrypto_pic.a(ccm128.pico)  (--whole-archive)
libcrypto_pic.a(gcm128.pico)  (--whole-archive)
libcrypto_pic.a(ofb128.pico)  (--whole-archive)
libcrypto_pic.a(cfb128.pico)  (--whole-archive)
libcrypto_pic.a(ctr128.pico)  (--whole-archive)
libcrypto_pic.a(cbc128.pico)  (--whole-archive)
libcrypto_pic.a(ghash-x86.pico)
                              (--whole-archive)
libcrypto_pic.a(e_rc4_hmac_md5.pico)
                              (--whole-archive)
libcrypto_pic.a(e_aes_cbc_hmac_sha1.pico)
                              (--whole-archive)
libcrypto_pic.a(m_wp.pico)    (--whole-archive)
libcrypto_pic.a(m_ecdsa.pico)
                              (--whole-archive)
libcrypto_pic.a(gost_pmeth.pico)
                              (--whole-archive)
libcrypto_pic.a(gost_md.pico)
                              (--whole-archive)
libcrypto_pic.a(gost94_keyx.pico)
                              (--whole-archive)
libcrypto_pic.a(gost2001_keyx.pico)
                              (--whole-archive)
libcrypto_pic.a(set_key.pico)
                              (--whole-archive)
libcrypto_pic.a(des-586.pico)
                              (--whole-archive)
libcrypto_pic.a(c_skey.pico)  (--whole-archive)
libcrypto_pic.a(wp_dgst.pico)
                              (--whole-archive)
libcrypto_pic.a(wp_block.pico)
                              (--whole-archive)
libcrypto_pic.a(i_cbc.pico)   (--whole-archive)
libcrypto_pic.a(rc4_utl.pico)
                              (--whole-archive)
libcrypto_pic.a(rc4-586.pico)
                              (--whole-archive)
libcrypto_pic.a(rc2_cbc.pico)
                              (--whole-archive)
libcrypto_pic.a(cmll_misc.pico)
                              (--whole-archive)
libcrypto_pic.a(camellia.pico)
                              (--whole-archive)
libcrypto_pic.a(gost_keywrap.pico)
                              (--whole-archive)
libcrypto_pic.a(gosthash.pico)
                              (--whole-archive)
libcrypto_pic.a(gost_crypt.pico)
                              (--whole-archive)
libcrypto_pic.a(gost_ameth.pico)
                              (--whole-archive)
libcrypto_pic.a(gost89.pico)  (--whole-archive)
libcrypto_pic.a(gost2001.pico)
                              (--whole-archive)
libcrypto_pic.a(gost_sign.pico)
                              (--whole-archive)
libcrypto_pic.a(gost_params.pico)
                              (--whole-archive)
libcrypto_pic.a(gost_ctl.pico)
                              (--whole-archive)
libcrypto_pic.a(gost_asn1.pico)
                              (--whole-archive)
libcrypto_pic.a(e_gost_err.pico)
                              (--whole-archive)
libcrypto_pic.a(v3_utl.pico)  (--whole-archive)
libcrypto_pic.a(v3_sxnet.pico)
                              (--whole-archive)
libcrypto_pic.a(v3_skey.pico)
                              (--whole-archive)
libcrypto_pic.a(v3_purp.pico)
                              (--whole-archive)
libcrypto_pic.a(v3_prn.pico)  (--whole-archive)
libcrypto_pic.a(v3_pku.pico)  (--whole-archive)
libcrypto_pic.a(v3_pci.pico)  (--whole-archive)
libcrypto_pic.a(v3_pcia.pico)
                              (--whole-archive)
libcrypto_pic.a(v3_ocsp.pico)
                              (--whole-archive)
libcrypto_pic.a(ocsp_asn.pico)
                              (--whole-archive)
libcrypto_pic.a(f_string.pico)
                              (--whole-archive)
libcrypto_pic.a(v3_ncons.pico)
                              (--whole-archive)
libcrypto_pic.a(v3_lib.pico)  (--whole-archive)
libcrypto_pic.a(v3_int.pico)  (--whole-archive)
libcrypto_pic.a(v3_info.pico)
                              (--whole-archive)
libcrypto_pic.a(v3_ia5.pico)  (--whole-archive)
libcrypto_pic.a(v3_extku.pico)
                              (--whole-archive)
libcrypto_pic.a(v3_enum.pico)
                              (--whole-archive)
libcrypto_pic.a(v3_bitst.pico)
                              (--whole-archive)
libcrypto_pic.a(v3_bcons.pico)
                              (--whole-archive)
libcrypto_pic.a(v3_akey.pico)
                              (--whole-archive)
libcrypto_pic.a(v3_genn.pico)
                              (--whole-archive)
libcrypto_pic.a(v3_crld.pico)
                              (--whole-archive)
libcrypto_pic.a(v3_alt.pico)  (--whole-archive)
libcrypto_pic.a(v3_cpols.pico)
                              (--whole-archive)
libcrypto_pic.a(v3_conf.pico)
                              (--whole-archive)
libcrypto_pic.a(x509_req.pico)
                              (--whole-archive)
libcrypto_pic.a(asn1_gen.pico)
                              (--whole-archive)
libcrypto_pic.a(x509rset.pico)
                              (--whole-archive)
libcrypto_pic.a(conf_mod.pico)
                              (--whole-archive)
libcrypto_pic.a(x509_def.pico)
                              (--whole-archive)
libcrypto_pic.a(pcy_tree.pico)
                              (--whole-archive)
libcrypto_pic.a(pcy_node.pico)
                              (--whole-archive)
libcrypto_pic.a(pcy_lib.pico)
                              (--whole-archive)
libcrypto_pic.a(pcy_map.pico)
                              (--whole-archive)
libcrypto_pic.a(v3_pmaps.pico)
                              (--whole-archive)
libcrypto_pic.a(x_all.pico)   (--whole-archive)
libcrypto_pic.a(i2d_pr.pico)  (--whole-archive)
libcrypto_pic.a(d2i_pr.pico)  (--whole-archive)
libcrypto_pic.a(x_spki.pico)  (--whole-archive)
libcrypto_pic.a(x_req.pico)   (--whole-archive)
libcrypto_pic.a(a_digest.pico)
                              (--whole-archive)
libcrypto_pic.a(a_sign.pico)  (--whole-archive)
libcrypto_pic.a(evp_pkey.pico)
                              (--whole-archive)
libcrypto_pic.a(x509_lu.pico)
                              (--whole-archive)
libcrypto_pic.a(x509name.pico)
                              (--whole-archive)
libcrypto_pic.a(a_print.pico)
                              (--whole-archive)
libcrypto_pic.a(x509_vfy.pico)
                              (--whole-archive)
libcrypto_pic.a(x509_vpm.pico)
                              (--whole-archive)
libcrypto_pic.a(x509_trs.pico)
                              (--whole-archive)
libcrypto_pic.a(x509_cmp.pico)
                              (--whole-archive)
libcrypto_pic.a(ui_openssl.pico)
                              (--whole-archive)
libcrypto_pic.a(stack.pico)   (--whole-archive)
libcrypto_pic.a(rsa_crpt.pico)
                              (--whole-archive)
libcrypto_pic.a(rsa_pss.pico)
                              (--whole-archive)
libcrypto_pic.a(rsa_pmeth.pico)
                              (--whole-archive)
libcrypto_pic.a(rsa_saos.pico)
                              (--whole-archive)
libcrypto_pic.a(rsa_gen.pico)
                              (--whole-archive)
libcrypto_pic.a(rsa_ameth.pico)
                              (--whole-archive)
libcrypto_pic.a(rsa_asn1.pico)
                              (--whole-archive)
libcrypto_pic.a(f_int.pico)   (--whole-archive)
libcrypto_pic.a(rsa_oaep.pico)
                              (--whole-archive)
libcrypto_pic.a(rsa_ssl.pico)
                              (--whole-archive)
libcrypto_pic.a(rsa_pk1.pico)
                              (--whole-archive)
libcrypto_pic.a(rsa_sign.pico)
                              (--whole-archive)
libcrypto_pic.a(rsa_lib.pico)
                              (--whole-archive)
libcrypto_pic.a(rsa_eay.pico)
                              (--whole-archive)
libcrypto_pic.a(tb_rsa.pico)  (--whole-archive)
libcrypto_pic.a(bn_blind.pico)
                              (--whole-archive)
libcrypto_pic.a(rsa_x931.pico)
                              (--whole-archive)
libcrypto_pic.a(rsa_none.pico)
                              (--whole-archive)
libcrypto_pic.a(rand_unix.pico)
                              (--whole-archive)
libcrypto_pic.a(rand_egd.pico)
                              (--whole-archive)
libcrypto_pic.a(rand_lib.pico)
                              (--whole-archive)
libcrypto_pic.a(md_rand.pico)
                              (--whole-archive)
libcrypto_pic.a(tb_rand.pico)
                              (--whole-archive)
libcrypto_pic.a(pk7_attr.pico)
                              (--whole-archive)
libcrypto_pic.a(pk7_doit.pico)
                              (--whole-archive)
libcrypto_pic.a(pk7_lib.pico)
                              (--whole-archive)
libcrypto_pic.a(pk7_asn1.pico)
                              (--whole-archive)
libcrypto_pic.a(p12_p8e.pico)
                              (--whole-archive)
libcrypto_pic.a(p12_p8d.pico)
                              (--whole-archive)
libcrypto_pic.a(p12_utl.pico)
                              (--whole-archive)
libcrypto_pic.a(p12_add.pico)
                              (--whole-archive)
libcrypto_pic.a(p12_decr.pico)
                              (--whole-archive)
libcrypto_pic.a(p12_asn.pico)
                              (--whole-archive)
libcrypto_pic.a(x_sig.pico)   (--whole-archive)
libcrypto_pic.a(p12_key.pico)
                              (--whole-archive)
libcrypto_pic.a(p12_crpt.pico)
                              (--whole-archive)
libcrypto_pic.a(pem_oth.pico)
                              (--whole-archive)
libcrypto_pic.a(pem_lib.pico)
                              (--whole-archive)
libcrypto_pic.a(m_md5.pico)   (--whole-archive)
libcrypto_pic.a(evp_key.pico)
                              (--whole-archive)
libcrypto_pic.a(ui_lib.pico)  (--whole-archive)
libcrypto_pic.a(md5_dgst.pico)
                              (--whole-archive)
libcrypto_pic.a(obj_lib.pico)
                              (--whole-archive)
libcrypto_pic.a(obj_dat.pico)
                              (--whole-archive)
libcrypto_pic.a(lhash.pico)   (--whole-archive)
libcrypto_pic.a(hm_pmeth.pico)
                              (--whole-archive)
libcrypto_pic.a(hm_ameth.pico)
                              (--whole-archive)
libcrypto_pic.a(hmac.pico)    (--whole-archive)
libcrypto_pic.a(pmeth_gn.pico)
                              (--whole-archive)
libcrypto_pic.a(m_sigver.pico)
                              (--whole-archive)
libcrypto_pic.a(pmeth_fn.pico)
                              (--whole-archive)
libcrypto_pic.a(pmeth_lib.pico)
                              (--whole-archive)
libcrypto_pic.a(ec_pmeth.pico)
                              (--whole-archive)
libcrypto_pic.a(dsa_pmeth.pico)
                              (--whole-archive)
libcrypto_pic.a(dsa_key.pico)
                              (--whole-archive)
libcrypto_pic.a(dsa_gen.pico)
                              (--whole-archive)
libcrypto_pic.a(dh_pmeth.pico)
                              (--whole-archive)
libcrypto_pic.a(dh_gen.pico)  (--whole-archive)
libcrypto_pic.a(cm_pmeth.pico)
                              (--whole-archive)
libcrypto_pic.a(ecs_vrf.pico)
                              (--whole-archive)
libcrypto_pic.a(ech_key.pico)
                              (--whole-archive)
libcrypto_pic.a(ech_lib.pico)
                              (--whole-archive)
libcrypto_pic.a(tb_ecdh.pico)
                              (--whole-archive)
libcrypto_pic.a(ech_ossl.pico)
                              (--whole-archive)
libcrypto_pic.a(p5_crpt2.pico)
                              (--whole-archive)
libcrypto_pic.a(p5_crpt.pico)
                              (--whole-archive)
libcrypto_pic.a(p5_pbe.pico)  (--whole-archive)
libcrypto_pic.a(evp_pbe.pico)
                              (--whole-archive)
libcrypto_pic.a(bio_enc.pico)
                              (--whole-archive)
libcrypto_pic.a(bio_md.pico)  (--whole-archive)
libcrypto_pic.a(p_lib.pico)   (--whole-archive)
libcrypto_pic.a(p_verify.pico)
                              (--whole-archive)
libcrypto_pic.a(p_sign.pico)  (--whole-archive)
libcrypto_pic.a(evp_enc.pico)
                              (--whole-archive)
libcrypto_pic.a(tb_cipher.pico)
                              (--whole-archive)
libcrypto_pic.a(digest.pico)  (--whole-archive)
libcrypto_pic.a(tb_digest.pico)
                              (--whole-archive)
libcrypto_pic.a(err.pico)     (--whole-archive)
libcrypto_pic.a(tb_pkmeth.pico)
                              (--whole-archive)
libcrypto_pic.a(tb_ecdsa.pico)
                              (--whole-archive)
libcrypto_pic.a(tb_dh.pico)   (--whole-archive)
libcrypto_pic.a(tb_dsa.pico)  (--whole-archive)
libcrypto_pic.a(tb_asnmth.pico)
                              (--whole-archive)
libcrypto_pic.a(eng_table.pico)
                              (--whole-archive)
libcrypto_pic.a(eng_list.pico)
                              (--whole-archive)
libcrypto_pic.a(eng_ctrl.pico)
                              (--whole-archive)
libcrypto_pic.a(ecs_sign.pico)
                              (--whole-archive)
libcrypto_pic.a(ecs_ossl.pico)
                              (--whole-archive)
libcrypto_pic.a(ecs_asn1.pico)
                              (--whole-archive)
libcrypto_pic.a(ecp_oct.pico)
                              (--whole-archive)
libcrypto_pic.a(bn_sqrt.pico)
                              (--whole-archive)
libcrypto_pic.a(bn_kron.pico)
                              (--whole-archive)
libcrypto_pic.a(ec2_oct.pico)
                              (--whole-archive)
libcrypto_pic.a(ec_ameth.pico)
                              (--whole-archive)
libcrypto_pic.a(ecs_lib.pico)
                              (--whole-archive)
libcrypto_pic.a(eck_prn.pico)
                              (--whole-archive)
libcrypto_pic.a(ec_print.pico)
                              (--whole-archive)
libcrypto_pic.a(ec_asn1.pico)
                              (--whole-archive)
libcrypto_pic.a(bn_print.pico)
                              (--whole-archive)
libcrypto_pic.a(ec_oct.pico)  (--whole-archive)
libcrypto_pic.a(ec_mult.pico)
                              (--whole-archive)
libcrypto_pic.a(dso_openssl.pico)
                              (--whole-archive)
libcrypto_pic.a(dso_dlfcn.pico)
                              (--whole-archive)
libcrypto_pic.a(dso_lib.pico)
                              (--whole-archive)
libcrypto_pic.a(dsa_ameth.pico)
                              (--whole-archive)
libcrypto_pic.a(dsa_asn1.pico)
                              (--whole-archive)
libcrypto_pic.a(dsa_vrf.pico)
                              (--whole-archive)
libcrypto_pic.a(x86cpuid.pico)
                              (--whole-archive)
libcrypto_pic.a(mem_dbg.pico)
                              (--whole-archive)
libcrypto_pic.a(conf_def.pico)
                              (--whole-archive)
libcrypto_pic.a(conf_lib.pico)
                              (--whole-archive)
libcrypto_pic.a(conf_api.pico)
                              (--whole-archive)
libcrypto_pic.a(cms_pwri.pico)
                              (--whole-archive)
libcrypto_pic.a(p5_pbev2.pico)
                              (--whole-archive)
libcrypto_pic.a(asn_pack.pico)
                              (--whole-archive)
libcrypto_pic.a(a_set.pico)   (--whole-archive)
libcrypto_pic.a(cms_enc.pico)
                              (--whole-archive)
libcrypto_pic.a(cms_env.pico)
                              (--whole-archive)
libcrypto_pic.a(aes_wrap.pico)
                              (--whole-archive)
libcrypto_pic.a(aes_misc.pico)
                              (--whole-archive)
libcrypto_pic.a(aes-586.pico)
                              (--whole-archive)
libcrypto_pic.a(cms_dd.pico)  (--whole-archive)
libcrypto_pic.a(cms_sd.pico)  (--whole-archive)
libcrypto_pic.a(cms_att.pico)
                              (--whole-archive)
libcrypto_pic.a(x509_att.pico)
                              (--whole-archive)
libcrypto_pic.a(a_strnid.pico)
                              (--whole-archive)
libcrypto_pic.a(cms_io.pico)  (--whole-archive)
libcrypto_pic.a(asn_mime.pico)
                              (--whole-archive)
libcrypto_pic.a(a_i2d_fp.pico)
                              (--whole-archive)
libcrypto_pic.a(a_d2i_fp.pico)
                              (--whole-archive)
libcrypto_pic.a(bio_b64.pico)
                              (--whole-archive)
libcrypto_pic.a(encode.pico)  (--whole-archive)
libcrypto_pic.a(bf_buff.pico)
                              (--whole-archive)
libcrypto_pic.a(bio_ndef.pico)
                              (--whole-archive)
libcrypto_pic.a(bio_asn1.pico)
                              (--whole-archive)
libcrypto_pic.a(cms_asn1.pico)
                              (--whole-archive)
libcrypto_pic.a(cms_lib.pico)
                              (--whole-archive)
libcrypto_pic.a(bss_null.pico)
                              (--whole-archive)
libcrypto_pic.a(bss_mem.pico)
                              (--whole-archive)
libcrypto_pic.a(tasn_prn.pico)
                              (--whole-archive)
libcrypto_pic.a(x_crl.pico)   (--whole-archive)
libcrypto_pic.a(a_verify.pico)
                              (--whole-archive)
libcrypto_pic.a(a_enum.pico)  (--whole-archive)
libcrypto_pic.a(names.pico)   (--whole-archive)
libcrypto_pic.a(o_names.pico)
                              (--whole-archive)
libcrypto_pic.a(tasn_typ.pico)
                              (--whole-archive)
libcrypto_pic.a(t_x509.pico)  (--whole-archive)
libcrypto_pic.a(obj_xref.pico)
                              (--whole-archive)
libcrypto_pic.a(m_sha1.pico)  (--whole-archive)
libcrypto_pic.a(err_prn.pico)
                              (--whole-archive)
libcrypto_pic.a(ameth_lib.pico)
                              (--whole-archive)
libcrypto_pic.a(t_x509a.pico)
                              (--whole-archive)
libcrypto_pic.a(sha1dgst.pico)
                              (--whole-archive)
libcrypto_pic.a(dh_ameth.pico)
                              (--whole-archive)
libcrypto_pic.a(dh_asn1.pico)
                              (--whole-archive)
libcrypto_pic.a(cm_ameth.pico)
                              (--whole-archive)
libcrypto_pic.a(cmac.pico)    (--whole-archive)
libcrypto_pic.a(p8_pkey.pico)
                              (--whole-archive)
libcrypto_pic.a(t_pkey.pico)  (--whole-archive)
libcrypto_pic.a(x_long.pico)  (--whole-archive)
libcrypto_pic.a(x_bignum.pico)
                              (--whole-archive)
libcrypto_pic.a(x_attrib.pico)
                              (--whole-archive)
libcrypto_pic.a(x_x509a.pico)
                              (--whole-archive)
libcrypto_pic.a(x_x509.pico)  (--whole-archive)
libcrypto_pic.a(x_name.pico)  (--whole-archive)
libcrypto_pic.a(x_pubkey.pico)
                              (--whole-archive)
libcrypto_pic.a(x_val.pico)   (--whole-archive)
libcrypto_pic.a(x_algor.pico)
                              (--whole-archive)
libcrypto_pic.a(a_strex.pico)
                              (--whole-archive)
libcrypto_pic.a(a_mbstr.pico)
                              (--whole-archive)
libcrypto_pic.a(a_utf8.pico)  (--whole-archive)
libcrypto_pic.a(a_time.pico)  (--whole-archive)
libcrypto_pic.a(a_gentm.pico)
                              (--whole-archive)
libcrypto_pic.a(a_utctm.pico)
                              (--whole-archive)
libcrypto_pic.a(v3_asid.pico)
                              (--whole-archive)
libcrypto_pic.a(v3_akeya.pico)
                              (--whole-archive)
libcrypto_pic.a(v3_addr.pico)
                              (--whole-archive)
libcrypto_pic.a(pcy_cache.pico)
                              (--whole-archive)
libcrypto_pic.a(x509_ext.pico)
                              (--whole-archive)
libcrypto_pic.a(x509_v3.pico)
                              (--whole-archive)
libcrypto_pic.a(x509_obj.pico)
                              (--whole-archive)
libcrypto_pic.a(evp_lib.pico)
                              (--whole-archive)
libcrypto_pic.a(ec_key.pico)  (--whole-archive)
libcrypto_pic.a(dsa_lib.pico)
                              (--whole-archive)
libcrypto_pic.a(dh_lib.pico)  (--whole-archive)
libcrypto_pic.a(dh_key.pico)  (--whole-archive)
libcrypto_pic.a(o_time.pico)  (--whole-archive)
libcrypto_pic.a(bss_file.pico)
                              (--whole-archive)
libcrypto_pic.a(evp_asn1.pico)
                              (--whole-archive)
libcrypto_pic.a(a_bytes.pico)
                              (--whole-archive)
libcrypto_pic.a(asn1_par.pico)
                              (--whole-archive)
libcrypto_pic.a(x_exten.pico)
                              (--whole-archive)
libcrypto_pic.a(a_bool.pico)  (--whole-archive)
libcrypto_pic.a(a_dup.pico)   (--whole-archive)
libcrypto_pic.a(a_octet.pico)
                              (--whole-archive)
libcrypto_pic.a(v3_pcons.pico)
                              (--whole-archive)
libcrypto_pic.a(pcy_data.pico)
                              (--whole-archive)
libcrypto_pic.a(eng_init.pico)
                              (--whole-archive)
libcrypto_pic.a(eng_lib.pico)
                              (--whole-archive)
libcrypto_pic.a(ec_curve.pico)
                              (--whole-archive)
libcrypto_pic.a(ec_cvt.pico)  (--whole-archive)
libcrypto_pic.a(ecp_nist.pico)
                              (--whole-archive)
libcrypto_pic.a(ecp_mont.pico)
                              (--whole-archive)
libcrypto_pic.a(ecp_smpl.pico)
                              (--whole-archive)
libcrypto_pic.a(dsa_ossl.pico)
                              (--whole-archive)
libcrypto_pic.a(dsa_sign.pico)
                              (--whole-archive)
libcrypto_pic.a(dh_check.pico)
                              (--whole-archive)
libcrypto_pic.a(bn_nist.pico)
                              (--whole-archive)
libcrypto_pic.a(bn_exp2.pico)
                              (--whole-archive)
libcrypto_pic.a(bn_prime.pico)
                              (--whole-archive)
libcrypto_pic.a(bn_exp.pico)  (--whole-archive)
libcrypto_pic.a(b_dump.pico)  (--whole-archive)
libcrypto_pic.a(tasn_dec.pico)
                              (--whole-archive)
libcrypto_pic.a(tasn_enc.pico)
                              (--whole-archive)
libcrypto_pic.a(tasn_new.pico)
                              (--whole-archive)
libcrypto_pic.a(a_type.pico)  (--whole-archive)
libcrypto_pic.a(a_bitstr.pico)
                              (--whole-archive)
libcrypto_pic.a(ec2_smpl.pico)
                              (--whole-archive)
libcrypto_pic.a(buffer.pico)  (--whole-archive)
libcrypto_pic.a(bn_mont.pico)
                              (--whole-archive)
libcrypto_pic.a(bn_recp.pico)
                              (--whole-archive)
libcrypto_pic.a(bn_gcd.pico)  (--whole-archive)
libcrypto_pic.a(bn_mod.pico)  (--whole-archive)
libcrypto_pic.a(bn_div.pico)  (--whole-archive)
libcrypto_pic.a(tasn_fre.pico)
                              (--whole-archive)
libcrypto_pic.a(a_object.pico)
                              (--whole-archive)
libcrypto_pic.a(ec2_mult.pico)
                              (--whole-archive)
libcrypto_pic.a(ec_lib.pico)  (--whole-archive)
libcrypto_pic.a(bn_gf2m.pico)
                              (--whole-archive)
libcrypto_pic.a(bn_sqr.pico)  (--whole-archive)
libcrypto_pic.a(bn_mul.pico)  (--whole-archive)
libcrypto_pic.a(bn_word.pico)
                              (--whole-archive)
libcrypto_pic.a(bn_shift.pico)
                              (--whole-archive)
libcrypto_pic.a(bn_rand.pico)
                              (--whole-archive)
libcrypto_pic.a(bn_ctx.pico)  (--whole-archive)
libcrypto_pic.a(bn_add.pico)  (--whole-archive)
libcrypto_pic.a(x86.pico)     (--whole-archive)
libcrypto_pic.a(tasn_utl.pico)
                              (--whole-archive)
libcrypto_pic.a(a_int.pico)   (--whole-archive)
libcrypto_pic.a(bn_lib.pico)  (--whole-archive)
libcrypto_pic.a(asn1_lib.pico)
                              (--whole-archive)
libcrypto_pic.a(b_print.pico)
                              (--whole-archive)
libcrypto_pic.a(bio_lib.pico)
                              (--whole-archive)
libcrypto_pic.a(ex_data.pico)
                              (--whole-archive)
libcrypto_pic.a(cryptlib.pico)
                              (--whole-archive)
libcrypto_pic.a(buf_str.pico)
                              (--whole-archive)
libcrypto_pic.a(mem.pico)     (--whole-archive)
libcrypto_pic.a(o_init.pico)  (--whole-archive)

Allocating common symbols
Common symbol       size              file

sigx_app            0x4               libcrypto_pic.a(obj_xref.pico)
OPENSSL_ia32cap_P   0x8               libcrypto_pic.a(rc4-586.pico)
sig_app             0x4               libcrypto_pic.a(obj_xref.pico)

Discarded input sections

 .gnu.warning.RC5_32_cbc_encrypt
                0x00000000        0x0 libcrypto_pic.a(rc5_enc_dummy.pico)
 .gnu.warning.RC5_32_encrypt
                0x00000000        0x0 libcrypto_pic.a(rc5_enc_dummy.pico)
 .gnu.warning.RC5_32_decrypt
                0x00000000        0x0 libcrypto_pic.a(rc5_enc_dummy.pico)
 .note.GNU-stack
                0x00000000        0x0 libcrypto_pic.a(rc5_enc_dummy.pico)
 .gnu.warning.RC5_32_set_key
                0x00000000        0x0 libcrypto_pic.a(rc5_skey_dummy.pico)
 .note.GNU-stack
                0x00000000        0x0 libcrypto_pic.a(rc5_skey_dummy.pico)
 .note.GNU-stack
                0x00000000        0x0 libcrypto_pic.a(mdc2_one.pico)
 .note.GNU-stack
                0x00000000        0x0 libcrypto_pic.a(x509type.pico)
 .note.GNU-stack
                0x00000000        0x0 libcrypto_pic.a(x509cset.pico)
 .note.GNU-stack
                0x00000000        0x0 libcrypto_pic.a(x509spki.pico)
 .note.GNU-stack
                0x00000000        0x0 libcrypto_pic.a(x509_r2x.pico)
 .note.GNU-stack
                0x00000000        0x0 libcrypto_pic.a(x509_d2.pico)
 .note.GNU-stack
                0x00000000        0x0 libcrypto_pic.a(ts_conf.pico)
 .note.GNU-stack
                0x00000000        0x0 libcrypto_pic.a(ts_verify_ctx.pico)
 .note.GNU-stack
                0x00000000        0x0 libcrypto_pic.a(ts_rsp_verify.pico)
 .note.GNU-stack
                0x00000000        0x0 libcrypto_pic.a(ts_rsp_sign.pico)
 .note.GNU-stack
                0x00000000        0x0 libcrypto_pic.a(ts_rsp_print.pico)
 .note.GNU-stack
                0x00000000        0x0 libcrypto_pic.a(ts_rsp_utils.pico)
 .note.GNU-stack
                0x00000000        0x0 libcrypto_pic.a(ts_req_print.pico)
 .note.GNU-stack
                0x00000000        0x0 libcrypto_pic.a(str_meth.pico)
 .note.GNU-stack
                0x00000000        0x0 libcrypto_pic.a(str_mem.pico)
 .note.GNU-stack
                0x00000000        0x0 libcrypto_pic.a(str_lib.pico)
 .note.GNU-stack
                0x00000000        0x0 libcrypto_pic.a(str_err.pico)
 .note.GNU-stack
                0x00000000        0x0 libcrypto_pic.a(srp_vfy.pico)
 .note.GNU-stack
                0x00000000        0x0 libcrypto_pic.a(srp_lib.pico)
 .note.GNU-stack
                0x00000000        0x0 libcrypto_pic.a(libc-sha256.pico)
 .note.GNU-stack
                0x00000000        0x0 libcrypto_pic.a(libc-sha512.pico)
 .note.GNU-stack
                0x00000000        0x0 libcrypto_pic.a(sha1_one.pico)
 .note.GNU-stack
                0x00000000        0x0 libcrypto_pic.a(sha_one.pico)
 .note.GNU-stack
                0x00000000        0x0 libcrypto_pic.a(rsa_prn.pico)
 .note.GNU-stack
                0x00000000        0x0 libcrypto_pic.a(rsa_depr.pico)
 .note.GNU-stack
                0x00000000        0x0 libcrypto_pic.a(rsa_null.pico)
 .note.GNU-stack
                0x00000000        0x0 libcrypto_pic.a(rsa_chk.pico)
 .note.GNU-stack
                0x00000000        0x0 libcrypto_pic.a(rmd_one.pico)
 .note.GNU-stack
                0x00000000        0x0 libcrypto_pic.a(rand_os2.pico)
 .note.GNU-stack
                0x00000000        0x0 libcrypto_pic.a(rand_win.pico)
 .note.GNU-stack
                0x00000000        0x0 libcrypto_pic.a(randfile.pico)
 .note.GNU-stack
                0x00000000        0x0 libcrypto_pic.a(pqueue.pico)
 .note.GNU-stack
                0x00000000        0x0 libcrypto_pic.a(pk7_mime.pico)
 .note.GNU-stack
                0x00000000        0x0 libcrypto_pic.a(pk7_smime.pico)
 .note.GNU-stack
                0x00000000        0x0 libcrypto_pic.a(p12_npas.pico)
 .note.GNU-stack
                0x00000000        0x0 libcrypto_pic.a(p12_kiss.pico)
 .note.GNU-stack
                0x00000000        0x0 libcrypto_pic.a(p12_crt.pico)
 .note.GNU-stack
                0x00000000        0x0 libcrypto_pic.a(p12_attr.pico)
 .note.GNU-stack
                0x00000000        0x0 libcrypto_pic.a(pvkfmt.pico)
 .note.GNU-stack
                0x00000000        0x0 libcrypto_pic.a(pem_seal.pico)
 .note.GNU-stack
                0x00000000        0x0 libcrypto_pic.a(pem_sign.pico)
 .note.GNU-stack
                0x00000000        0x0 libcrypto_pic.a(ocsp_vfy.pico)
 .note.GNU-stack
                0x00000000        0x0 libcrypto_pic.a(ocsp_prn.pico)
 .note.GNU-stack
                0x00000000        0x0 libcrypto_pic.a(ocsp_srv.pico)
 .note.GNU-stack
                0x00000000        0x0 libcrypto_pic.a(ocsp_cl.pico)
 .note.GNU-stack
                0x00000000        0x0 libcrypto_pic.a(ocsp_lib.pico)
 .note.GNU-stack
                0x00000000        0x0 libcrypto_pic.a(ocsp_ht.pico)
 .note.GNU-stack
                0x00000000        0x0 libcrypto_pic.a(ocsp_ext.pico)
 .note.GNU-stack
                0x00000000        0x0 libcrypto_pic.a(md5_one.pico)
 .note.GNU-stack
                0x00000000        0x0 libcrypto_pic.a(md4_one.pico)
 .note.GNU-stack
                0x00000000        0x0 libcrypto_pic.a(md2_one.pico)
 .note.GNU-stack
                0x00000000        0x0 libcrypto_pic.a(cmll_ctr.pico)
 .note.GNU-stack
                0x00000000        0x0 libcrypto_pic.a(cts128.pico)
 .note.GNU-stack
                0x00000000        0x0 libcrypto_pic.a(lh_stats.pico)
 .note.GNU-stack
                0x00000000        0x0 libcrypto_pic.a(krb5_asn.pico)
 .note.GNU-stack
                0x00000000        0x0 libcrypto_pic.a(evp_fips.pico)
 .note.GNU-stack
                0x00000000        0x0 libcrypto_pic.a(bio_ok.pico)
 .note.GNU-stack
                0x00000000        0x0 libcrypto_pic.a(e_null.pico)
 .note.GNU-stack
                0x00000000        0x0 libcrypto_pic.a(p_seal.pico)
 .note.GNU-stack
                0x00000000        0x0 libcrypto_pic.a(p_open.pico)
 .note.GNU-stack
                0x00000000        0x0 libcrypto_pic.a(m_md2.pico)
 .note.GNU-stack
                0x00000000        0x0 libcrypto_pic.a(m_null.pico)
 .note.GNU-stack
                0x00000000        0x0 libcrypto_pic.a(evp_acnf.pico)
 .note.GNU-stack
                0x00000000        0x0 libcrypto_pic.a(err_all.pico)
 .note.GNU-stack
                0x00000000        0x0 libcrypto_pic.a(e_ubsec_err.pico)
 .note.GNU-stack
                0x00000000        0x0 libcrypto_pic.a(e_sureware_err.pico)
 .note.GNU-stack
                0x00000000        0x0 libcrypto_pic.a(e_nuron_err.pico)
 .note.GNU-stack
                0x00000000        0x0 libcrypto_pic.a(e_gmp_err.pico)
 .note.GNU-stack
                0x00000000        0x0 libcrypto_pic.a(e_gmp.pico)
 .note.GNU-stack
                0x00000000        0x0 libcrypto_pic.a(e_cswift_err.pico)
 .note.GNU-stack
                0x00000000        0x0 libcrypto_pic.a(e_chil_err.pico)
 .note.GNU-stack
                0x00000000        0x0 libcrypto_pic.a(e_atalla_err.pico)
 .note.GNU-stack
                0x00000000        0x0 libcrypto_pic.a(e_aep_err.pico)
 .note.GNU-stack
                0x00000000        0x0 libcrypto_pic.a(e_4758cca_err.pico)
 .note.GNU-stack
                0x00000000        0x0 libcrypto_pic.a(tb_store.pico)
 .note.GNU-stack
                0x00000000        0x0 libcrypto_pic.a(eng_cryptodev.pico)
 .note.GNU-stack
                0x00000000        0x0 libcrypto_pic.a(eng_openssl.pico)
 .note.GNU-stack
                0x00000000        0x0 libcrypto_pic.a(eng_err.pico)
 .note.GNU-stack
                0x00000000        0x0 libcrypto_pic.a(ecs_err.pico)
 .note.GNU-stack
                0x00000000        0x0 libcrypto_pic.a(ech_err.pico)
 .note.GNU-stack
                0x00000000        0x0 libcrypto_pic.a(ec_check.pico)
 .note.GNU-stack
                0x00000000        0x0 libcrypto_pic.a(ec_err.pico)
 .note.GNU-stack
                0x00000000        0x0 libcrypto_pic.a(dso_vms.pico)
 .note.GNU-stack
                0x00000000        0x0 libcrypto_pic.a(dso_win32.pico)
 .note.GNU-stack
                0x00000000        0x0 libcrypto_pic.a(dso_null.pico)
 .note.GNU-stack
                0x00000000        0x0 libcrypto_pic.a(dso_err.pico)
 .note.GNU-stack
                0x00000000        0x0 libcrypto_pic.a(dso_dl.pico)
 .note.GNU-stack
                0x00000000        0x0 libcrypto_pic.a(dsa_prn.pico)
 .note.GNU-stack
                0x00000000        0x0 libcrypto_pic.a(dsa_depr.pico)
 .note.GNU-stack
                0x00000000        0x0 libcrypto_pic.a(dsa_err.pico)
 .note.GNU-stack
                0x00000000        0x0 libcrypto_pic.a(dh_prn.pico)
 .note.GNU-stack
                0x00000000        0x0 libcrypto_pic.a(dh_depr.pico)
 .note.GNU-stack
                0x00000000        0x0 libcrypto_pic.a(dh_err.pico)
 .note.GNU-stack
                0x00000000        0x0 libcrypto_pic.a(read2pwd.pico)
 .note.GNU-stack
                0x00000000        0x0 libcrypto_pic.a(ede_cbcm_enc.pico)
 .note.GNU-stack
                0x00000000        0x0 libcrypto_pic.a(str2key.pico)
 .note.GNU-stack
                0x00000000        0x0 libcrypto_pic.a(rpc_enc.pico)
 .note.GNU-stack
                0x00000000        0x0 libcrypto_pic.a(rand_key.pico)
 .note.GNU-stack
                0x00000000        0x0 libcrypto_pic.a(qud_cksm.pico)
 .note.GNU-stack
                0x00000000        0x0 libcrypto_pic.a(ofb_enc.pico)
 .note.GNU-stack
                0x00000000        0x0 libcrypto_pic.a(fcrypt.pico)
 .note.GNU-stack
                0x00000000        0x0 libcrypto_pic.a(enc_writ.pico)
 .note.GNU-stack
                0x00000000        0x0 libcrypto_pic.a(enc_read.pico)
 .note.GNU-stack
                0x00000000        0x0 libcrypto_pic.a(cbc_enc.pico)
 .note.GNU-stack
                0x00000000        0x0 libcrypto_pic.a(cbc_cksm.pico)
 .note.GNU-stack
                0x00000000        0x0 libcrypto_pic.a(o_fips.pico)
 .note.GNU-stack
                0x00000000        0x0 libcrypto_pic.a(o_dir.pico)
 .note.GNU-stack
                0x00000000        0x0 libcrypto_pic.a(o_str.pico)
 .note.GNU-stack
                0x00000000        0x0 libcrypto_pic.a(uid.pico)
 .note.GNU-stack
                0x00000000        0x0 libcrypto_pic.a(ebcdic.pico)
 .note.GNU-stack
                0x00000000        0x0 libcrypto_pic.a(cpt_err.pico)
 .note.GNU-stack
                0x00000000        0x0 libcrypto_pic.a(cversion.pico)
 .note.GNU-stack
                0x00000000        0x0 libcrypto_pic.a(conf_sap.pico)
 .note.GNU-stack
                0x00000000        0x0 libcrypto_pic.a(conf_mall.pico)
 .note.GNU-stack
                0x00000000        0x0 libcrypto_pic.a(conf_err.pico)
 .note.GNU-stack
                0x00000000        0x0 libcrypto_pic.a(c_zlib.pico)
 .note.GNU-stack
                0x00000000        0x0 libcrypto_pic.a(c_rle.pico)
 .note.GNU-stack
                0x00000000        0x0 libcrypto_pic.a(comp_err.pico)
 .note.GNU-stack
                0x00000000        0x0 libcrypto_pic.a(comp_lib.pico)
 .note.GNU-stack
                0x00000000        0x0 libcrypto_pic.a(cms_cd.pico)
 .note.GNU-stack
                0x00000000        0x0 libcrypto_pic.a(cms_err.pico)
 .note.GNU-stack
                0x00000000        0x0 libcrypto_pic.a(cms_smime.pico)
 .note.GNU-stack
                0x00000000        0x0 libcrypto_pic.a(buf_err.pico)
 .note.GNU-stack
                0x00000000        0x0 libcrypto_pic.a(bn_x931p.pico)
 .note.GNU-stack
                0x00000000        0x0 libcrypto_pic.a(bn_const.pico)
 .note.GNU-stack
                0x00000000        0x0 libcrypto_pic.a(bn_depr.pico)
 .note.GNU-stack
                0x00000000        0x0 libcrypto_pic.a(bn_mpi.pico)
 .note.GNU-stack
                0x00000000        0x0 libcrypto_pic.a(bn_err.pico)
 .note.GNU-stack
                0x00000000        0x0 libcrypto_pic.a(bss_dgram.pico)
 .note.GNU-stack
                0x00000000        0x0 libcrypto_pic.a(bss_bio.pico)
 .note.GNU-stack
                0x00000000        0x0 libcrypto_pic.a(bss_log.pico)
 .note.GNU-stack
                0x00000000        0x0 libcrypto_pic.a(bf_nbio.pico)
 .note.GNU-stack
                0x00000000        0x0 libcrypto_pic.a(bss_acpt.pico)
 .note.GNU-stack
                0x00000000        0x0 libcrypto_pic.a(bf_null.pico)
 .note.GNU-stack
                0x00000000        0x0 libcrypto_pic.a(bss_conn.pico)
 .note.GNU-stack
                0x00000000        0x0 libcrypto_pic.a(bss_fd.pico)
 .note.GNU-stack
                0x00000000        0x0 libcrypto_pic.a(bio_err.pico)
 .note.GNU-stack
                0x00000000        0x0 libcrypto_pic.a(bio_cb.pico)
 .note.GNU-stack
                0x00000000        0x0 libcrypto_pic.a(x_nx509.pico)
 .note.GNU-stack
                0x00000000        0x0 libcrypto_pic.a(asn_moid.pico)
 .note.GNU-stack
                0x00000000        0x0 libcrypto_pic.a(asn1_err.pico)
 .note.GNU-stack
                0x00000000        0x0 libcrypto_pic.a(f_enum.pico)
 .note.GNU-stack
                0x00000000        0x0 libcrypto_pic.a(n_pkey.pico)
 .note.GNU-stack
                0x00000000        0x0 libcrypto_pic.a(t_bitst.pico)
 .note.GNU-stack
                0x00000000        0x0 libcrypto_pic.a(t_spki.pico)
 .note.GNU-stack
                0x00000000        0x0 libcrypto_pic.a(t_crl.pico)
 .note.GNU-stack
                0x00000000        0x0 libcrypto_pic.a(t_req.pico)
 .note.GNU-stack
                0x00000000        0x0 libcrypto_pic.a(i2d_pu.pico)
 .note.GNU-stack
                0x00000000        0x0 libcrypto_pic.a(d2i_pu.pico)
 .note.GNU-stack
                0x00000000        0x0 libcrypto_pic.a(aes_ecb.pico)
 .note.GNU-stack
                0x00000000        0x0 libcrypto_pic.a(aes_ige.pico)
 .note.GNU-stack
                0x00000000        0x0 libcrypto_pic.a(aes_ctr.pico)
 .note.GNU-stack
                0x00000000        0x0 libcrypto_pic.a(aes_ofb.pico)
 .note.GNU-stack
                0x00000000        0x0 libcrypto_pic.a(aes_cfb.pico)
 .note.GNU-stack
                0x00000000        0x0 libcrypto_pic.a(v3err.pico)
 .note.GNU-stack
                0x00000000        0x0 libcrypto_pic.a(by_dir.pico)
 .note.GNU-stack
                0x00000000        0x0 libcrypto_pic.a(by_file.pico)
 .note.GNU-stack
                0x00000000        0x0 libcrypto_pic.a(x509_txt.pico)
 .note.GNU-stack
                0x00000000        0x0 libcrypto_pic.a(x509_err.pico)
 .note.GNU-stack
                0x00000000        0x0 libcrypto_pic.a(x509_set.pico)
 .note.GNU-stack
                0x00000000        0x0 libcrypto_pic.a(ui_util.pico)
 .note.GNU-stack
                0x00000000        0x0 libcrypto_pic.a(ui_err.pico)
 .note.GNU-stack
                0x00000000        0x0 libcrypto_pic.a(ts_lib.pico)
 .note.GNU-stack
                0x00000000        0x0 libcrypto_pic.a(ts_req_utils.pico)
 .note.GNU-stack
                0x00000000        0x0 libcrypto_pic.a(ts_err.pico)
 .note.GNU-stack
                0x00000000        0x0 libcrypto_pic.a(txt_db.pico)
 .note.GNU-stack
                0x00000000        0x0 libcrypto_pic.a(rsa_err.pico)
 .note.GNU-stack
                0x00000000        0x0 libcrypto_pic.a(rand_err.pico)
 .note.GNU-stack
                0x00000000        0x0 libcrypto_pic.a(pkcs7err.pico)
 .note.GNU-stack
                0x00000000        0x0 libcrypto_pic.a(pk12err.pico)
 .note.GNU-stack
                0x00000000        0x0 libcrypto_pic.a(p12_mutl.pico)
 .note.GNU-stack
                0x00000000        0x0 libcrypto_pic.a(p12_init.pico)
 .note.GNU-stack
                0x00000000        0x0 libcrypto_pic.a(pem_xaux.pico)
 .note.GNU-stack
                0x00000000        0x0 libcrypto_pic.a(pem_err.pico)
 .note.GNU-stack
                0x00000000        0x0 libcrypto_pic.a(pem_info.pico)
 .note.GNU-stack
                0x00000000        0x0 libcrypto_pic.a(ocsp_err.pico)
 .note.GNU-stack
                0x00000000        0x0 libcrypto_pic.a(obj_err.pico)
 .note.GNU-stack
                0x00000000        0x0 libcrypto_pic.a(md2_dgst.pico)
 .note.GNU-stack
                0x00000000        0x0 libcrypto_pic.a(c_all.pico)
 .note.GNU-stack
                0x00000000        0x0 libcrypto_pic.a(evp_err.pico)
 .note.GNU-stack
                0x00000000        0x0 libcrypto_pic.a(evp_cnf.pico)
 .note.GNU-stack
                0x00000000        0x0 libcrypto_pic.a(p_dec.pico)
 .note.GNU-stack
                0x00000000        0x0 libcrypto_pic.a(p_enc.pico)
 .note.GNU-stack
                0x00000000        0x0 libcrypto_pic.a(eng_cnf.pico)
 .note.GNU-stack
                0x00000000        0x0 libcrypto_pic.a(eng_all.pico)
 .note.GNU-stack
                0x00000000        0x0 libcrypto_pic.a(eng_fat.pico)
 .note.GNU-stack
                0x00000000        0x0 libcrypto_pic.a(pcbc_enc.pico)
 .note.GNU-stack
                0x00000000        0x0 libcrypto_pic.a(cms_ess.pico)
 .note.GNU-stack
                0x00000000        0x0 libcrypto_pic.a(b_sock.pico)
 .note.GNU-stack
                0x00000000        0x0 libcrypto_pic.a(bss_sock.pico)
 .note.GNU-stack
                0x00000000        0x0 libcrypto_pic.a(x_info.pico)
 .note.GNU-stack
                0x00000000        0x0 libcrypto_pic.a(ts_asn1.pico)
 .note.GNU-stack
                0x00000000        0x0 libcrypto_pic.a(pem_x509.pico)
 .note.GNU-stack
                0x00000000        0x0 libcrypto_pic.a(pem_all.pico)
 .note.GNU-stack
                0x00000000        0x0 libcrypto_pic.a(c_alld.pico)
 .note.GNU-stack
                0x00000000        0x0 libcrypto_pic.a(c_allc.pico)
 .note.GNU-stack
                0x00000000        0x0 libcrypto_pic.a(m_ripemd.pico)
 .note.GNU-stack
                0x00000000        0x0 libcrypto_pic.a(m_mdc2.pico)
 .note.GNU-stack
                0x00000000        0x0 libcrypto_pic.a(m_dss1.pico)
 .note.GNU-stack
                0x00000000        0x0 libcrypto_pic.a(m_dss.pico)
 .note.GNU-stack
                0x00000000        0x0 libcrypto_pic.a(m_sha.pico)
 .note.GNU-stack
                0x00000000        0x0 libcrypto_pic.a(m_md4.pico)
 .note.GNU-stack
                0x00000000        0x0 libcrypto_pic.a(e_rc5.pico)
 .note.GNU-stack
                0x00000000        0x0 libcrypto_pic.a(e_cast.pico)
 .note.GNU-stack
                0x00000000        0x0 libcrypto_pic.a(e_rc2.pico)
 .note.GNU-stack
                0x00000000        0x0 libcrypto_pic.a(e_xcbc_d.pico)
 .note.GNU-stack
                0x00000000        0x0 libcrypto_pic.a(e_camellia.pico)
 .note.GNU-stack
                0x00000000        0x0 libcrypto_pic.a(e_aes.pico)
 .note.GNU-stack
                0x00000000        0x0 libcrypto_pic.a(e_rc4.pico)
 .note.GNU-stack
                0x00000000        0x0 libcrypto_pic.a(e_des3.pico)
 .note.GNU-stack
                0x00000000        0x0 libcrypto_pic.a(e_idea.pico)
 .note.GNU-stack
                0x00000000        0x0 libcrypto_pic.a(e_bf.pico)
 .note.GNU-stack
                0x00000000        0x0 libcrypto_pic.a(e_des.pico)
 .note.GNU-stack
                0x00000000        0x0 libcrypto_pic.a(gost_eng.pico)
 .note.GNU-stack
                0x00000000        0x0 libcrypto_pic.a(e_seed.pico)
 .note.GNU-stack
                0x00000000        0x0 libcrypto_pic.a(e_padlock.pico)
 .note.GNU-stack
                0x00000000        0x0 libcrypto_pic.a(e_ubsec.pico)
 .note.GNU-stack
                0x00000000        0x0 libcrypto_pic.a(e_sureware.pico)
 .note.GNU-stack
                0x00000000        0x0 libcrypto_pic.a(e_nuron.pico)
 .note.GNU-stack
                0x00000000        0x0 libcrypto_pic.a(e_cswift.pico)
 .note.GNU-stack
                0x00000000        0x0 libcrypto_pic.a(e_chil.pico)
 .note.GNU-stack
                0x00000000        0x0 libcrypto_pic.a(e_atalla.pico)
 .note.GNU-stack
                0x00000000        0x0 libcrypto_pic.a(e_aep.pico)
 .note.GNU-stack
                0x00000000        0x0 libcrypto_pic.a(e_4758cca.pico)
 .note.GNU-stack
                0x00000000        0x0 libcrypto_pic.a(eng_rsax.pico)
 .note.GNU-stack
                0x00000000        0x0 libcrypto_pic.a(eng_rdrand.pico)
 .note.GNU-stack
                0x00000000        0x0 libcrypto_pic.a(eng_dyn.pico)
 .note.GNU-stack
                0x00000000        0x0 libcrypto_pic.a(eng_pkey.pico)
 .note.GNU-stack
                0x00000000        0x0 libcrypto_pic.a(ofb64ede.pico)
 .note.GNU-stack
                0x00000000        0x0 libcrypto_pic.a(cfb64ede.pico)
 .note.GNU-stack
                0x00000000        0x0 libcrypto_pic.a(xcbc_enc.pico)
 .note.GNU-stack
                0x00000000        0x0 libcrypto_pic.a(ofb64enc.pico)
 .note.GNU-stack
                0x00000000        0x0 libcrypto_pic.a(ecb_enc.pico)
 .note.GNU-stack
                0x00000000        0x0 libcrypto_pic.a(ecb3_enc.pico)
 .note.GNU-stack
                0x00000000        0x0 libcrypto_pic.a(cfb_enc.pico)
 .note.GNU-stack
                0x00000000        0x0 libcrypto_pic.a(cfb64enc.pico)
 .note.GNU-stack
                0x00000000        0x0 libcrypto_pic.a(c_ofb64.pico)
 .note.GNU-stack
                0x00000000        0x0 libcrypto_pic.a(c_cfb64.pico)
 .note.GNU-stack
                0x00000000        0x0 libcrypto_pic.a(c_ecb.pico)
 .note.GNU-stack
                0x00000000        0x0 libcrypto_pic.a(c_enc.pico)
 .note.GNU-stack
                0x00000000        0x0 libcrypto_pic.a(bf_ofb64.pico)
 .note.GNU-stack
                0x00000000        0x0 libcrypto_pic.a(bf_cfb64.pico)
 .note.GNU-stack
                0x00000000        0x0 libcrypto_pic.a(bf_ecb.pico)
 .note.GNU-stack
                0x00000000        0x0 libcrypto_pic.a(bf_skey.pico)
 .note.GNU-stack
                0x00000000        0x0 libcrypto_pic.a(x_pkey.pico)
 .note.GNU-stack
                0x00000000        0x0 libcrypto_pic.a(nsseq.pico)
 .note.GNU-stack
                0x00000000        0x0 libcrypto_pic.a(rc5ofb64.pico)
 .note.GNU-stack
                0x00000000        0x0 libcrypto_pic.a(rc5cfb64.pico)
 .note.GNU-stack
                0x00000000        0x0 libcrypto_pic.a(rc5_ecb.pico)
 .note.GNU-stack
                0x00000000        0x0 libcrypto_pic.a(seed_ofb.pico)
 .note.GNU-stack
                0x00000000        0x0 libcrypto_pic.a(seed_cfb.pico)
 .note.GNU-stack
                0x00000000        0x0 libcrypto_pic.a(seed_cbc.pico)
 .note.GNU-stack
                0x00000000        0x0 libcrypto_pic.a(seed_ecb.pico)
 .note.GNU-stack
                0x00000000        0x0 libcrypto_pic.a(seed.pico)
 .note.GNU-stack
                0x00000000        0x0 libcrypto_pic.a(mdc2dgst.pico)
 .note.GNU-stack
                0x00000000        0x0 libcrypto_pic.a(i_skey.pico)
 .note.GNU-stack
                0x00000000        0x0 libcrypto_pic.a(i_ecb.pico)
 .note.GNU-stack
                0x00000000        0x0 libcrypto_pic.a(i_ofb64.pico)
 .note.GNU-stack
                0x00000000        0x0 libcrypto_pic.a(i_cfb64.pico)
 .note.GNU-stack
                0x00000000        0x0 libcrypto_pic.a(sha_dgst.pico)
 .note.GNU-stack
                0x00000000        0x0 libcrypto_pic.a(rmd_dgst.pico)
 .note.GNU-stack
                0x00000000        0x0 libcrypto_pic.a(rc2ofb64.pico)
 .note.GNU-stack
                0x00000000        0x0 libcrypto_pic.a(rc2cfb64.pico)
 .note.GNU-stack
                0x00000000        0x0 libcrypto_pic.a(rc2_skey.pico)
 .note.GNU-stack
                0x00000000        0x0 libcrypto_pic.a(rc2_ecb.pico)
 .note.GNU-stack
                0x00000000        0x0 libcrypto_pic.a(pem_pkey.pico)
 .note.GNU-stack
                0x00000000        0x0 libcrypto_pic.a(pem_pk8.pico)
 .note.GNU-stack
                0x00000000        0x0 libcrypto_pic.a(md4_dgst.pico)
 .note.GNU-stack
                0x00000000        0x0 libcrypto_pic.a(cmll_utl.pico)
 .note.GNU-stack
                0x00000000        0x0 libcrypto_pic.a(cmll_ofb.pico)
 .note.GNU-stack
                0x00000000        0x0 libcrypto_pic.a(cmll_cfb.pico)
 .note.GNU-stack
                0x00000000        0x0 libcrypto_pic.a(cmll_ecb.pico)
 .note.GNU-stack
                0x00000000        0x0 libcrypto_pic.a(cmll_cbc.pico)
 .note.GNU-stack
                0x00000000        0x0 libcrypto_pic.a(xts128.pico)
 .note.GNU-stack
                0x00000000        0x0 libcrypto_pic.a(ccm128.pico)
 .note.GNU-stack
                0x00000000        0x0 libcrypto_pic.a(gcm128.pico)
 .note.GNU-stack
                0x00000000        0x0 libcrypto_pic.a(ofb128.pico)
 .note.GNU-stack
                0x00000000        0x0 libcrypto_pic.a(cfb128.pico)
 .note.GNU-stack
                0x00000000        0x0 libcrypto_pic.a(ctr128.pico)
 .note.GNU-stack
                0x00000000        0x0 libcrypto_pic.a(cbc128.pico)
 .note.GNU-stack
                0x00000000        0x0 libcrypto_pic.a(e_rc4_hmac_md5.pico)
 .note.GNU-stack
                0x00000000        0x0 libcrypto_pic.a(e_aes_cbc_hmac_sha1.pico)
 .note.GNU-stack
                0x00000000        0x0 libcrypto_pic.a(m_wp.pico)
 .note.GNU-stack
                0x00000000        0x0 libcrypto_pic.a(m_ecdsa.pico)
 .note.GNU-stack
                0x00000000        0x0 libcrypto_pic.a(gost_pmeth.pico)
 .note.GNU-stack
                0x00000000        0x0 libcrypto_pic.a(gost_md.pico)
 .note.GNU-stack
                0x00000000        0x0 libcrypto_pic.a(gost94_keyx.pico)
 .note.GNU-stack
                0x00000000        0x0 libcrypto_pic.a(gost2001_keyx.pico)
 .note.GNU-stack
                0x00000000        0x0 libcrypto_pic.a(set_key.pico)
 .note.GNU-stack
                0x00000000        0x0 libcrypto_pic.a(c_skey.pico)
 .note.GNU-stack
                0x00000000        0x0 libcrypto_pic.a(wp_dgst.pico)
 .note.GNU-stack
                0x00000000        0x0 libcrypto_pic.a(wp_block.pico)
 .note.GNU-stack
                0x00000000        0x0 libcrypto_pic.a(i_cbc.pico)
 .note.GNU-stack
                0x00000000        0x0 libcrypto_pic.a(rc4_utl.pico)
 .note.GNU-stack
                0x00000000        0x0 libcrypto_pic.a(rc2_cbc.pico)
 .note.GNU-stack
                0x00000000        0x0 libcrypto_pic.a(cmll_misc.pico)
 .note.GNU-stack
                0x00000000        0x0 libcrypto_pic.a(camellia.pico)
 .note.GNU-stack
                0x00000000        0x0 libcrypto_pic.a(gost_keywrap.pico)
 .note.GNU-stack
                0x00000000        0x0 libcrypto_pic.a(gosthash.pico)
 .note.GNU-stack
                0x00000000        0x0 libcrypto_pic.a(gost_crypt.pico)
 .note.GNU-stack
                0x00000000        0x0 libcrypto_pic.a(gost_ameth.pico)
 .note.GNU-stack
                0x00000000        0x0 libcrypto_pic.a(gost89.pico)
 .note.GNU-stack
                0x00000000        0x0 libcrypto_pic.a(gost2001.pico)
 .note.GNU-stack
                0x00000000        0x0 libcrypto_pic.a(gost_sign.pico)
 .note.GNU-stack
                0x00000000        0x0 libcrypto_pic.a(gost_params.pico)
 .note.GNU-stack
                0x00000000        0x0 libcrypto_pic.a(gost_ctl.pico)
 .note.GNU-stack
                0x00000000        0x0 libcrypto_pic.a(gost_asn1.pico)
 .note.GNU-stack
                0x00000000        0x0 libcrypto_pic.a(e_gost_err.pico)
 .note.GNU-stack
                0x00000000        0x0 libcrypto_pic.a(v3_utl.pico)
 .note.GNU-stack
                0x00000000        0x0 libcrypto_pic.a(v3_sxnet.pico)
 .note.GNU-stack
                0x00000000        0x0 libcrypto_pic.a(v3_skey.pico)
 .note.GNU-stack
                0x00000000        0x0 libcrypto_pic.a(v3_purp.pico)
 .note.GNU-stack
                0x00000000        0x0 libcrypto_pic.a(v3_prn.pico)
 .note.GNU-stack
                0x00000000        0x0 libcrypto_pic.a(v3_pku.pico)
 .note.GNU-stack
                0x00000000        0x0 libcrypto_pic.a(v3_pci.pico)
 .note.GNU-stack
                0x00000000        0x0 libcrypto_pic.a(v3_pcia.pico)
 .note.GNU-stack
                0x00000000        0x0 libcrypto_pic.a(v3_ocsp.pico)
 .note.GNU-stack
                0x00000000        0x0 libcrypto_pic.a(ocsp_asn.pico)
 .note.GNU-stack
                0x00000000        0x0 libcrypto_pic.a(f_string.pico)
 .note.GNU-stack
                0x00000000        0x0 libcrypto_pic.a(v3_ncons.pico)
 .note.GNU-stack
                0x00000000        0x0 libcrypto_pic.a(v3_lib.pico)
 .note.GNU-stack
                0x00000000        0x0 libcrypto_pic.a(v3_int.pico)
 .note.GNU-stack
                0x00000000        0x0 libcrypto_pic.a(v3_info.pico)
 .note.GNU-stack
                0x00000000        0x0 libcrypto_pic.a(v3_ia5.pico)
 .note.GNU-stack
                0x00000000        0x0 libcrypto_pic.a(v3_extku.pico)
 .note.GNU-stack
                0x00000000        0x0 libcrypto_pic.a(v3_enum.pico)
 .note.GNU-stack
                0x00000000        0x0 libcrypto_pic.a(v3_bitst.pico)
 .note.GNU-stack
                0x00000000        0x0 libcrypto_pic.a(v3_bcons.pico)
 .note.GNU-stack
                0x00000000        0x0 libcrypto_pic.a(v3_akey.pico)
 .note.GNU-stack
                0x00000000        0x0 libcrypto_pic.a(v3_genn.pico)
 .note.GNU-stack
                0x00000000        0x0 libcrypto_pic.a(v3_crld.pico)
 .note.GNU-stack
                0x00000000        0x0 libcrypto_pic.a(v3_alt.pico)
 .note.GNU-stack
                0x00000000        0x0 libcrypto_pic.a(v3_cpols.pico)
 .note.GNU-stack
                0x00000000        0x0 libcrypto_pic.a(v3_conf.pico)
 .note.GNU-stack
                0x00000000        0x0 libcrypto_pic.a(x509_req.pico)
 .note.GNU-stack
                0x00000000        0x0 libcrypto_pic.a(asn1_gen.pico)
 .note.GNU-stack
                0x00000000        0x0 libcrypto_pic.a(x509rset.pico)
 .note.GNU-stack
                0x00000000        0x0 libcrypto_pic.a(conf_mod.pico)
 .note.GNU-stack
                0x00000000        0x0 libcrypto_pic.a(x509_def.pico)
 .note.GNU-stack
                0x00000000        0x0 libcrypto_pic.a(pcy_tree.pico)
 .note.GNU-stack
                0x00000000        0x0 libcrypto_pic.a(pcy_node.pico)
 .note.GNU-stack
                0x00000000        0x0 libcrypto_pic.a(pcy_lib.pico)
 .note.GNU-stack
                0x00000000        0x0 libcrypto_pic.a(pcy_map.pico)
 .note.GNU-stack
                0x00000000        0x0 libcrypto_pic.a(v3_pmaps.pico)
 .note.GNU-stack
                0x00000000        0x0 libcrypto_pic.a(x_all.pico)
 .note.GNU-stack
                0x00000000        0x0 libcrypto_pic.a(i2d_pr.pico)
 .note.GNU-stack
                0x00000000        0x0 libcrypto_pic.a(d2i_pr.pico)
 .note.GNU-stack
                0x00000000        0x0 libcrypto_pic.a(x_spki.pico)
 .note.GNU-stack
                0x00000000        0x0 libcrypto_pic.a(x_req.pico)
 .note.GNU-stack
                0x00000000        0x0 libcrypto_pic.a(a_digest.pico)
 .note.GNU-stack
                0x00000000        0x0 libcrypto_pic.a(a_sign.pico)
 .note.GNU-stack
                0x00000000        0x0 libcrypto_pic.a(evp_pkey.pico)
 .note.GNU-stack
                0x00000000        0x0 libcrypto_pic.a(x509_lu.pico)
 .note.GNU-stack
                0x00000000        0x0 libcrypto_pic.a(x509name.pico)
 .note.GNU-stack
                0x00000000        0x0 libcrypto_pic.a(a_print.pico)
 .note.GNU-stack
                0x00000000        0x0 libcrypto_pic.a(x509_vfy.pico)
 .note.GNU-stack
                0x00000000        0x0 libcrypto_pic.a(x509_vpm.pico)
 .note.GNU-stack
                0x00000000        0x0 libcrypto_pic.a(x509_trs.pico)
 .note.GNU-stack
                0x00000000        0x0 libcrypto_pic.a(x509_cmp.pico)
 .note.GNU-stack
                0x00000000        0x0 libcrypto_pic.a(ui_openssl.pico)
 .note.GNU-stack
                0x00000000        0x0 libcrypto_pic.a(stack.pico)
 .note.GNU-stack
                0x00000000        0x0 libcrypto_pic.a(rsa_crpt.pico)
 .note.GNU-stack
                0x00000000        0x0 libcrypto_pic.a(rsa_pss.pico)
 .note.GNU-stack
                0x00000000        0x0 libcrypto_pic.a(rsa_pmeth.pico)
 .note.GNU-stack
                0x00000000        0x0 libcrypto_pic.a(rsa_saos.pico)
 .note.GNU-stack
                0x00000000        0x0 libcrypto_pic.a(rsa_gen.pico)
 .note.GNU-stack
                0x00000000        0x0 libcrypto_pic.a(rsa_ameth.pico)
 .note.GNU-stack
                0x00000000        0x0 libcrypto_pic.a(rsa_asn1.pico)
 .note.GNU-stack
                0x00000000        0x0 libcrypto_pic.a(f_int.pico)
 .note.GNU-stack
                0x00000000        0x0 libcrypto_pic.a(rsa_oaep.pico)
 .note.GNU-stack
                0x00000000        0x0 libcrypto_pic.a(rsa_ssl.pico)
 .note.GNU-stack
                0x00000000        0x0 libcrypto_pic.a(rsa_pk1.pico)
 .note.GNU-stack
                0x00000000        0x0 libcrypto_pic.a(rsa_sign.pico)
 .note.GNU-stack
                0x00000000        0x0 libcrypto_pic.a(rsa_lib.pico)
 .note.GNU-stack
                0x00000000        0x0 libcrypto_pic.a(rsa_eay.pico)
 .note.GNU-stack
                0x00000000        0x0 libcrypto_pic.a(tb_rsa.pico)
 .note.GNU-stack
                0x00000000        0x0 libcrypto_pic.a(bn_blind.pico)
 .note.GNU-stack
                0x00000000        0x0 libcrypto_pic.a(rsa_x931.pico)
 .note.GNU-stack
                0x00000000        0x0 libcrypto_pic.a(rsa_none.pico)
 .note.GNU-stack
                0x00000000        0x0 libcrypto_pic.a(rand_unix.pico)
 .note.GNU-stack
                0x00000000        0x0 libcrypto_pic.a(rand_egd.pico)
 .note.GNU-stack
                0x00000000        0x0 libcrypto_pic.a(rand_lib.pico)
 .note.GNU-stack
                0x00000000        0x0 libcrypto_pic.a(md_rand.pico)
 .note.GNU-stack
                0x00000000        0x0 libcrypto_pic.a(tb_rand.pico)
 .note.GNU-stack
                0x00000000        0x0 libcrypto_pic.a(pk7_attr.pico)
 .note.GNU-stack
                0x00000000        0x0 libcrypto_pic.a(pk7_doit.pico)
 .note.GNU-stack
                0x00000000        0x0 libcrypto_pic.a(pk7_lib.pico)
 .note.GNU-stack
                0x00000000        0x0 libcrypto_pic.a(pk7_asn1.pico)
 .note.GNU-stack
                0x00000000        0x0 libcrypto_pic.a(p12_p8e.pico)
 .note.GNU-stack
                0x00000000        0x0 libcrypto_pic.a(p12_p8d.pico)
 .note.GNU-stack
                0x00000000        0x0 libcrypto_pic.a(p12_utl.pico)
 .note.GNU-stack
                0x00000000        0x0 libcrypto_pic.a(p12_add.pico)
 .note.GNU-stack
                0x00000000        0x0 libcrypto_pic.a(p12_decr.pico)
 .note.GNU-stack
                0x00000000        0x0 libcrypto_pic.a(p12_asn.pico)
 .note.GNU-stack
                0x00000000        0x0 libcrypto_pic.a(x_sig.pico)
 .note.GNU-stack
                0x00000000        0x0 libcrypto_pic.a(p12_key.pico)
 .note.GNU-stack
                0x00000000        0x0 libcrypto_pic.a(p12_crpt.pico)
 .note.GNU-stack
                0x00000000        0x0 libcrypto_pic.a(pem_oth.pico)
 .note.GNU-stack
                0x00000000        0x0 libcrypto_pic.a(pem_lib.pico)
 .note.GNU-stack
                0x00000000        0x0 libcrypto_pic.a(m_md5.pico)
 .note.GNU-stack
                0x00000000        0x0 libcrypto_pic.a(evp_key.pico)
 .note.GNU-stack
                0x00000000        0x0 libcrypto_pic.a(ui_lib.pico)
 .note.GNU-stack
                0x00000000        0x0 libcrypto_pic.a(md5_dgst.pico)
 .note.GNU-stack
                0x00000000        0x0 libcrypto_pic.a(obj_lib.pico)
 .note.GNU-stack
                0x00000000        0x0 libcrypto_pic.a(obj_dat.pico)
 .note.GNU-stack
                0x00000000        0x0 libcrypto_pic.a(lhash.pico)
 .note.GNU-stack
                0x00000000        0x0 libcrypto_pic.a(hm_pmeth.pico)
 .note.GNU-stack
                0x00000000        0x0 libcrypto_pic.a(hm_ameth.pico)
 .note.GNU-stack
                0x00000000        0x0 libcrypto_pic.a(hmac.pico)
 .note.GNU-stack
                0x00000000        0x0 libcrypto_pic.a(pmeth_gn.pico)
 .note.GNU-stack
                0x00000000        0x0 libcrypto_pic.a(m_sigver.pico)
 .note.GNU-stack
                0x00000000        0x0 libcrypto_pic.a(pmeth_fn.pico)
 .note.GNU-stack
                0x00000000        0x0 libcrypto_pic.a(pmeth_lib.pico)
 .note.GNU-stack
                0x00000000        0x0 libcrypto_pic.a(ec_pmeth.pico)
 .note.GNU-stack
                0x00000000        0x0 libcrypto_pic.a(dsa_pmeth.pico)
 .note.GNU-stack
                0x00000000        0x0 libcrypto_pic.a(dsa_key.pico)
 .note.GNU-stack
                0x00000000        0x0 libcrypto_pic.a(dsa_gen.pico)
 .note.GNU-stack
                0x00000000        0x0 libcrypto_pic.a(dh_pmeth.pico)
 .note.GNU-stack
                0x00000000        0x0 libcrypto_pic.a(dh_gen.pico)
 .note.GNU-stack
                0x00000000        0x0 libcrypto_pic.a(cm_pmeth.pico)
 .note.GNU-stack
                0x00000000        0x0 libcrypto_pic.a(ecs_vrf.pico)
 .note.GNU-stack
                0x00000000        0x0 libcrypto_pic.a(ech_key.pico)
 .note.GNU-stack
                0x00000000        0x0 libcrypto_pic.a(ech_lib.pico)
 .note.GNU-stack
                0x00000000        0x0 libcrypto_pic.a(tb_ecdh.pico)
 .note.GNU-stack
                0x00000000        0x0 libcrypto_pic.a(ech_ossl.pico)
 .note.GNU-stack
                0x00000000        0x0 libcrypto_pic.a(p5_crpt2.pico)
 .note.GNU-stack
                0x00000000        0x0 libcrypto_pic.a(p5_crpt.pico)
 .note.GNU-stack
                0x00000000        0x0 libcrypto_pic.a(p5_pbe.pico)
 .note.GNU-stack
                0x00000000        0x0 libcrypto_pic.a(evp_pbe.pico)
 .note.GNU-stack
                0x00000000        0x0 libcrypto_pic.a(bio_enc.pico)
 .note.GNU-stack
                0x00000000        0x0 libcrypto_pic.a(bio_md.pico)
 .note.GNU-stack
                0x00000000        0x0 libcrypto_pic.a(p_lib.pico)
 .note.GNU-stack
                0x00000000        0x0 libcrypto_pic.a(p_verify.pico)
 .note.GNU-stack
                0x00000000        0x0 libcrypto_pic.a(p_sign.pico)
 .note.GNU-stack
                0x00000000        0x0 libcrypto_pic.a(evp_enc.pico)
 .note.GNU-stack
                0x00000000        0x0 libcrypto_pic.a(tb_cipher.pico)
 .note.GNU-stack
                0x00000000        0x0 libcrypto_pic.a(digest.pico)
 .note.GNU-stack
                0x00000000        0x0 libcrypto_pic.a(tb_digest.pico)
 .note.GNU-stack
                0x00000000        0x0 libcrypto_pic.a(err.pico)
 .note.GNU-stack
                0x00000000        0x0 libcrypto_pic.a(tb_pkmeth.pico)
 .note.GNU-stack
                0x00000000        0x0 libcrypto_pic.a(tb_ecdsa.pico)
 .note.GNU-stack
                0x00000000        0x0 libcrypto_pic.a(tb_dh.pico)
 .note.GNU-stack
                0x00000000        0x0 libcrypto_pic.a(tb_dsa.pico)
 .note.GNU-stack
                0x00000000        0x0 libcrypto_pic.a(tb_asnmth.pico)
 .note.GNU-stack
                0x00000000        0x0 libcrypto_pic.a(eng_table.pico)
 .note.GNU-stack
                0x00000000        0x0 libcrypto_pic.a(eng_list.pico)
 .note.GNU-stack
                0x00000000        0x0 libcrypto_pic.a(eng_ctrl.pico)
 .note.GNU-stack
                0x00000000        0x0 libcrypto_pic.a(ecs_sign.pico)
 .note.GNU-stack
                0x00000000        0x0 libcrypto_pic.a(ecs_ossl.pico)
 .note.GNU-stack
                0x00000000        0x0 libcrypto_pic.a(ecs_asn1.pico)
 .note.GNU-stack
                0x00000000        0x0 libcrypto_pic.a(ecp_oct.pico)
 .note.GNU-stack
                0x00000000        0x0 libcrypto_pic.a(bn_sqrt.pico)
 .note.GNU-stack
                0x00000000        0x0 libcrypto_pic.a(bn_kron.pico)
 .note.GNU-stack
                0x00000000        0x0 libcrypto_pic.a(ec2_oct.pico)
 .note.GNU-stack
                0x00000000        0x0 libcrypto_pic.a(ec_ameth.pico)
 .note.GNU-stack
                0x00000000        0x0 libcrypto_pic.a(ecs_lib.pico)
 .note.GNU-stack
                0x00000000        0x0 libcrypto_pic.a(eck_prn.pico)
 .note.GNU-stack
                0x00000000        0x0 libcrypto_pic.a(ec_print.pico)
 .note.GNU-stack
                0x00000000        0x0 libcrypto_pic.a(ec_asn1.pico)
 .note.GNU-stack
                0x00000000        0x0 libcrypto_pic.a(bn_print.pico)
 .note.GNU-stack
                0x00000000        0x0 libcrypto_pic.a(ec_oct.pico)
 .note.GNU-stack
                0x00000000        0x0 libcrypto_pic.a(ec_mult.pico)
 .note.GNU-stack
                0x00000000        0x0 libcrypto_pic.a(dso_openssl.pico)
 .note.GNU-stack
                0x00000000        0x0 libcrypto_pic.a(dso_dlfcn.pico)
 .note.GNU-stack
                0x00000000        0x0 libcrypto_pic.a(dso_lib.pico)
 .note.GNU-stack
                0x00000000        0x0 libcrypto_pic.a(dsa_ameth.pico)
 .note.GNU-stack
                0x00000000        0x0 libcrypto_pic.a(dsa_asn1.pico)
 .note.GNU-stack
                0x00000000        0x0 libcrypto_pic.a(dsa_vrf.pico)
 .note.GNU-stack
                0x00000000        0x0 libcrypto_pic.a(mem_dbg.pico)
 .note.GNU-stack
                0x00000000        0x0 libcrypto_pic.a(conf_def.pico)
 .note.GNU-stack
                0x00000000        0x0 libcrypto_pic.a(conf_lib.pico)
 .note.GNU-stack
                0x00000000        0x0 libcrypto_pic.a(conf_api.pico)
 .note.GNU-stack
                0x00000000        0x0 libcrypto_pic.a(cms_pwri.pico)
 .note.GNU-stack
                0x00000000        0x0 libcrypto_pic.a(p5_pbev2.pico)
 .note.GNU-stack
                0x00000000        0x0 libcrypto_pic.a(asn_pack.pico)
 .note.GNU-stack
                0x00000000        0x0 libcrypto_pic.a(a_set.pico)
 .note.GNU-stack
                0x00000000        0x0 libcrypto_pic.a(cms_enc.pico)
 .note.GNU-stack
                0x00000000        0x0 libcrypto_pic.a(cms_env.pico)
 .note.GNU-stack
                0x00000000        0x0 libcrypto_pic.a(aes_wrap.pico)
 .note.GNU-stack
                0x00000000        0x0 libcrypto_pic.a(aes_misc.pico)
 .note.GNU-stack
                0x00000000        0x0 libcrypto_pic.a(cms_dd.pico)
 .note.GNU-stack
                0x00000000        0x0 libcrypto_pic.a(cms_sd.pico)
 .note.GNU-stack
                0x00000000        0x0 libcrypto_pic.a(cms_att.pico)
 .note.GNU-stack
                0x00000000        0x0 libcrypto_pic.a(x509_att.pico)
 .note.GNU-stack
                0x00000000        0x0 libcrypto_pic.a(a_strnid.pico)
 .note.GNU-stack
                0x00000000        0x0 libcrypto_pic.a(cms_io.pico)
 .note.GNU-stack
                0x00000000        0x0 libcrypto_pic.a(asn_mime.pico)
 .note.GNU-stack
                0x00000000        0x0 libcrypto_pic.a(a_i2d_fp.pico)
 .note.GNU-stack
                0x00000000        0x0 libcrypto_pic.a(a_d2i_fp.pico)
 .note.GNU-stack
                0x00000000        0x0 libcrypto_pic.a(bio_b64.pico)
 .note.GNU-stack
                0x00000000        0x0 libcrypto_pic.a(encode.pico)
 .note.GNU-stack
                0x00000000        0x0 libcrypto_pic.a(bf_buff.pico)
 .note.GNU-stack
                0x00000000        0x0 libcrypto_pic.a(bio_ndef.pico)
 .note.GNU-stack
                0x00000000        0x0 libcrypto_pic.a(bio_asn1.pico)
 .note.GNU-stack
                0x00000000        0x0 libcrypto_pic.a(cms_asn1.pico)
 .note.GNU-stack
                0x00000000        0x0 libcrypto_pic.a(cms_lib.pico)
 .note.GNU-stack
                0x00000000        0x0 libcrypto_pic.a(bss_null.pico)
 .note.GNU-stack
                0x00000000        0x0 libcrypto_pic.a(bss_mem.pico)
 .note.GNU-stack
                0x00000000        0x0 libcrypto_pic.a(tasn_prn.pico)
 .note.GNU-stack
                0x00000000        0x0 libcrypto_pic.a(x_crl.pico)
 .note.GNU-stack
                0x00000000        0x0 libcrypto_pic.a(a_verify.pico)
 .note.GNU-stack
                0x00000000        0x0 libcrypto_pic.a(a_enum.pico)
 .note.GNU-stack
                0x00000000        0x0 libcrypto_pic.a(names.pico)
 .note.GNU-stack
                0x00000000        0x0 libcrypto_pic.a(o_names.pico)
 .note.GNU-stack
                0x00000000        0x0 libcrypto_pic.a(tasn_typ.pico)
 .note.GNU-stack
                0x00000000        0x0 libcrypto_pic.a(t_x509.pico)
 .note.GNU-stack
                0x00000000        0x0 libcrypto_pic.a(obj_xref.pico)
 .note.GNU-stack
                0x00000000        0x0 libcrypto_pic.a(m_sha1.pico)
 .note.GNU-stack
                0x00000000        0x0 libcrypto_pic.a(err_prn.pico)
 .note.GNU-stack
                0x00000000        0x0 libcrypto_pic.a(ameth_lib.pico)
 .note.GNU-stack
                0x00000000        0x0 libcrypto_pic.a(t_x509a.pico)
 .note.GNU-stack
                0x00000000        0x0 libcrypto_pic.a(sha1dgst.pico)
 .note.GNU-stack
                0x00000000        0x0 libcrypto_pic.a(dh_ameth.pico)
 .note.GNU-stack
                0x00000000        0x0 libcrypto_pic.a(dh_asn1.pico)
 .note.GNU-stack
                0x00000000        0x0 libcrypto_pic.a(cm_ameth.pico)
 .note.GNU-stack
                0x00000000        0x0 libcrypto_pic.a(cmac.pico)
 .note.GNU-stack
                0x00000000        0x0 libcrypto_pic.a(p8_pkey.pico)
 .note.GNU-stack
                0x00000000        0x0 libcrypto_pic.a(t_pkey.pico)
 .note.GNU-stack
                0x00000000        0x0 libcrypto_pic.a(x_long.pico)
 .note.GNU-stack
                0x00000000        0x0 libcrypto_pic.a(x_bignum.pico)
 .note.GNU-stack
                0x00000000        0x0 libcrypto_pic.a(x_attrib.pico)
 .note.GNU-stack
                0x00000000        0x0 libcrypto_pic.a(x_x509a.pico)
 .note.GNU-stack
                0x00000000        0x0 libcrypto_pic.a(x_x509.pico)
 .note.GNU-stack
                0x00000000        0x0 libcrypto_pic.a(x_name.pico)
 .note.GNU-stack
                0x00000000        0x0 libcrypto_pic.a(x_pubkey.pico)
 .note.GNU-stack
                0x00000000        0x0 libcrypto_pic.a(x_val.pico)
 .note.GNU-stack
                0x00000000        0x0 libcrypto_pic.a(x_algor.pico)
 .note.GNU-stack
                0x00000000        0x0 libcrypto_pic.a(a_strex.pico)
 .note.GNU-stack
                0x00000000        0x0 libcrypto_pic.a(a_mbstr.pico)
 .note.GNU-stack
                0x00000000        0x0 libcrypto_pic.a(a_utf8.pico)
 .note.GNU-stack
                0x00000000        0x0 libcrypto_pic.a(a_time.pico)
 .note.GNU-stack
                0x00000000        0x0 libcrypto_pic.a(a_gentm.pico)
 .note.GNU-stack
                0x00000000        0x0 libcrypto_pic.a(a_utctm.pico)
 .note.GNU-stack
                0x00000000        0x0 libcrypto_pic.a(v3_asid.pico)
 .note.GNU-stack
                0x00000000        0x0 libcrypto_pic.a(v3_akeya.pico)
 .note.GNU-stack
                0x00000000        0x0 libcrypto_pic.a(v3_addr.pico)
 .note.GNU-stack
                0x00000000        0x0 libcrypto_pic.a(pcy_cache.pico)
 .note.GNU-stack
                0x00000000        0x0 libcrypto_pic.a(x509_ext.pico)
 .note.GNU-stack
                0x00000000        0x0 libcrypto_pic.a(x509_v3.pico)
 .note.GNU-stack
                0x00000000        0x0 libcrypto_pic.a(x509_obj.pico)
 .note.GNU-stack
                0x00000000        0x0 libcrypto_pic.a(evp_lib.pico)
 .note.GNU-stack
                0x00000000        0x0 libcrypto_pic.a(ec_key.pico)
 .note.GNU-stack
                0x00000000        0x0 libcrypto_pic.a(dsa_lib.pico)
 .note.GNU-stack
                0x00000000        0x0 libcrypto_pic.a(dh_lib.pico)
 .note.GNU-stack
                0x00000000        0x0 libcrypto_pic.a(dh_key.pico)
 .note.GNU-stack
                0x00000000        0x0 libcrypto_pic.a(o_time.pico)
 .note.GNU-stack
                0x00000000        0x0 libcrypto_pic.a(bss_file.pico)
 .note.GNU-stack
                0x00000000        0x0 libcrypto_pic.a(evp_asn1.pico)
 .note.GNU-stack
                0x00000000        0x0 libcrypto_pic.a(a_bytes.pico)
 .note.GNU-stack
                0x00000000        0x0 libcrypto_pic.a(asn1_par.pico)
 .note.GNU-stack
                0x00000000        0x0 libcrypto_pic.a(x_exten.pico)
 .note.GNU-stack
                0x00000000        0x0 libcrypto_pic.a(a_bool.pico)
 .note.GNU-stack
                0x00000000        0x0 libcrypto_pic.a(a_dup.pico)
 .note.GNU-stack
                0x00000000        0x0 libcrypto_pic.a(a_octet.pico)
 .note.GNU-stack
                0x00000000        0x0 libcrypto_pic.a(v3_pcons.pico)
 .note.GNU-stack
                0x00000000        0x0 libcrypto_pic.a(pcy_data.pico)
 .note.GNU-stack
                0x00000000        0x0 libcrypto_pic.a(eng_init.pico)
 .note.GNU-stack
                0x00000000        0x0 libcrypto_pic.a(eng_lib.pico)
 .note.GNU-stack
                0x00000000        0x0 libcrypto_pic.a(ec_curve.pico)
 .note.GNU-stack
                0x00000000        0x0 libcrypto_pic.a(ec_cvt.pico)
 .note.GNU-stack
                0x00000000        0x0 libcrypto_pic.a(ecp_nist.pico)
 .note.GNU-stack
                0x00000000        0x0 libcrypto_pic.a(ecp_mont.pico)
 .note.GNU-stack
                0x00000000        0x0 libcrypto_pic.a(ecp_smpl.pico)
 .note.GNU-stack
                0x00000000        0x0 libcrypto_pic.a(dsa_ossl.pico)
 .note.GNU-stack
                0x00000000        0x0 libcrypto_pic.a(dsa_sign.pico)
 .note.GNU-stack
                0x00000000        0x0 libcrypto_pic.a(dh_check.pico)
 .note.GNU-stack
                0x00000000        0x0 libcrypto_pic.a(bn_nist.pico)
 .note.GNU-stack
                0x00000000        0x0 libcrypto_pic.a(bn_exp2.pico)
 .note.GNU-stack
                0x00000000        0x0 libcrypto_pic.a(bn_prime.pico)
 .note.GNU-stack
                0x00000000        0x0 libcrypto_pic.a(bn_exp.pico)
 .note.GNU-stack
                0x00000000        0x0 libcrypto_pic.a(b_dump.pico)
 .note.GNU-stack
                0x00000000        0x0 libcrypto_pic.a(tasn_dec.pico)
 .note.GNU-stack
                0x00000000        0x0 libcrypto_pic.a(tasn_enc.pico)
 .note.GNU-stack
                0x00000000        0x0 libcrypto_pic.a(tasn_new.pico)
 .note.GNU-stack
                0x00000000        0x0 libcrypto_pic.a(a_type.pico)
 .note.GNU-stack
                0x00000000        0x0 libcrypto_pic.a(a_bitstr.pico)
 .note.GNU-stack
                0x00000000        0x0 libcrypto_pic.a(ec2_smpl.pico)
 .note.GNU-stack
                0x00000000        0x0 libcrypto_pic.a(buffer.pico)
 .note.GNU-stack
                0x00000000        0x0 libcrypto_pic.a(bn_mont.pico)
 .note.GNU-stack
                0x00000000        0x0 libcrypto_pic.a(bn_recp.pico)
 .note.GNU-stack
                0x00000000        0x0 libcrypto_pic.a(bn_gcd.pico)
 .note.GNU-stack
                0x00000000        0x0 libcrypto_pic.a(bn_mod.pico)
 .note.GNU-stack
                0x00000000        0x0 libcrypto_pic.a(bn_div.pico)
 .note.GNU-stack
                0x00000000        0x0 libcrypto_pic.a(tasn_fre.pico)
 .note.GNU-stack
                0x00000000        0x0 libcrypto_pic.a(a_object.pico)
 .note.GNU-stack
                0x00000000        0x0 libcrypto_pic.a(ec2_mult.pico)
 .note.GNU-stack
                0x00000000        0x0 libcrypto_pic.a(ec_lib.pico)
 .note.GNU-stack
                0x00000000        0x0 libcrypto_pic.a(bn_gf2m.pico)
 .note.GNU-stack
                0x00000000        0x0 libcrypto_pic.a(bn_sqr.pico)
 .note.GNU-stack
                0x00000000        0x0 libcrypto_pic.a(bn_mul.pico)
 .note.GNU-stack
                0x00000000        0x0 libcrypto_pic.a(bn_word.pico)
 .note.GNU-stack
                0x00000000        0x0 libcrypto_pic.a(bn_shift.pico)
 .note.GNU-stack
                0x00000000        0x0 libcrypto_pic.a(bn_rand.pico)
 .note.GNU-stack
                0x00000000        0x0 libcrypto_pic.a(bn_ctx.pico)
 .note.GNU-stack
                0x00000000        0x0 libcrypto_pic.a(bn_add.pico)
 .note.GNU-stack
                0x00000000        0x0 libcrypto_pic.a(tasn_utl.pico)
 .note.GNU-stack
                0x00000000        0x0 libcrypto_pic.a(a_int.pico)
 .note.GNU-stack
                0x00000000        0x0 libcrypto_pic.a(bn_lib.pico)
 .note.GNU-stack
                0x00000000        0x0 libcrypto_pic.a(asn1_lib.pico)
 .note.GNU-stack
                0x00000000        0x0 libcrypto_pic.a(b_print.pico)
 .note.GNU-stack
                0x00000000        0x0 libcrypto_pic.a(bio_lib.pico)
 .note.GNU-stack
                0x00000000        0x0 libcrypto_pic.a(ex_data.pico)
 .note.GNU-stack
                0x00000000        0x0 libcrypto_pic.a(cryptlib.pico)
 .note.GNU-stack
                0x00000000        0x0 libcrypto_pic.a(buf_str.pico)
 .note.GNU-stack
                0x00000000        0x0 libcrypto_pic.a(mem.pico)
 .note.GNU-stack
                0x00000000        0x0 libcrypto_pic.a(o_init.pico)

Memory Configuration

Name             Origin             Length             Attributes
*default*        0x00000000         0xffffffff

Linker script and memory map

LOAD /usr/lib/crti.o
LOAD /usr/lib/crtbeginS.o
LOAD libcrypto_pic.a
LOAD /usr/src/lib/libcrypt/libcrypt.so
LOAD /usr/lib/libc.so
LOAD /usr/lib/crtendS.o
LOAD /usr/lib/crtn.o
                0x000000f4                . = (0x0 + SIZEOF_HEADERS)

.note.gnu.build-id
 *(.note.gnu.build-id)

.hash           0x000000f4     0x8418
 *(.hash)
 .hash          0x000000f4     0x8418 /usr/lib/crti.o

.gnu.hash
 *(.gnu.hash)

.dynsym         0x0000850c    0x11010
 *(.dynsym)
 .dynsym        0x0000850c    0x11010 /usr/lib/crti.o

.dynstr         0x0001951c    0x1410d
 *(.dynstr)
 .dynstr        0x0001951c    0x1410d /usr/lib/crti.o

.gnu.version    0x0002d62a        0x0
 *(.gnu.version)
 .gnu.version   0x00000000        0x0 /usr/lib/crti.o

.gnu.version_d  0x0002d62c        0x0
 *(.gnu.version_d)
 .gnu.version_d
                0x00000000        0x0 /usr/lib/crti.o

.gnu.version_r  0x0002d62c        0x0
 *(.gnu.version_r)
 .gnu.version_r
                0x00000000        0x0 /usr/lib/crti.o

.rel.dyn        0x0002d62c    0x11828
 *(.rel.init)
 *(.rel.text .rel.text.* .rel.gnu.linkonce.t.*)
 *(.rel.fini)
 *(.rel.rodata .rel.rodata.* .rel.gnu.linkonce.r.*)
 *(.rel.data.rel.ro .rel.data.rel.ro.* .rel.gnu.linkonce.d.rel.ro.*)
 .rel.data.rel.ro.local
                0x0002d62c     0x7aa8 /usr/lib/crti.o
 .rel.data.rel.ro
                0x000350d4     0x34a0 /usr/lib/crti.o
 *(.rel.data .rel.data.* .rel.gnu.linkonce.d.*)
 .rel.data.rel  0x00038574      0x280 /usr/lib/crti.o
 .rel.data.rel.local
                0x000387f4     0x58d8 /usr/lib/crti.o
 *(.rel.tdata .rel.tdata.* .rel.gnu.linkonce.td.*)
 *(.rel.tbss .rel.tbss.* .rel.gnu.linkonce.tb.*)
 *(.rel.ctors)
 *(.rel.dtors)
 *(.rel.got)
 .rel.got       0x0003e0cc      0xd88 /usr/lib/crti.o
 *(.rel.bss .rel.bss.* .rel.gnu.linkonce.b.*)
 *(.rel.ifunc)
 .rel.ifunc     0x00000000        0x0 /usr/lib/crti.o

.rel.plt        0x0003ee54     0x4008
 *(.rel.plt)
 .rel.plt       0x0003ee54     0x4008 /usr/lib/crti.o
 *(.rel.iplt)

.init           0x00042e60       0x1d
 *(SORT(.init))
 .init          0x00042e60        0x3 /usr/lib/crti.o
                0x00042e60                _init
 .init          0x00042e63        0x5 /usr/lib/crtbeginS.o
 .init          0x00042e68       0x13 libcrypto_pic.a(x86cpuid.pico)
 .init          0x00042e7b        0x2 /usr/lib/crtn.o

.plt            0x00042e80     0x8020
 *(.plt)
 .plt           0x00042e80     0x8020 /usr/lib/crti.o
 *(.iplt)

.text           0x0004aec0   0x114424
                0x0004aec0                PROVIDE (__eprol, .)
 *(.text)
 .text          0x0004aec0        0x0 /usr/lib/crti.o
 .text          0x0004aec0       0xef /usr/lib/crtbeginS.o
 *fill*         0x0004afaf        0x1 
 .text          0x0004afb0       0xec libcrypto_pic.a(rc5_enc_dummy.pico)
                0x0004afb0                RC5_32_cbc_encrypt
                0x0004afb0                _RC5_32_cbc_encrypt
                0x0004b000                RC5_32_encrypt
                0x0004b000                _RC5_32_encrypt
                0x0004b050                _RC5_32_decrypt
                0x0004b050                RC5_32_decrypt
 *fill*         0x0004b09c        0x4 
 .text          0x0004b0a0       0x4c libcrypto_pic.a(rc5_skey_dummy.pico)
                0x0004b0a0                RC5_32_set_key
                0x0004b0a0                _RC5_32_set_key
 *fill*         0x0004b0ec        0x4 
 .text          0x0004b0f0       0x75 libcrypto_pic.a(mdc2_one.pico)
                0x0004b0f0                MDC2
 *fill*         0x0004b165        0xb 
 .text          0x0004b170      0x11c libcrypto_pic.a(x509type.pico)
                0x0004b170                X509_certificate_type
 *fill*         0x0004b28c        0x4 
 .text          0x0004b290      0x291 libcrypto_pic.a(x509cset.pico)
                0x0004b290                X509_CRL_set_version
                0x0004b2f0                X509_CRL_set_issuer_name
                0x0004b330                X509_CRL_set_lastUpdate
                0x0004b390                X509_CRL_set_nextUpdate
                0x0004b3f0                X509_CRL_sort
                0x0004b470                X509_REVOKED_set_revocationDate
                0x0004b4d0                X509_REVOKED_set_serialNumber
 *fill*         0x0004b521        0xf 
 .text          0x0004b530      0x25c libcrypto_pic.a(x509spki.pico)
                0x0004b530                NETSCAPE_SPKI_set_pubkey
                0x0004b570                NETSCAPE_SPKI_get_pubkey
                0x0004b5b0                NETSCAPE_SPKI_b64_decode
                0x0004b6b0                NETSCAPE_SPKI_b64_encode
 *fill*         0x0004b78c        0x4 
 .text          0x0004b790      0x165 libcrypto_pic.a(x509_r2x.pico)
                0x0004b790                X509_REQ_to_X509
 *fill*         0x0004b8f5        0xb 
 .text          0x0004b900      0x175 libcrypto_pic.a(x509_d2.pico)
                0x0004b900                X509_STORE_set_default_paths
                0x0004b9b0                X509_STORE_load_locations
 *fill*         0x0004ba75        0xb 
 .text          0x0004ba80     0x1029 libcrypto_pic.a(ts_conf.pico)
                0x0004ba80                TS_CONF_load_cert
                0x0004bb10                TS_CONF_load_certs
                0x0004bc40                TS_CONF_load_key
                0x0004bcd0                TS_CONF_get_tsa_section
                0x0004bd40                TS_CONF_set_serial
                0x0004bdd0                TS_CONF_set_crypto_device
                0x0004be60                TS_CONF_set_default_engine
                0x0004bfb0                TS_CONF_set_signer_cert
                0x0004c0c0                TS_CONF_set_certs
                0x0004c150                TS_CONF_set_signer_key
                0x0004c260                TS_CONF_set_def_policy
                0x0004c320                TS_CONF_set_policies
                0x0004c460                TS_CONF_set_digests
                0x0004c5c0                TS_CONF_set_accuracy
                0x0004c7d0                TS_CONF_set_clock_precision_digits
                0x0004c870                TS_CONF_set_ordering
                0x0004c930                TS_CONF_set_tsa_name
                0x0004c9f0                TS_CONF_set_ess_cert_id_chain
 *fill*         0x0004caa9        0x7 
 .text          0x0004cab0      0x43a libcrypto_pic.a(ts_verify_ctx.pico)
                0x0004cab0                TS_VERIFY_CTX_new
                0x0004cb70                TS_VERIFY_CTX_init
                0x0004cc00                TS_VERIFY_CTX_free
                0x0004cc40                TS_VERIFY_CTX_cleanup
                0x0004cd10                TS_REQ_to_TS_VERIFY_CTX
 *fill*         0x0004ceea        0x6 
 .text          0x0004cef0     0x1073 libcrypto_pic.a(ts_rsp_verify.pico)
                0x0004cef0                TS_RESP_verify_signature
                0x0004d370                TS_RESP_verify_response
                0x0004dbd0                TS_RESP_verify_token
 *fill*         0x0004df63        0xd 
 .text          0x0004df70     0x1c6d libcrypto_pic.a(ts_rsp_sign.pico)
                0x0004df70                TS_RESP_CTX_new
                0x0004e260                TS_RESP_CTX_free
                0x0004e310                TS_RESP_CTX_set_signer_cert
                0x0004e3d0                TS_RESP_CTX_set_signer_key
                0x0004e440                TS_RESP_CTX_set_def_policy
                0x0004e4c0                TS_RESP_CTX_set_certs
                0x0004e5c0                TS_RESP_CTX_add_policy
                0x0004e670                TS_RESP_CTX_add_md
                0x0004e6f0                TS_RESP_CTX_set_accuracy
                0x0004e830                TS_RESP_CTX_add_flags
                0x0004e840                TS_RESP_CTX_set_serial_cb
                0x0004e860                TS_RESP_CTX_set_time_cb
                0x0004e880                TS_RESP_CTX_set_extension_cb
                0x0004e8a0                TS_RESP_CTX_set_status_info
                0x0004e9b0                TS_RESP_CTX_set_status_info_cond
                0x0004ea00                TS_RESP_CTX_add_failure_info
                0x0004ea90                TS_RESP_CTX_get_request
                0x0004eaa0                TS_RESP_CTX_get_tst_info
                0x0004eab0                TS_RESP_CTX_set_clock_precision_digits
                0x0004ead0                TS_RESP_create_response
 *fill*         0x0004fbdd        0x3 
 .text          0x0004fbe0      0x5e7 libcrypto_pic.a(ts_rsp_print.pico)
                0x0004fbe0                TS_RESP_print_bio
                0x0004fc80                TS_STATUS_INFO_print_bio
                0x0004fe50                TS_TST_INFO_print_bio
 *fill*         0x000501c7        0x9 
 .text          0x000501d0      0x9de libcrypto_pic.a(ts_rsp_utils.pico)
                0x000501d0                TS_RESP_set_status_info
                0x00050250                TS_RESP_get_status_info
                0x00050260                TS_RESP_set_tst_info
                0x000502a0                TS_RESP_get_token
                0x000502b0                TS_RESP_get_tst_info
                0x000502c0                TS_TST_INFO_set_version
                0x000502f0                TS_TST_INFO_get_version
                0x00050320                TS_TST_INFO_set_policy_id
                0x000503b0                TS_TST_INFO_get_policy_id
                0x000503c0                TS_TST_INFO_set_msg_imprint
                0x00050450                TS_TST_INFO_get_msg_imprint
                0x00050460                TS_TST_INFO_set_serial
                0x000504f0                TS_TST_INFO_get_serial
                0x00050500                TS_TST_INFO_set_time
                0x00050590                TS_TST_INFO_get_time
                0x000505a0                TS_TST_INFO_set_accuracy
                0x00050630                TS_TST_INFO_get_accuracy
                0x00050640                TS_ACCURACY_set_seconds
                0x000506c0                TS_ACCURACY_get_seconds
                0x000506d0                TS_ACCURACY_set_millis
                0x00050760                TS_ACCURACY_get_millis
                0x00050770                TS_ACCURACY_set_micros
                0x00050800                TS_ACCURACY_get_micros
                0x00050810                TS_TST_INFO_set_ordering
                0x00050830                TS_TST_INFO_get_ordering
                0x00050850                TS_TST_INFO_set_nonce
                0x000508e0                TS_TST_INFO_get_nonce
                0x000508f0                TS_TST_INFO_set_tsa
                0x00050980                TS_TST_INFO_get_tsa
                0x00050990                TS_TST_INFO_get_exts
                0x000509a0                TS_TST_INFO_ext_free
                0x000509e0                TS_TST_INFO_get_ext_count
                0x00050a10                TS_TST_INFO_get_ext_by_NID
                0x00050a50                TS_TST_INFO_get_ext_by_OBJ
                0x00050a90                TS_TST_INFO_get_ext_by_critical
                0x00050ad0                TS_TST_INFO_get_ext
                0x00050b00                TS_TST_INFO_delete_ext
                0x00050b30                TS_TST_INFO_add_ext
                0x00050b70                TS_TST_INFO_get_ext_d2i
 *fill*         0x00050bae        0x2 
 .text          0x00050bb0      0x13e libcrypto_pic.a(ts_req_print.pico)
                0x00050bb0                TS_REQ_print_bio
 *fill*         0x00050cee        0x2 
 .text          0x00050cf0      0x36b libcrypto_pic.a(str_meth.pico)
                0x00050cf0                STORE_create_method
                0x00050d50                STORE_destroy_method
                0x00050d90                STORE_method_set_initialise_function
                0x00050db0                STORE_method_set_cleanup_function
                0x00050dd0                STORE_method_set_generate_function
                0x00050df0                STORE_method_set_get_function
                0x00050e10                STORE_method_set_store_function
                0x00050e30                STORE_method_set_modify_function
                0x00050e50                STORE_method_set_revoke_function
                0x00050e70                STORE_method_set_delete_function
                0x00050e90                STORE_method_set_list_start_function
                0x00050eb0                STORE_method_set_list_next_function
                0x00050ed0                STORE_method_set_list_end_function
                0x00050ef0                STORE_method_set_update_store_function
                0x00050f10                STORE_method_set_lock_store_function
                0x00050f30                STORE_method_set_unlock_store_function
                0x00050f50                STORE_method_set_ctrl_function
                0x00050f70                STORE_method_get_initialise_function
                0x00050f80                STORE_method_get_cleanup_function
                0x00050f90                STORE_method_get_generate_function
                0x00050fa0                STORE_method_get_get_function
                0x00050fb0                STORE_method_get_store_function
                0x00050fc0                STORE_method_get_modify_function
                0x00050fd0                STORE_method_get_revoke_function
                0x00050fe0                STORE_method_get_delete_function
                0x00050ff0                STORE_method_get_list_start_function
                0x00051000                STORE_method_get_list_next_function
                0x00051010                STORE_method_get_list_end_function
                0x00051020                STORE_method_get_update_store_function
                0x00051030                STORE_method_get_lock_store_function
                0x00051040                STORE_method_get_unlock_store_function
                0x00051050                STORE_method_get_ctrl_function
 *fill*         0x0005105b        0x5 
 .text          0x00051060      0x64a libcrypto_pic.a(str_mem.pico)
                0x00051060                STORE_Memory
 *fill*         0x000516aa        0x6 
 .text          0x000516b0     0x4079 libcrypto_pic.a(str_lib.pico)
                0x000516b0                STORE_new_method
                0x000517a0                STORE_free
                0x00051800                STORE_new_engine
                0x000518f0                STORE_ctrl
                0x00051970                STORE_get_ex_new_index
                0x000519c0                STORE_set_ex_data
                0x00051a00                STORE_get_ex_data
                0x00051a30                STORE_get_method
                0x00051a40                STORE_set_method
                0x00051a50                STORE_get_certificate
                0x00051b50                STORE_OBJECT_free
                0x00051bd0                STORE_store_certificate
                0x00051d50                STORE_OBJECT_new
                0x00051da0                STORE_modify_certificate
                0x00051e80                STORE_revoke_certificate
                0x00051f40                STORE_delete_certificate
                0x00052000                STORE_list_certificate_start
                0x000520c0                STORE_list_certificate_next
                0x000521b0                STORE_list_certificate_end
                0x00052260                STORE_list_certificate_endp
                0x00052310                STORE_generate_key
                0x00052410                STORE_get_private_key
                0x00052510                STORE_store_private_key
                0x000526a0                STORE_modify_private_key
                0x00052780                STORE_revoke_private_key
                0x00052840                STORE_delete_private_key
                0x00052900                STORE_list_private_key_start
                0x000529c0                STORE_list_private_key_next
                0x00052ab0                STORE_list_private_key_end
                0x00052b60                STORE_list_private_key_endp
                0x00052c10                STORE_get_public_key
                0x00052d10                STORE_store_public_key
                0x00052ea0                STORE_modify_public_key
                0x00052f80                STORE_revoke_public_key
                0x00053040                STORE_delete_public_key
                0x00053100                STORE_list_public_key_start
                0x000531c0                STORE_list_public_key_next
                0x000532b0                STORE_list_public_key_end
                0x00053360                STORE_list_public_key_endp
                0x00053410                STORE_generate_crl
                0x00053510                STORE_get_crl
                0x00053610                STORE_store_crl
                0x00053770                STORE_modify_crl
                0x00053850                STORE_delete_crl
                0x00053910                STORE_list_crl_start
                0x000539d0                STORE_list_crl_next
                0x00053ac0                STORE_list_crl_end
                0x00053b70                STORE_list_crl_endp
                0x00053c20                STORE_store_number
                0x00053d60                STORE_modify_number
                0x00053e40                STORE_get_number
                0x00053f10                STORE_delete_number
                0x00053fd0                STORE_store_arbitrary
                0x00054110                STORE_modify_arbitrary
                0x000541f0                STORE_get_arbitrary
                0x000542c0                STORE_delete_arbitrary
                0x00054380                STORE_ATTR_INFO_new
                0x000543c0                STORE_ATTR_INFO_free
                0x00054500                STORE_ATTR_INFO_get0_cstr
                0x000545a0                STORE_ATTR_INFO_get0_sha1str
                0x00054640                STORE_ATTR_INFO_get0_dn
                0x000546e0                STORE_ATTR_INFO_get0_number
                0x00054780                STORE_ATTR_INFO_set_cstr
                0x00054850                STORE_ATTR_INFO_set_sha1str
                0x00054920                STORE_ATTR_INFO_set_dn
                0x000549f0                STORE_ATTR_INFO_set_number
                0x00054ac0                STORE_ATTR_INFO_modify_cstr
                0x00054b80                STORE_ATTR_INFO_modify_sha1str
                0x00054c40                STORE_ATTR_INFO_modify_dn
                0x00054d00                STORE_ATTR_INFO_modify_number
                0x00054dc0                STORE_parse_attrs_start
                0x00054e50                STORE_parse_attrs_next
                0x000550b0                STORE_parse_attrs_end
                0x00055120                STORE_parse_attrs_endp
                0x00055190                STORE_ATTR_INFO_compare
                0x000554f0                STORE_ATTR_INFO_in_range
                0x00055560                STORE_ATTR_INFO_in
                0x000555b0                STORE_ATTR_INFO_in_ex
 *fill*         0x00055729        0x7 
 .text          0x00055730       0x57 libcrypto_pic.a(str_err.pico)
                0x00055730                ERR_load_STORE_strings
 *fill*         0x00055787        0x9 
 .text          0x00055790     0x11aa libcrypto_pic.a(srp_vfy.pico)
                0x00055790                SRP_VBASE_new
                0x00055840                SRP_VBASE_free
                0x00055900                SRP_VBASE_init
                0x00055f80                SRP_VBASE_get_by_user
                0x000561d0                SRP_create_verifier
                0x00056650                SRP_create_verifier_BN
 *fill*         0x0005693a        0x6 
 .text          0x00056940      0xdae libcrypto_pic.a(srp_lib.pico)
                0x00056940                SRP_Calc_u
                0x00056ae0                SRP_Calc_server_key
                0x00056bf0                SRP_Calc_B
                0x00056ef0                SRP_Calc_x
                0x000570b0                SRP_Calc_A
                0x00057140                SRP_Calc_client_key
                0x00057380                SRP_Verify_B_mod_N
                0x00057410                SRP_Verify_A_mod_N
                0x00057430                SRP_check_known_gN_param
                0x000575f0                SRP_get_default_gN
 *fill*         0x000576ee        0x2 
 .text          0x000576f0       0xe0 libcrypto_pic.a(libc-sha256.pico)
                0x000576f0                SHA224
                0x00057760                SHA256
 .text          0x000577d0       0xe0 libcrypto_pic.a(libc-sha512.pico)
                0x000577d0                SHA384
                0x00057840                SHA512
 .text          0x000578b0       0x75 libcrypto_pic.a(sha1_one.pico)
                0x000578b0                SHA1
 *fill*         0x00057925        0xb 
 .text          0x00057930       0x75 libcrypto_pic.a(sha_one.pico)
                0x00057930                SHA
 *fill*         0x000579a5        0xb 
 .text          0x000579b0      0x149 libcrypto_pic.a(rsa_prn.pico)
                0x000579b0                RSA_print_fp
                0x00057a90                RSA_print
 *fill*         0x00057af9        0x7 
 .text          0x00057b00       0xcb libcrypto_pic.a(rsa_depr.pico)
                0x00057b00                RSA_generate_key
 *fill*         0x00057bcb        0x5 
 .text          0x00057bd0      0x17a libcrypto_pic.a(rsa_null.pico)
                0x00057bd0                RSA_null_method
 *fill*         0x00057d4a        0x6 
 .text          0x00057d50      0x608 libcrypto_pic.a(rsa_chk.pico)
                0x00057d50                RSA_check_key
 *fill*         0x00058358        0x8 
 .text          0x00058360       0x75 libcrypto_pic.a(rmd_one.pico)
                0x00058360                RIPEMD160
 *fill*         0x000583d5        0x3 
 .text          0x000583d8        0x0 libcrypto_pic.a(rand_os2.pico)
 .text          0x000583d8        0x0 libcrypto_pic.a(rand_win.pico)
 *fill*         0x000583d8        0x8 
 .text          0x000583e0      0x3bc libcrypto_pic.a(randfile.pico)
                0x000583e0                RAND_load_file
                0x00058580                RAND_write_file
                0x000586b0                RAND_file_name
 *fill*         0x0005879c        0x4 
 .text          0x000587a0      0x33a libcrypto_pic.a(pqueue.pico)
                0x000587a0                pitem_new
                0x00058800                pitem_free
                0x00058830                pqueue_new
                0x00058880                pqueue_free
                0x000588b0                pqueue_insert
                0x00058940                pqueue_peek
                0x00058950                pqueue_pop
                0x00058970                pqueue_find
                0x000589f0                pqueue_print
                0x00058a90                pqueue_iterator
                0x00058aa0                pqueue_next
                0x00058ac0                pqueue_size
 *fill*         0x00058ada        0x6 
 .text          0x00058ae0      0x165 libcrypto_pic.a(pk7_mime.pico)
                0x00058ae0                i2d_PKCS7_bio_stream
                0x00058b30                PEM_write_bio_PKCS7_stream
                0x00058b90                SMIME_write_PKCS7
                0x00058c10                SMIME_read_PKCS7
 *fill*         0x00058c45        0xb 
 .text          0x00058c50     0x1392 libcrypto_pic.a(pk7_smime.pico)
                0x00058c50                PKCS7_sign
                0x00058df0                PKCS7_sign_add_signer
                0x000592a0                PKCS7_final
                0x000593a0                PKCS7_verify
                0x00059990                PKCS7_get0_signers
                0x00059b90                PKCS7_encrypt
                0x00059d20                PKCS7_decrypt
 *fill*         0x00059fe2        0xe 
 .text          0x00059ff0      0x4e9 libcrypto_pic.a(p12_npas.pico)
                0x00059ff0                PKCS12_newpass
 *fill*         0x0005a4d9        0x7 
 .text          0x0005a4e0      0x5e4 libcrypto_pic.a(p12_kiss.pico)
                0x0005a4e0                PKCS12_parse
 *fill*         0x0005aac4        0xc 
 .text          0x0005aad0      0x74c libcrypto_pic.a(p12_crt.pico)
                0x0005aad0                PKCS12_create
                0x0005aee0                PKCS12_add_cert
                0x0005afd0                PKCS12_add_safe
                0x0005b0c0                PKCS12_add_key
                0x0005b1c0                PKCS12_add_safes
 *fill*         0x0005b21c        0x4 
 .text          0x0005b220      0x290 libcrypto_pic.a(p12_attr.pico)
                0x0005b220                PKCS12_add_localkeyid
                0x0005b270                PKCS8_add_keyusage
                0x0005b2d0                PKCS12_add_friendlyname_asc
                0x0005b320                PKCS12_add_friendlyname_uni
                0x0005b370                PKCS12_add_CSPName_asc
                0x0005b3c0                PKCS12_get_attr_gen
                0x0005b460                PKCS12_get_friendlyname
 .text          0x0005b4b0     0x2826 libcrypto_pic.a(pvkfmt.pico)
                0x0005b4b0                b2i_PrivateKey
                0x0005b5f0                b2i_PublicKey
                0x0005b620                b2i_PrivateKey_bio
                0x0005b800                b2i_PublicKey_bio
                0x0005b820                i2b_PrivateKey_bio
                0x0005b890                i2b_PublicKey_bio
                0x0005b900                b2i_PVK_bio
                0x0005bed0                i2b_PVK_bio
 *fill*         0x0005dcd6        0xa 
 .text          0x0005dce0      0x496 libcrypto_pic.a(pem_seal.pico)
                0x0005dce0                PEM_SealInit
                0x0005dec0                PEM_SealUpdate
                0x0005dfd0                PEM_SealFinal
 *fill*         0x0005e176        0xa 
 .text          0x0005e180      0x124 libcrypto_pic.a(pem_sign.pico)
                0x0005e180                PEM_SignInit
                0x0005e1c0                PEM_SignUpdate
                0x0005e1e0                PEM_SignFinal
 *fill*         0x0005e2a4        0xc 
 .text          0x0005e2b0      0xb60 libcrypto_pic.a(ocsp_vfy.pico)
                0x0005e2b0                OCSP_basic_verify
                0x0005e8f0                OCSP_request_verify
 .text          0x0005ee10      0xad7 libcrypto_pic.a(ocsp_prn.pico)
                0x0005ee10                OCSP_response_status_str
                0x0005ee80                OCSP_cert_status_str
                0x0005eed0                OCSP_crl_reason_str
                0x0005ef60                OCSP_REQUEST_print
                0x0005f2d0                OCSP_RESPONSE_print
 *fill*         0x0005f8e7        0x9 
 .text          0x0005f8f0      0x5ed libcrypto_pic.a(ocsp_srv.pico)
                0x0005f8f0                OCSP_request_onereq_count
                0x0005f920                OCSP_request_onereq_get0
                0x0005f950                OCSP_onereq_get0_id
                0x0005f960                OCSP_id_get0_info
                0x0005f9b0                OCSP_request_is_signed
                0x0005f9d0                OCSP_response_create
                0x0005fa70                OCSP_basic_add1_status
                0x0005fbe0                OCSP_basic_add1_cert
                0x0005fc60                OCSP_basic_sign
 *fill*         0x0005fedd        0x3 
 .text          0x0005fee0      0x8c1 libcrypto_pic.a(ocsp_cl.pico)
                0x0005fee0                OCSP_request_add0_id
                0x0005ff50                OCSP_request_set1_name
                0x0005ffd0                OCSP_request_add1_cert
                0x00060070                OCSP_request_sign
                0x00060220                OCSP_response_status
                0x00060250                OCSP_response_get1_basic
                0x000602f0                OCSP_resp_count
                0x00060330                OCSP_resp_get0
                0x00060370                OCSP_resp_find
                0x000603f0                OCSP_single_get0_status
                0x00060480                OCSP_resp_find_status
                0x00060590                OCSP_check_validity
 *fill*         0x000607a1        0xf 
 .text          0x000607b0      0x55e libcrypto_pic.a(ocsp_lib.pico)
                0x000607b0                OCSP_cert_to_id
                0x00060830                OCSP_cert_id_new
                0x000609c0                OCSP_id_issuer_cmp
                0x00060a30                OCSP_id_cmp
                0x00060ab0                OCSP_parse_url
                0x00060ce0                OCSP_CERTID_dup
 *fill*         0x00060d0e        0x2 
 .text          0x00060d10      0xa16 libcrypto_pic.a(ocsp_ht.pico)
                0x00060d10                OCSP_REQ_CTX_free
                0x00060d60                OCSP_REQ_CTX_set1_req
                0x00060e10                OCSP_REQ_CTX_add1_header
                0x00060ec0                OCSP_sendreq_new
                0x00061050                OCSP_sendreq_nbio
                0x00061660                OCSP_sendreq_bio
 *fill*         0x00061726        0xa 
 .text          0x00061730      0xe84 libcrypto_pic.a(ocsp_ext.pico)
                0x00061730                OCSP_REQUEST_get_ext_count
                0x00061760                OCSP_REQUEST_get_ext_by_NID
                0x000617a0                OCSP_REQUEST_get_ext_by_OBJ
                0x000617e0                OCSP_REQUEST_get_ext_by_critical
                0x00061820                OCSP_REQUEST_get_ext
                0x00061850                OCSP_REQUEST_delete_ext
                0x00061880                OCSP_REQUEST_get1_ext_d2i
                0x000618c0                OCSP_REQUEST_add1_ext_i2d
                0x00061910                OCSP_REQUEST_add_ext
                0x00061950                OCSP_ONEREQ_get_ext_count
                0x00061980                OCSP_ONEREQ_get_ext_by_NID
                0x000619c0                OCSP_ONEREQ_get_ext_by_OBJ
                0x00061a00                OCSP_ONEREQ_get_ext_by_critical
                0x00061a40                OCSP_ONEREQ_get_ext
                0x00061a70                OCSP_ONEREQ_delete_ext
                0x00061aa0                OCSP_ONEREQ_get1_ext_d2i
                0x00061ae0                OCSP_ONEREQ_add1_ext_i2d
                0x00061b30                OCSP_ONEREQ_add_ext
                0x00061b70                OCSP_BASICRESP_get_ext_count
                0x00061ba0                OCSP_BASICRESP_get_ext_by_NID
                0x00061be0                OCSP_BASICRESP_get_ext_by_OBJ
                0x00061c20                OCSP_BASICRESP_get_ext_by_critical
                0x00061c60                OCSP_BASICRESP_get_ext
                0x00061c90                OCSP_BASICRESP_delete_ext
                0x00061cc0                OCSP_BASICRESP_get1_ext_d2i
                0x00061d00                OCSP_BASICRESP_add1_ext_i2d
                0x00061d50                OCSP_BASICRESP_add_ext
                0x00061d90                OCSP_SINGLERESP_get_ext_count
                0x00061dc0                OCSP_SINGLERESP_get_ext_by_NID
                0x00061e00                OCSP_SINGLERESP_get_ext_by_OBJ
                0x00061e40                OCSP_SINGLERESP_get_ext_by_critical
                0x00061e80                OCSP_SINGLERESP_get_ext
                0x00061eb0                OCSP_SINGLERESP_delete_ext
                0x00061ee0                OCSP_SINGLERESP_get1_ext_d2i
                0x00061f20                OCSP_SINGLERESP_add1_ext_i2d
                0x00061f70                OCSP_SINGLERESP_add_ext
                0x00061fb0                OCSP_request_add1_nonce
                0x00062100                OCSP_basic_add1_nonce
                0x00062130                OCSP_check_nonce
                0x00062200                OCSP_copy_nonce
                0x00062280                OCSP_crlID_new
                0x00062360                OCSP_accept_responses_new
                0x00062400                OCSP_archive_cutoff_new
                0x00062470                OCSP_url_svcloc_new
 *fill*         0x000625b4        0xc 
 .text          0x000625c0       0x75 libcrypto_pic.a(md5_one.pico)
                0x000625c0                MD5
 *fill*         0x00062635        0xb 
 .text          0x00062640       0x75 libcrypto_pic.a(md4_one.pico)
                0x00062640                MD4
 *fill*         0x000626b5        0xb 
 .text          0x000626c0       0x78 libcrypto_pic.a(md2_one.pico)
                0x000626c0                MD2
 *fill*         0x00062738        0x8 
 .text          0x00062740       0x5c libcrypto_pic.a(cmll_ctr.pico)
                0x00062740                Camellia_ctr128_encrypt
 *fill*         0x0006279c        0x4 
 .text          0x000627a0      0x957 libcrypto_pic.a(cts128.pico)
                0x000627a0                CRYPTO_cts128_encrypt_block
                0x00062890                CRYPTO_nistcts128_encrypt_block
                0x00062950                CRYPTO_cts128_encrypt
                0x00062a50                CRYPTO_nistcts128_encrypt
                0x00062b30                CRYPTO_cts128_decrypt_block
                0x00062c80                CRYPTO_nistcts128_decrypt_block
                0x00062e10                CRYPTO_cts128_decrypt
                0x00062f70                CRYPTO_nistcts128_decrypt
 *fill*         0x000630f7        0x9 
 .text          0x00063100      0x4dd libcrypto_pic.a(lh_stats.pico)
                0x00063100                lh_stats
                0x00063170                lh_stats_bio
                0x00063330                lh_node_stats
                0x000633e0                lh_node_stats_bio
                0x00063450                lh_node_usage_stats
                0x000634c0                lh_node_usage_stats_bio
 *fill*         0x000635dd        0x3 
 .text          0x000635e0      0x99e libcrypto_pic.a(krb5_asn.pico)
                0x000635e0                d2i_KRB5_ENCDATA
                0x00063620                i2d_KRB5_ENCDATA
                0x00063660                KRB5_ENCDATA_new
                0x00063690                KRB5_ENCDATA_free
                0x000636c0                d2i_KRB5_PRINCNAME
                0x00063700                i2d_KRB5_PRINCNAME
                0x00063740                KRB5_PRINCNAME_new
                0x00063770                KRB5_PRINCNAME_free
                0x000637a0                d2i_KRB5_TKTBODY
                0x000637e0                i2d_KRB5_TKTBODY
                0x00063820                KRB5_TKTBODY_new
                0x00063850                KRB5_TKTBODY_free
                0x00063880                d2i_KRB5_TICKET
                0x000638c0                i2d_KRB5_TICKET
                0x00063900                KRB5_TICKET_new
                0x00063930                KRB5_TICKET_free
                0x00063960                d2i_KRB5_APREQBODY
                0x000639a0                i2d_KRB5_APREQBODY
                0x000639e0                KRB5_APREQBODY_new
                0x00063a10                KRB5_APREQBODY_free
                0x00063a40                d2i_KRB5_APREQ
                0x00063a80                i2d_KRB5_APREQ
                0x00063ac0                KRB5_APREQ_new
                0x00063af0                KRB5_APREQ_free
                0x00063b20                d2i_KRB5_CHECKSUM
                0x00063b60                i2d_KRB5_CHECKSUM
                0x00063ba0                KRB5_CHECKSUM_new
                0x00063bd0                KRB5_CHECKSUM_free
                0x00063c00                d2i_KRB5_ENCKEY
                0x00063c40                i2d_KRB5_ENCKEY
                0x00063c80                KRB5_ENCKEY_new
                0x00063cb0                KRB5_ENCKEY_free
                0x00063ce0                d2i_KRB5_AUTHDATA
                0x00063d20                i2d_KRB5_AUTHDATA
                0x00063d60                KRB5_AUTHDATA_new
                0x00063d90                KRB5_AUTHDATA_free
                0x00063dc0                d2i_KRB5_AUTHENTBODY
                0x00063e00                i2d_KRB5_AUTHENTBODY
                0x00063e40                KRB5_AUTHENTBODY_new
                0x00063e70                KRB5_AUTHENTBODY_free
                0x00063ea0                d2i_KRB5_AUTHENT
                0x00063ee0                i2d_KRB5_AUTHENT
                0x00063f20                KRB5_AUTHENT_new
                0x00063f50                KRB5_AUTHENT_free
 *fill*         0x00063f7e        0x2 
 .text          0x00063f80        0x0 libcrypto_pic.a(evp_fips.pico)
 .text          0x00063f80      0xba1 libcrypto_pic.a(bio_ok.pico)
                0x00063f80                BIO_f_reliable
 *fill*         0x00064b21        0xf 
 .text          0x00064b30       0x6b libcrypto_pic.a(e_null.pico)
                0x00064b30                EVP_enc_null
 *fill*         0x00064b9b        0x5 
 .text          0x00064ba0      0x1a4 libcrypto_pic.a(p_seal.pico)
                0x00064ba0                EVP_SealInit
                0x00064ce0                EVP_SealFinal
 *fill*         0x00064d44        0xc 
 .text          0x00064d50      0x1e4 libcrypto_pic.a(p_open.pico)
                0x00064d50                EVP_OpenInit
                0x00064ed0                EVP_OpenFinal
 *fill*         0x00064f34        0xc 
 .text          0x00064f40       0xbe libcrypto_pic.a(m_md2.pico)
                0x00064f40                EVP_md2
 *fill*         0x00064ffe        0x2 
 .text          0x00065000       0x4a libcrypto_pic.a(m_null.pico)
                0x00065000                EVP_md_null
 *fill*         0x0006504a        0x6 
 .text          0x00065050       0x28 libcrypto_pic.a(evp_acnf.pico)
                0x00065050                OPENSSL_add_all_algorithms_conf
 *fill*         0x00065078        0x8 
 .text          0x00065080       0xa1 libcrypto_pic.a(err_all.pico)
                0x00065080                ERR_load_crypto_strings
 *fill*         0x00065121        0x3 
 .text          0x00065124        0x0 libcrypto_pic.a(e_ubsec_err.pico)
 .text          0x00065124        0x0 libcrypto_pic.a(e_sureware_err.pico)
 .text          0x00065124        0x0 libcrypto_pic.a(e_nuron_err.pico)
 .text          0x00065124        0x0 libcrypto_pic.a(e_gmp_err.pico)
 .text          0x00065124        0x0 libcrypto_pic.a(e_gmp.pico)
 .text          0x00065124        0x0 libcrypto_pic.a(e_cswift_err.pico)
 .text          0x00065124        0x0 libcrypto_pic.a(e_chil_err.pico)
 .text          0x00065124        0x0 libcrypto_pic.a(e_atalla_err.pico)
 .text          0x00065124        0x0 libcrypto_pic.a(e_aep_err.pico)
 .text          0x00065124        0x0 libcrypto_pic.a(e_4758cca_err.pico)
 *fill*         0x00065124        0xc 
 .text          0x00065130      0x163 libcrypto_pic.a(tb_store.pico)
                0x00065130                ENGINE_unregister_STORE
                0x00065160                ENGINE_register_STORE
                0x000651f0                ENGINE_register_all_STORE
                0x00065270                ENGINE_get_STORE
                0x00065280                ENGINE_set_STORE
 *fill*         0x00065293        0xd 
 .text          0x000652a0        0x5 libcrypto_pic.a(eng_cryptodev.pico)
                0x000652a0                ENGINE_load_cryptodev
 *fill*         0x000652a5        0xb 
 .text          0x000652b0      0x416 libcrypto_pic.a(eng_openssl.pico)
                0x000652b0                ENGINE_load_openssl
 *fill*         0x000656c6        0xa 
 .text          0x000656d0       0x57 libcrypto_pic.a(eng_err.pico)
                0x000656d0                ERR_load_ENGINE_strings
 *fill*         0x00065727        0x9 
 .text          0x00065730       0x57 libcrypto_pic.a(ecs_err.pico)
                0x00065730                ERR_load_ECDSA_strings
 *fill*         0x00065787        0x9 
 .text          0x00065790       0x57 libcrypto_pic.a(ech_err.pico)
                0x00065790                ERR_load_ECDH_strings
 *fill*         0x000657e7        0x9 
 .text          0x000657f0      0x249 libcrypto_pic.a(ec_check.pico)
                0x000657f0                EC_GROUP_check
 *fill*         0x00065a39        0x7 
 .text          0x00065a40       0x57 libcrypto_pic.a(ec_err.pico)
                0x00065a40                ERR_load_EC_strings
 *fill*         0x00065a97        0x9 
 .text          0x00065aa0        0x7 libcrypto_pic.a(dso_vms.pico)
                0x00065aa0                DSO_METHOD_vms
 *fill*         0x00065aa7        0x9 
 .text          0x00065ab0        0x7 libcrypto_pic.a(dso_win32.pico)
                0x00065ab0                DSO_METHOD_win32
 *fill*         0x00065ab7        0x9 
 .text          0x00065ac0       0x17 libcrypto_pic.a(dso_null.pico)
                0x00065ac0                DSO_METHOD_null
 *fill*         0x00065ad7        0x9 
 .text          0x00065ae0       0x57 libcrypto_pic.a(dso_err.pico)
                0x00065ae0                ERR_load_DSO_strings
 *fill*         0x00065b37        0x9 
 .text          0x00065b40        0x7 libcrypto_pic.a(dso_dl.pico)
                0x00065b40                DSO_METHOD_dl
 *fill*         0x00065b47        0x9 
 .text          0x00065b50      0x29a libcrypto_pic.a(dsa_prn.pico)
                0x00065b50                DSA_print_fp
                0x00065c30                DSA_print
                0x00065ca0                DSAparams_print_fp
                0x00065d80                DSAparams_print
 *fill*         0x00065dea        0x6 
 .text          0x00065df0       0x88 libcrypto_pic.a(dsa_depr.pico)
                0x00065df0                DSA_generate_parameters
 *fill*         0x00065e78        0x8 
 .text          0x00065e80       0x57 libcrypto_pic.a(dsa_err.pico)
                0x00065e80                ERR_load_DSA_strings
 *fill*         0x00065ed7        0x9 
 .text          0x00065ee0       0x9c libcrypto_pic.a(dh_prn.pico)
                0x00065ee0                DHparams_print_fp
 *fill*         0x00065f7c        0x4 
 .text          0x00065f80       0x73 libcrypto_pic.a(dh_depr.pico)
                0x00065f80                DH_generate_parameters
 *fill*         0x00065ff3        0xd 
 .text          0x00066000       0x57 libcrypto_pic.a(dh_err.pico)
                0x00066000                ERR_load_DH_strings
 *fill*         0x00066057        0x9 
 .text          0x00066060      0x125 libcrypto_pic.a(read2pwd.pico)
                0x00066060                DES_read_password
                0x000660f0                DES_read_2passwords
 *fill*         0x00066185        0xb 
 .text          0x00066190      0x4d2 libcrypto_pic.a(ede_cbcm_enc.pico)
                0x00066190                DES_ede3_cbcm_encrypt
 *fill*         0x00066662        0xe 
 .text          0x00066670      0x32f libcrypto_pic.a(str2key.pico)
                0x00066670                DES_string_to_key
                0x000667b0                DES_string_to_2keys
 *fill*         0x0006699f        0x1 
 .text          0x000669a0       0x86 libcrypto_pic.a(rpc_enc.pico)
                0x000669a0                _des_crypt
 *fill*         0x00066a26        0xa 
 .text          0x00066a30       0x59 libcrypto_pic.a(rand_key.pico)
                0x00066a30                DES_random_key
 *fill*         0x00066a89        0x7 
 .text          0x00066a90      0x13e libcrypto_pic.a(qud_cksm.pico)
                0x00066a90                DES_quad_cksum
 *fill*         0x00066bce        0x2 
 .text          0x00066bd0      0x333 libcrypto_pic.a(ofb_enc.pico)
                0x00066bd0                DES_ofb_encrypt
 *fill*         0x00066f03        0xd 
 .text          0x00066f10      0x304 libcrypto_pic.a(fcrypt.pico)
                0x00066f10                DES_crypt
                0x00066f50                DES_fcrypt
 *fill*         0x00067214        0xc 
 .text          0x00067220      0x22a libcrypto_pic.a(enc_writ.pico)
                0x00067220                DES_enc_write
 *fill*         0x0006744a        0x6 
 .text          0x00067450      0x3f8 libcrypto_pic.a(enc_read.pico)
                0x00067450                DES_enc_read
 *fill*         0x00067848        0x8 
 .text          0x00067850      0x427 libcrypto_pic.a(cbc_enc.pico)
                0x00067850                DES_cbc_encrypt
 *fill*         0x00067c77        0x9 
 .text          0x00067c80      0x19c libcrypto_pic.a(cbc_cksm.pico)
                0x00067c80                DES_cbc_cksum
 *fill*         0x00067e1c        0x4 
 .text          0x00067e20      0xacb libcrypto_pic.a(crypt586.pico)
                0x00067e20                fcrypt_body
 *fill*         0x000688eb        0x5 
 .text          0x000688f0       0x79 libcrypto_pic.a(o_fips.pico)
                0x000688f0                FIPS_mode
                0x00068910                FIPS_mode_set
 *fill*         0x00068969        0x7 
 .text          0x00068970      0x159 libcrypto_pic.a(o_dir.pico)
                0x00068970                OPENSSL_DIR_read
                0x00068a70                OPENSSL_DIR_end
 *fill*         0x00068ac9        0x7 
 .text          0x00068ad0       0x75 libcrypto_pic.a(o_str.pico)
                0x00068ad0                OPENSSL_strncasecmp
                0x00068af0                OPENSSL_strcasecmp
                0x00068b10                OPENSSL_memcmp
 *fill*         0x00068b45        0xb 
 .text          0x00068b50       0x40 libcrypto_pic.a(uid.pico)
                0x00068b50                OPENSSL_issetugid
 .text          0x00068b90        0x0 libcrypto_pic.a(ebcdic.pico)
 .text          0x00068b90       0x57 libcrypto_pic.a(cpt_err.pico)
                0x00068b90                ERR_load_CRYPTO_strings
 *fill*         0x00068be7        0x9 
 .text          0x00068bf0       0x3a libcrypto_pic.a(cversion.pico)
                0x00068bf0                SSLeay_version
                0x00068c20                SSLeay
 *fill*         0x00068c2a        0x6 
 .text          0x00068c30       0x68 libcrypto_pic.a(conf_sap.pico)
                0x00068c30                OPENSSL_config
                0x00068c80                OPENSSL_no_config
 *fill*         0x00068c98        0x8 
 .text          0x00068ca0       0x24 libcrypto_pic.a(conf_mall.pico)
                0x00068ca0                OPENSSL_load_builtin_modules
 *fill*         0x00068cc4        0xc 
 .text          0x00068cd0       0x57 libcrypto_pic.a(conf_err.pico)
                0x00068cd0                ERR_load_CONF_strings
 *fill*         0x00068d27        0x9 
 .text          0x00068d30       0x25 libcrypto_pic.a(c_zlib.pico)
                0x00068d30                COMP_zlib
                0x00068d50                COMP_zlib_cleanup
 *fill*         0x00068d55        0xb 
 .text          0x00068d60       0xb7 libcrypto_pic.a(c_rle.pico)
                0x00068d60                COMP_rle
 *fill*         0x00068e17        0x9 
 .text          0x00068e20       0x57 libcrypto_pic.a(comp_err.pico)
                0x00068e20                ERR_load_COMP_strings
 *fill*         0x00068e77        0x9 
 .text          0x00068e80      0x199 libcrypto_pic.a(comp_lib.pico)
                0x00068e80                COMP_CTX_new
                0x00068f20                COMP_CTX_free
                0x00068f60                COMP_compress_block
                0x00068fc0                COMP_expand_block
 *fill*         0x00069019        0x3 
 .text          0x0006901c        0x0 libcrypto_pic.a(cms_cd.pico)
 *fill*         0x0006901c        0x4 
 .text          0x00069020       0x57 libcrypto_pic.a(cms_err.pico)
                0x00069020                ERR_load_CMS_strings
 *fill*         0x00069077        0x9 
 .text          0x00069080     0x1989 libcrypto_pic.a(cms_smime.pico)
                0x00069080                CMS_data
                0x00069340                CMS_data_create
                0x000693b0                CMS_final
                0x000694e0                CMS_digest_verify
                0x00069610                CMS_digest_create
                0x000696a0                CMS_EncryptedData_decrypt
                0x000697f0                CMS_EncryptedData_encrypt
                0x000698d0                CMS_verify
                0x00069ed0                CMS_verify_receipt
                0x00069f30                CMS_sign
                0x0006a100                CMS_sign_receipt
                0x0006a2c0                CMS_encrypt
                0x0006a400                CMS_decrypt_set1_pkey
                0x0006a5b0                CMS_decrypt_set1_key
                0x0006a6f0                CMS_decrypt_set1_password
                0x0006a7e0                CMS_decrypt
                0x0006a970                CMS_uncompress
                0x0006a9c0                CMS_compress
 *fill*         0x0006aa09        0x7 
 .text          0x0006aa10       0x57 libcrypto_pic.a(buf_err.pico)
                0x0006aa10                ERR_load_BUF_strings
 *fill*         0x0006aa67        0x9 
 .text          0x0006aa70      0x5fd libcrypto_pic.a(bn_x931p.pico)
                0x0006aa70                BN_X931_derive_prime_ex
                0x0006ae80                BN_X931_generate_Xpq
                0x0006af80                BN_X931_generate_prime_ex
 *fill*         0x0006b06d        0x3 
 .text          0x0006b070      0x1f6 libcrypto_pic.a(bn_const.pico)
                0x0006b070                get_rfc2409_prime_768
                0x0006b0b0                get_rfc2409_prime_1024
                0x0006b0f0                get_rfc3526_prime_1536
                0x0006b130                get_rfc3526_prime_2048
                0x0006b170                get_rfc3526_prime_3072
                0x0006b1b0                get_rfc3526_prime_4096
                0x0006b1f0                get_rfc3526_prime_6144
                0x0006b230                get_rfc3526_prime_8192
 *fill*         0x0006b266        0xa 
 .text          0x0006b270      0x16e libcrypto_pic.a(bn_depr.pico)
                0x0006b270                BN_generate_prime
                0x0006b320                BN_is_prime
                0x0006b380                BN_is_prime_fasttest
 *fill*         0x0006b3de        0x2 
 .text          0x0006b3e0      0x1c0 libcrypto_pic.a(bn_mpi.pico)
                0x0006b3e0                BN_bn2mpi
                0x0006b480                BN_mpi2bn
 .text          0x0006b5a0       0x57 libcrypto_pic.a(bn_err.pico)
                0x0006b5a0                ERR_load_BN_strings
 *fill*         0x0006b5f7        0x9 
 .text          0x0006b600      0xaa4 libcrypto_pic.a(bss_dgram.pico)
                0x0006b600                BIO_s_datagram
                0x0006b620                BIO_new_dgram
                0x0006b680                BIO_dgram_non_fatal_error
 *fill*         0x0006c0a4        0xc 
 .text          0x0006c0b0      0xd2c libcrypto_pic.a(bss_bio.pico)
                0x0006c0b0                BIO_s_bio
                0x0006c0d0                BIO_new_bio_pair
                0x0006c1d0                BIO_ctrl_get_write_guarantee
                0x0006c210                BIO_ctrl_get_read_request
                0x0006c250                BIO_ctrl_reset_read_request
                0x0006c2a0                BIO_nread0
                0x0006c320                BIO_nread
                0x0006c3a0                BIO_nwrite0
                0x0006c420                BIO_nwrite
 *fill*         0x0006cddc        0x4 
 .text          0x0006cde0      0x205 libcrypto_pic.a(bss_log.pico)
                0x0006cde0                BIO_s_log
 *fill*         0x0006cfe5        0xb 
 .text          0x0006cff0      0x3cd libcrypto_pic.a(bf_nbio.pico)
                0x0006cff0                BIO_f_nbio_test
 *fill*         0x0006d3bd        0x3 
 .text          0x0006d3c0      0x81c libcrypto_pic.a(bss_acpt.pico)
                0x0006d3c0                BIO_s_accept
                0x0006d3e0                BIO_new_accept
 *fill*         0x0006dbdc        0x4 
 .text          0x0006dbe0      0x28d libcrypto_pic.a(bf_null.pico)
                0x0006dbe0                BIO_f_null
 *fill*         0x0006de6d        0x3 
 .text          0x0006de70      0xdf9 libcrypto_pic.a(bss_conn.pico)
                0x0006de70                BIO_CONNECT_new
                0x0006df00                BIO_CONNECT_free
                0x0006df50                BIO_s_connect
                0x0006df70                BIO_new_connect
 *fill*         0x0006ec69        0x7 
 .text          0x0006ec70      0x520 libcrypto_pic.a(bss_fd.pico)
                0x0006ec70                BIO_s_fd
                0x0006ec90                BIO_new_fd
                0x0006ecf0                BIO_fd_should_retry
                0x0006ed40                BIO_fd_non_fatal_error
 .text          0x0006f190       0x57 libcrypto_pic.a(bio_err.pico)
                0x0006f190                ERR_load_BIO_strings
 *fill*         0x0006f1e7        0x9 
 .text          0x0006f1f0      0x275 libcrypto_pic.a(bio_cb.pico)
                0x0006f1f0                BIO_debug_callback
 *fill*         0x0006f465        0xb 
 .text          0x0006f470       0xde libcrypto_pic.a(x_nx509.pico)
                0x0006f470                d2i_NETSCAPE_X509
                0x0006f4b0                i2d_NETSCAPE_X509
                0x0006f4f0                NETSCAPE_X509_new
                0x0006f520                NETSCAPE_X509_free
 *fill*         0x0006f54e        0x2 
 .text          0x0006f550      0x268 libcrypto_pic.a(asn_moid.pico)
                0x0006f550                ASN1_add_oid_module
 *fill*         0x0006f7b8        0x8 
 .text          0x0006f7c0       0x57 libcrypto_pic.a(asn1_err.pico)
                0x0006f7c0                ERR_load_ASN1_strings
 *fill*         0x0006f817        0x9 
 .text          0x0006f820      0x4bc libcrypto_pic.a(f_enum.pico)
                0x0006f820                i2a_ASN1_ENUMERATED
                0x0006f940                a2i_ASN1_ENUMERATED
 *fill*         0x0006fcdc        0x4 
 .text          0x0006fce0      0xc4e libcrypto_pic.a(n_pkey.pico)
                0x0006fce0                d2i_NETSCAPE_ENCRYPTED_PKEY
                0x0006fd20                i2d_NETSCAPE_ENCRYPTED_PKEY
                0x0006fd60                NETSCAPE_ENCRYPTED_PKEY_new
                0x0006fd90                NETSCAPE_ENCRYPTED_PKEY_free
                0x0006fdc0                d2i_NETSCAPE_PKEY
                0x0006fe00                i2d_NETSCAPE_PKEY
                0x0006fe40                NETSCAPE_PKEY_new
                0x0006fe70                NETSCAPE_PKEY_free
                0x0006fea0                i2d_Netscape_RSA
                0x0006fee0                i2d_RSA_NET
                0x00070450                d2i_Netscape_RSA
                0x000704a0                d2i_RSA_NET
 *fill*         0x0007092e        0x2 
 .text          0x00070930      0x1e4 libcrypto_pic.a(t_bitst.pico)
                0x00070930                ASN1_BIT_STRING_name_print
                0x000709f0                ASN1_BIT_STRING_set_asc
                0x00070aa0                ASN1_BIT_STRING_num_asc
 *fill*         0x00070b14        0xc 
 .text          0x00070b20      0x1d4 libcrypto_pic.a(t_spki.pico)
                0x00070b20                NETSCAPE_SPKI_print
 *fill*         0x00070cf4        0xc 
 .text          0x00070d00      0x32e libcrypto_pic.a(t_crl.pico)
                0x00070d00                X509_CRL_print_fp
                0x00070da0                X509_CRL_print
 *fill*         0x0007102e        0x2 
 .text          0x00071030      0x7af libcrypto_pic.a(t_req.pico)
                0x00071030                X509_REQ_print_fp
                0x000710e0                X509_REQ_print
                0x00071120                X509_REQ_print_ex
 *fill*         0x000717df        0x1 
 .text          0x000717e0       0x99 libcrypto_pic.a(i2d_pu.pico)
                0x000717e0                i2d_PublicKey
 *fill*         0x00071879        0x7 
 .text          0x00071880      0x1b3 libcrypto_pic.a(d2i_pu.pico)
                0x00071880                d2i_PublicKey
 *fill*         0x00071a33        0xd 
 .text          0x00071a40       0x27 libcrypto_pic.a(aes_ecb.pico)
                0x00071a40                AES_ecb_encrypt
 *fill*         0x00071a67        0x9 
 .text          0x00071a70      0xd50 libcrypto_pic.a(aes_ige.pico)
                0x00071a70                AES_ige_encrypt
                0x00072130                AES_bi_ige_encrypt
 .text          0x000727c0       0x5c libcrypto_pic.a(aes_ctr.pico)
                0x000727c0                AES_ctr128_encrypt
 *fill*         0x0007281c        0x4 
 .text          0x00072820       0x55 libcrypto_pic.a(aes_ofb.pico)
                0x00072820                AES_ofb128_encrypt
 *fill*         0x00072875        0xb 
 .text          0x00072880      0x11c libcrypto_pic.a(aes_cfb.pico)
                0x00072880                AES_cfb128_encrypt
                0x000728e0                AES_cfb1_encrypt
                0x00072940                AES_cfb8_encrypt
 *fill*         0x0007299c        0x4 
 .text          0x000729a0       0x57 libcrypto_pic.a(v3err.pico)
                0x000729a0                ERR_load_X509V3_strings
 *fill*         0x000729f7        0x9 
 .text          0x00072a00      0x97c libcrypto_pic.a(by_dir.pico)
                0x00073090                X509_LOOKUP_hash_dir
 *fill*         0x0007337c        0x4 
 .text          0x00073380      0x6ef libcrypto_pic.a(by_file.pico)
                0x00073450                X509_LOOKUP_file
                0x00073470                X509_load_cert_file
                0x000736c0                X509_load_crl_file
                0x00073910                X509_load_cert_crl_file
 *fill*         0x00073a6f        0x1 
 .text          0x00073a70      0x277 libcrypto_pic.a(x509_txt.pico)
                0x00073a70                X509_verify_cert_error_string
 *fill*         0x00073ce7        0x9 
 .text          0x00073cf0       0x57 libcrypto_pic.a(x509_err.pico)
                0x00073cf0                ERR_load_X509_strings
 *fill*         0x00073d47        0x9 
 .text          0x00073d50      0x25c libcrypto_pic.a(x509_set.pico)
                0x00073d50                X509_set_version
                0x00073db0                X509_set_serialNumber
                0x00073e10                X509_set_issuer_name
                0x00073e50                X509_set_subject_name
                0x00073e90                X509_set_notBefore
                0x00073f00                X509_set_notAfter
                0x00073f70                X509_set_pubkey
 *fill*         0x00073fac        0x4 
 .text          0x00073fb0      0x148 libcrypto_pic.a(ui_util.pico)
                0x00073fb0                UI_UTIL_read_pw_string
                0x00074020                UI_UTIL_read_pw
 *fill*         0x000740f8        0x8 
 .text          0x00074100       0x57 libcrypto_pic.a(ui_err.pico)
                0x00074100                ERR_load_UI_strings
 *fill*         0x00074157        0x9 
 .text          0x00074160      0x35b libcrypto_pic.a(ts_lib.pico)
                0x00074160                TS_ASN1_INTEGER_print_bio
                0x00074210                TS_OBJ_print_bio
                0x00074290                TS_ext_print_bio
                0x000743c0                TS_X509_ALGOR_print_bio
                0x00074420                TS_MSG_IMPRINT_print_bio
 *fill*         0x000744bb        0x5 
 .text          0x000744c0      0x57e libcrypto_pic.a(ts_req_utils.pico)
                0x000744c0                TS_REQ_set_version
                0x000744f0                TS_REQ_get_version
                0x00074520                TS_REQ_set_msg_imprint
                0x000745b0                TS_REQ_get_msg_imprint
                0x000745c0                TS_MSG_IMPRINT_set_algo
                0x00074640                TS_MSG_IMPRINT_get_algo
                0x00074650                TS_MSG_IMPRINT_set_msg
                0x00074690                TS_MSG_IMPRINT_get_msg
                0x000746a0                TS_REQ_set_policy_id
                0x00074730                TS_REQ_get_policy_id
                0x00074740                TS_REQ_set_nonce
                0x000747d0                TS_REQ_get_nonce
                0x000747e0                TS_REQ_set_cert_req
                0x00074800                TS_REQ_get_cert_req
                0x00074820                TS_REQ_get_exts
                0x00074830                TS_REQ_ext_free
                0x00074870                TS_REQ_get_ext_count
                0x000748a0                TS_REQ_get_ext_by_NID
                0x000748e0                TS_REQ_get_ext_by_OBJ
                0x00074920                TS_REQ_get_ext_by_critical
                0x00074960                TS_REQ_get_ext
                0x00074990                TS_REQ_delete_ext
                0x000749c0                TS_REQ_add_ext
                0x00074a00                TS_REQ_get_ext_d2i
 *fill*         0x00074a3e        0x2 
 .text          0x00074a40       0x57 libcrypto_pic.a(ts_err.pico)
                0x00074a40                ERR_load_TS_strings
 *fill*         0x00074a97        0x9 
 .text          0x00074aa0      0x912 libcrypto_pic.a(txt_db.pico)
                0x00074aa0                TXT_DB_read
                0x00074e50                TXT_DB_get_by_index
                0x00074eb0                TXT_DB_create_index
                0x00074fd0                TXT_DB_write
                0x00075150                TXT_DB_insert
                0x00075250                TXT_DB_free
 *fill*         0x000753b2        0xe 
 .text          0x000753c0       0x57 libcrypto_pic.a(rsa_err.pico)
                0x000753c0                ERR_load_RSA_strings
 *fill*         0x00075417        0x9 
 .text          0x00075420       0x57 libcrypto_pic.a(rand_err.pico)
                0x00075420                ERR_load_RAND_strings
 *fill*         0x00075477        0x9 
 .text          0x00075480       0x57 libcrypto_pic.a(pkcs7err.pico)
                0x00075480                ERR_load_PKCS7_strings
 *fill*         0x000754d7        0x9 
 .text          0x000754e0       0x57 libcrypto_pic.a(pk12err.pico)
                0x000754e0                ERR_load_PKCS12_strings
 *fill*         0x00075537        0x9 
 .text          0x00075540      0x566 libcrypto_pic.a(p12_mutl.pico)
                0x00075540                PKCS12_gen_mac
                0x00075730                PKCS12_verify_mac
                0x00075800                PKCS12_set_mac
                0x00075920                PKCS12_setup_mac
 *fill*         0x00075aa6        0xa 
 .text          0x00075ab0       0xf0 libcrypto_pic.a(p12_init.pico)
                0x00075ab0                PKCS12_init
 .text          0x00075ba0      0x2f7 libcrypto_pic.a(pem_xaux.pico)
                0x00075ba0                PEM_read_bio_X509_AUX
                0x00075bf0                PEM_read_X509_AUX
                0x00075c40                PEM_write_bio_X509_AUX
                0x00075cb0                PEM_write_X509_AUX
                0x00075d20                PEM_read_bio_X509_CERT_PAIR
                0x00075d70                PEM_read_X509_CERT_PAIR
                0x00075dc0                PEM_write_bio_X509_CERT_PAIR
                0x00075e30                PEM_write_X509_CERT_PAIR
 *fill*         0x00075e97        0x9 
 .text          0x00075ea0       0x57 libcrypto_pic.a(pem_err.pico)
                0x00075ea0                ERR_load_PEM_strings
 *fill*         0x00075ef7        0x9 
 .text          0x00075f00      0x896 libcrypto_pic.a(pem_info.pico)
                0x00075f00                PEM_X509_INFO_read
                0x00075fb0                PEM_X509_INFO_read_bio
                0x00076570                PEM_X509_INFO_write_bio
 *fill*         0x00076796        0xa 
 .text          0x000767a0       0x57 libcrypto_pic.a(ocsp_err.pico)
                0x000767a0                ERR_load_OCSP_strings
 *fill*         0x000767f7        0x9 
 .text          0x00076800       0x57 libcrypto_pic.a(obj_err.pico)
                0x00076800                ERR_load_OBJ_strings
 *fill*         0x00076857        0x9 
 .text          0x00076860      0x422 libcrypto_pic.a(md2_dgst.pico)
                0x00076860                MD2_options
                0x00076880                MD2_Init
                0x000768c0                MD2_Update
                0x00076b50                MD2_Final
 *fill*         0x00076c82        0xe 
 .text          0x00076c90       0x24 libcrypto_pic.a(c_all.pico)
                0x00076c90                OPENSSL_add_all_algorithms_noconf
 *fill*         0x00076cb4        0xc 
 .text          0x00076cc0       0x57 libcrypto_pic.a(evp_err.pico)
                0x00076cc0                ERR_load_EVP_strings
 *fill*         0x00076d17        0x9 
 .text          0x00076d20      0x1d6 libcrypto_pic.a(evp_cnf.pico)
                0x00076d20                EVP_add_alg_module
 *fill*         0x00076ef6        0xa 
 .text          0x00076f00       0x80 libcrypto_pic.a(p_dec.pico)
                0x00076f00                EVP_PKEY_decrypt_old
 .text          0x00076f80       0x7d libcrypto_pic.a(p_enc.pico)
                0x00076f80                EVP_PKEY_encrypt_old
 *fill*         0x00076ffd        0x3 
 .text          0x00077000      0x648 libcrypto_pic.a(eng_cnf.pico)
                0x00077000                ENGINE_add_conf_module
 *fill*         0x00077648        0x8 
 .text          0x00077650       0x60 libcrypto_pic.a(eng_all.pico)
                0x00077650                ENGINE_load_builtin_engines
 .text          0x000776b0      0x4ca libcrypto_pic.a(eng_fat.pico)
                0x000776b0                ENGINE_set_default
                0x000777d0                ENGINE_set_default_string
                0x00077a80                ENGINE_register_complete
                0x00077af0                ENGINE_register_all_complete
 *fill*         0x00077b7a        0x6 
 .text          0x00077b80      0x2f8 libcrypto_pic.a(pcbc_enc.pico)
                0x00077b80                DES_pcbc_encrypt
 *fill*         0x00077e78        0x8 
 .text          0x00077e80      0xaca libcrypto_pic.a(cms_ess.pico)
                0x00077e80                d2i_CMS_ReceiptRequest
                0x00077ec0                i2d_CMS_ReceiptRequest
                0x00077f00                CMS_ReceiptRequest_new
                0x00077f30                CMS_ReceiptRequest_free
                0x00077f60                CMS_get1_ReceiptRequest
                0x00078000                CMS_ReceiptRequest_create0
                0x00078140                CMS_add1_ReceiptRequest
                0x00078200                CMS_ReceiptRequest_get0_values
                0x00078260                cms_msgSigDigest_add1
                0x00078350                cms_Receipt_verify
                0x00078800                cms_encode_Receipt
 *fill*         0x0007894a        0x6 
 .text          0x00078950     0x106a libcrypto_pic.a(b_sock.pico)
                0x00078950                BIO_get_host_ip
                0x00078b60                BIO_sock_init
                0x00078b70                BIO_gethostbyname
                0x00078b90                BIO_get_port
                0x00078e00                BIO_sock_error
                0x00078e60                BIO_sock_cleanup
                0x00078e70                BIO_socket_ioctl
                0x00078ee0                BIO_get_accept_socket
                0x00079600                BIO_accept
                0x00079930                BIO_set_tcp_ndelay
                0x00079940                BIO_socket_nbio
 *fill*         0x000799ba        0x6 
 .text          0x000799c0      0x475 libcrypto_pic.a(bss_sock.pico)
                0x000799c0                BIO_s_socket
                0x000799e0                BIO_new_socket
                0x00079a40                BIO_sock_should_retry
                0x00079a90                BIO_sock_non_fatal_error
 *fill*         0x00079e35        0xb 
 .text          0x00079e40      0x13c libcrypto_pic.a(x_info.pico)
                0x00079e40                X509_INFO_new
                0x00079ee0                X509_INFO_free
 *fill*         0x00079f7c        0x4 
 .text          0x00079f80      0xfda libcrypto_pic.a(ts_asn1.pico)
                0x00079f80                d2i_TS_MSG_IMPRINT
                0x00079fc0                i2d_TS_MSG_IMPRINT
                0x0007a000                TS_MSG_IMPRINT_new
                0x0007a030                TS_MSG_IMPRINT_free
                0x0007a060                TS_MSG_IMPRINT_dup
                0x0007a090                d2i_TS_MSG_IMPRINT_bio
                0x0007a0d0                i2d_TS_MSG_IMPRINT_bio
                0x0007a110                d2i_TS_MSG_IMPRINT_fp
                0x0007a150                i2d_TS_MSG_IMPRINT_fp
                0x0007a190                d2i_TS_REQ
                0x0007a1d0                i2d_TS_REQ
                0x0007a210                TS_REQ_new
                0x0007a240                TS_REQ_free
                0x0007a270                TS_REQ_dup
                0x0007a2a0                d2i_TS_REQ_bio
                0x0007a2e0                i2d_TS_REQ_bio
                0x0007a320                d2i_TS_REQ_fp
                0x0007a360                i2d_TS_REQ_fp
                0x0007a3a0                d2i_TS_ACCURACY
                0x0007a3e0                i2d_TS_ACCURACY
                0x0007a420                TS_ACCURACY_new
                0x0007a450                TS_ACCURACY_free
                0x0007a480                TS_ACCURACY_dup
                0x0007a4b0                d2i_TS_TST_INFO
                0x0007a4f0                i2d_TS_TST_INFO
                0x0007a530                TS_TST_INFO_new
                0x0007a560                TS_TST_INFO_free
                0x0007a590                TS_TST_INFO_dup
                0x0007a5c0                d2i_TS_TST_INFO_bio
                0x0007a600                i2d_TS_TST_INFO_bio
                0x0007a640                d2i_TS_TST_INFO_fp
                0x0007a680                i2d_TS_TST_INFO_fp
                0x0007a6c0                d2i_TS_STATUS_INFO
                0x0007a700                i2d_TS_STATUS_INFO
                0x0007a740                TS_STATUS_INFO_new
                0x0007a770                TS_STATUS_INFO_free
                0x0007a7a0                TS_STATUS_INFO_dup
                0x0007a7d0                d2i_TS_RESP
                0x0007a810                i2d_TS_RESP
                0x0007a850                TS_RESP_new
                0x0007a880                TS_RESP_free
                0x0007a8b0                TS_RESP_dup
                0x0007a8e0                d2i_TS_RESP_bio
                0x0007a920                i2d_TS_RESP_bio
                0x0007a960                d2i_TS_RESP_fp
                0x0007a9a0                i2d_TS_RESP_fp
                0x0007a9e0                d2i_ESS_ISSUER_SERIAL
                0x0007aa20                i2d_ESS_ISSUER_SERIAL
                0x0007aa60                ESS_ISSUER_SERIAL_new
                0x0007aa90                ESS_ISSUER_SERIAL_free
                0x0007aac0                ESS_ISSUER_SERIAL_dup
                0x0007aaf0                d2i_ESS_CERT_ID
                0x0007ab30                i2d_ESS_CERT_ID
                0x0007ab70                ESS_CERT_ID_new
                0x0007aba0                ESS_CERT_ID_free
                0x0007abd0                ESS_CERT_ID_dup
                0x0007ac00                d2i_ESS_SIGNING_CERT
                0x0007ac40                i2d_ESS_SIGNING_CERT
                0x0007ac80                ESS_SIGNING_CERT_new
                0x0007acb0                ESS_SIGNING_CERT_free
                0x0007ace0                ESS_SIGNING_CERT_dup
                0x0007ad10                PKCS7_to_TS_TST_INFO
 *fill*         0x0007af5a        0x6 
 .text          0x0007af60      0x177 libcrypto_pic.a(pem_x509.pico)
                0x0007af60                PEM_read_bio_X509
                0x0007afb0                PEM_read_X509
                0x0007b000                PEM_write_bio_X509
                0x0007b070                PEM_write_X509
 *fill*         0x0007b0d7        0x9 
 .text          0x0007b0e0     0x1877 libcrypto_pic.a(pem_all.pico)
                0x0007b0e0                PEM_read_bio_X509_REQ
                0x0007b130                PEM_read_X509_REQ
                0x0007b180                PEM_write_bio_X509_REQ
                0x0007b1f0                PEM_write_X509_REQ
                0x0007b260                PEM_write_bio_X509_REQ_NEW
                0x0007b2d0                PEM_write_X509_REQ_NEW
                0x0007b340                PEM_read_bio_X509_CRL
                0x0007b390                PEM_read_X509_CRL
                0x0007b3e0                PEM_write_bio_X509_CRL
                0x0007b450                PEM_write_X509_CRL
                0x0007b4c0                PEM_read_bio_PKCS7
                0x0007b510                PEM_read_PKCS7
                0x0007b560                PEM_write_bio_PKCS7
                0x0007b5d0                PEM_write_PKCS7
                0x0007b640                PEM_read_bio_NETSCAPE_CERT_SEQUENCE
                0x0007b690                PEM_read_NETSCAPE_CERT_SEQUENCE
                0x0007b6e0                PEM_write_bio_NETSCAPE_CERT_SEQUENCE
                0x0007b750                PEM_write_NETSCAPE_CERT_SEQUENCE
                0x0007b7c0                PEM_read_bio_RSAPrivateKey
                0x0007b840                PEM_read_RSAPrivateKey
                0x0007b8c0                PEM_write_bio_RSAPrivateKey
                0x0007b930                PEM_write_RSAPrivateKey
                0x0007b9a0                PEM_read_bio_RSAPublicKey
                0x0007b9f0                PEM_read_RSAPublicKey
                0x0007ba40                PEM_write_bio_RSAPublicKey
                0x0007bab0                PEM_write_RSAPublicKey
                0x0007bb20                PEM_read_bio_RSA_PUBKEY
                0x0007bb70                PEM_read_RSA_PUBKEY
                0x0007bbc0                PEM_write_bio_RSA_PUBKEY
                0x0007bc30                PEM_write_RSA_PUBKEY
                0x0007bca0                PEM_read_bio_DSAPrivateKey
                0x0007bd20                PEM_write_bio_DSAPrivateKey
                0x0007bd90                PEM_write_DSAPrivateKey
                0x0007be00                PEM_read_bio_DSA_PUBKEY
                0x0007be50                PEM_read_DSA_PUBKEY
                0x0007bea0                PEM_write_bio_DSA_PUBKEY
                0x0007bf10                PEM_write_DSA_PUBKEY
                0x0007bf80                PEM_read_DSAPrivateKey
                0x0007c000                PEM_read_bio_DSAparams
                0x0007c050                PEM_read_DSAparams
                0x0007c0a0                PEM_write_bio_DSAparams
                0x0007c110                PEM_write_DSAparams
                0x0007c180                PEM_read_bio_ECPrivateKey
                0x0007c200                PEM_read_bio_ECPKParameters
                0x0007c250                PEM_read_ECPKParameters
                0x0007c2a0                PEM_write_bio_ECPKParameters
                0x0007c310                PEM_write_ECPKParameters
                0x0007c380                PEM_write_bio_ECPrivateKey
                0x0007c3f0                PEM_write_ECPrivateKey
                0x0007c460                PEM_read_bio_EC_PUBKEY
                0x0007c4b0                PEM_read_EC_PUBKEY
                0x0007c500                PEM_write_bio_EC_PUBKEY
                0x0007c570                PEM_write_EC_PUBKEY
                0x0007c5e0                PEM_read_ECPrivateKey
                0x0007c660                PEM_read_bio_DHparams
                0x0007c6b0                PEM_read_DHparams
                0x0007c700                PEM_write_bio_DHparams
                0x0007c770                PEM_write_DHparams
                0x0007c7e0                PEM_read_bio_PUBKEY
                0x0007c830                PEM_read_PUBKEY
                0x0007c880                PEM_write_bio_PUBKEY
                0x0007c8f0                PEM_write_PUBKEY
 *fill*         0x0007c957        0x9 
 .text          0x0007c960      0x1d9 libcrypto_pic.a(c_alld.pico)
                0x0007c960                OpenSSL_add_all_digests
 *fill*         0x0007cb39        0x7 
 .text          0x0007cb40      0x87b libcrypto_pic.a(c_allc.pico)
                0x0007cb40                OpenSSL_add_all_ciphers
 *fill*         0x0007d3bb        0x5 
 .text          0x0007d3c0       0xbe libcrypto_pic.a(m_ripemd.pico)
                0x0007d3c0                EVP_ripemd160
 *fill*         0x0007d47e        0x2 
 .text          0x0007d480       0xbe libcrypto_pic.a(m_mdc2.pico)
                0x0007d480                EVP_mdc2
 *fill*         0x0007d53e        0x2 
 .text          0x0007d540       0xbe libcrypto_pic.a(m_dss1.pico)
                0x0007d540                EVP_dss1
 *fill*         0x0007d5fe        0x2 
 .text          0x0007d600       0xbe libcrypto_pic.a(m_dss.pico)
                0x0007d600                EVP_dss
 *fill*         0x0007d6be        0x2 
 .text          0x0007d6c0       0xbe libcrypto_pic.a(m_sha.pico)
                0x0007d6c0                EVP_sha
 *fill*         0x0007d77e        0x2 
 .text          0x0007d780       0xbe libcrypto_pic.a(m_md4.pico)
                0x0007d780                EVP_md4
 *fill*         0x0007d83e        0x2 
 .text          0x0007d840      0x4f1 libcrypto_pic.a(e_rc5.pico)
                0x0007d840                EVP_rc5_32_12_16_cbc
                0x0007d860                EVP_rc5_32_12_16_cfb64
                0x0007d880                EVP_rc5_32_12_16_ofb
                0x0007d8a0                EVP_rc5_32_12_16_ecb
 *fill*         0x0007dd31        0xf 
 .text          0x0007dd40      0x41b libcrypto_pic.a(e_cast.pico)
                0x0007dd40                EVP_cast5_cbc
                0x0007dd60                EVP_cast5_cfb64
                0x0007dd80                EVP_cast5_ofb
                0x0007dda0                EVP_cast5_ecb
 *fill*         0x0007e15b        0x5 
 .text          0x0007e160      0x706 libcrypto_pic.a(e_rc2.pico)
                0x0007e160                EVP_rc2_cbc
                0x0007e180                EVP_rc2_cfb64
                0x0007e1a0                EVP_rc2_ofb
                0x0007e1c0                EVP_rc2_ecb
                0x0007e1e0                EVP_rc2_64_cbc
                0x0007e200                EVP_rc2_40_cbc
 *fill*         0x0007e866        0xa 
 .text          0x0007e870      0x1d5 libcrypto_pic.a(e_xcbc_d.pico)
                0x0007e870                EVP_desx_cbc
 *fill*         0x0007ea45        0xb 
 .text          0x0007ea50     0x115b libcrypto_pic.a(e_camellia.pico)
                0x0007ea50                EVP_camellia_128_cbc
                0x0007ea70                EVP_camellia_128_cfb128
                0x0007ea90                EVP_camellia_128_ofb
                0x0007eab0                EVP_camellia_128_ecb
                0x0007ead0                EVP_camellia_192_cbc
                0x0007eaf0                EVP_camellia_192_cfb128
                0x0007eb10                EVP_camellia_192_ofb
                0x0007eb30                EVP_camellia_192_ecb
                0x0007eb50                EVP_camellia_256_cbc
                0x0007eb70                EVP_camellia_256_cfb128
                0x0007eb90                EVP_camellia_256_ofb
                0x0007ebb0                EVP_camellia_256_ecb
                0x0007ebd0                EVP_camellia_128_cfb1
                0x0007ebf0                EVP_camellia_192_cfb1
                0x0007ec10                EVP_camellia_256_cfb1
                0x0007ec30                EVP_camellia_128_cfb8
                0x0007ec50                EVP_camellia_192_cfb8
                0x0007ec70                EVP_camellia_256_cfb8
 *fill*         0x0007fbab        0x5 
 .text          0x0007fbb0     0x2013 libcrypto_pic.a(e_aes.pico)
                0x0007fbb0                EVP_aes_128_cbc
                0x0007fbe0                EVP_aes_128_ecb
                0x0007fc10                EVP_aes_128_ofb
                0x0007fc40                EVP_aes_128_cfb128
                0x0007fc70                EVP_aes_128_cfb1
                0x0007fca0                EVP_aes_128_cfb8
                0x0007fcd0                EVP_aes_128_ctr
                0x0007fd00                EVP_aes_192_cbc
                0x0007fd30                EVP_aes_192_ecb
                0x0007fd60                EVP_aes_192_ofb
                0x0007fd90                EVP_aes_192_cfb128
                0x0007fdc0                EVP_aes_192_cfb1
                0x0007fdf0                EVP_aes_192_cfb8
                0x0007fe20                EVP_aes_192_ctr
                0x0007fe50                EVP_aes_256_cbc
                0x0007fe80                EVP_aes_256_ecb
                0x0007feb0                EVP_aes_256_ofb
                0x0007fee0                EVP_aes_256_cfb128
                0x0007ff10                EVP_aes_256_cfb1
                0x0007ff40                EVP_aes_256_cfb8
                0x0007ff70                EVP_aes_256_ctr
                0x0007ffa0                EVP_aes_128_gcm
                0x0007ffd0                EVP_aes_192_gcm
                0x00080000                EVP_aes_256_gcm
                0x00080030                EVP_aes_128_xts
                0x00080060                EVP_aes_256_xts
                0x00080090                EVP_aes_128_ccm
                0x000800c0                EVP_aes_192_ccm
                0x000800f0                EVP_aes_256_ccm
 *fill*         0x00081bc3        0xd 
 .text          0x00081bd0       0xd3 libcrypto_pic.a(e_rc4.pico)
                0x00081bd0                EVP_rc4
                0x00081bf0                EVP_rc4_40
 *fill*         0x00081ca3        0xd 
 .text          0x00081cb0      0x99c libcrypto_pic.a(e_des3.pico)
                0x00081cb0                EVP_des_ede_cbc
                0x00081cd0                EVP_des_ede_cfb64
                0x00081cf0                EVP_des_ede_ofb
                0x00081d10                EVP_des_ede_ecb
                0x00081d30                EVP_des_ede3_cbc
                0x00081d50                EVP_des_ede3_cfb64
                0x00081d70                EVP_des_ede3_ofb
                0x00081d90                EVP_des_ede3_ecb
                0x00081db0                EVP_des_ede3_cfb1
                0x00081dd0                EVP_des_ede3_cfb8
                0x00081df0                EVP_des_ede
                0x00081e10                EVP_des_ede3
 *fill*         0x0008264c        0x4 
 .text          0x00082650      0x46b libcrypto_pic.a(e_idea.pico)
                0x00082650                EVP_idea_cbc
                0x00082670                EVP_idea_cfb64
                0x00082690                EVP_idea_ofb
                0x000826b0                EVP_idea_ecb
 *fill*         0x00082abb        0x5 
 .text          0x00082ac0      0x41b libcrypto_pic.a(e_bf.pico)
                0x00082ac0                EVP_bf_cbc
                0x00082ae0                EVP_bf_cfb64
                0x00082b00                EVP_bf_ofb
                0x00082b20                EVP_bf_ecb
 *fill*         0x00082edb        0x5 
 .text          0x00082ee0      0x74b libcrypto_pic.a(e_des.pico)
                0x00082ee0                EVP_des_cbc
                0x00082f00                EVP_des_cfb64
                0x00082f20                EVP_des_ofb
                0x00082f40                EVP_des_ecb
                0x00082f60                EVP_des_cfb1
                0x00082f80                EVP_des_cfb8
 *fill*         0x0008362b        0x5 
 .text          0x00083630      0x5ba libcrypto_pic.a(gost_eng.pico)
                0x00083630                ENGINE_load_gost
 *fill*         0x00083bea        0x6 
 .text          0x00083bf0      0x40b libcrypto_pic.a(e_seed.pico)
                0x00083bf0                EVP_seed_cbc
                0x00083c10                EVP_seed_cfb128
                0x00083c30                EVP_seed_ofb
                0x00083c50                EVP_seed_ecb
 *fill*         0x00083ffb        0x5 
 .text          0x00084000      0xf02 libcrypto_pic.a(e_padlock.pico)
                0x00084000                ENGINE_load_padlock
 *fill*         0x00084f02        0xe 
 .text          0x00084f10     0x1afd libcrypto_pic.a(e_ubsec.pico)
                0x00084f10                ENGINE_load_ubsec
 *fill*         0x00086a0d        0x3 
 .text          0x00086a10     0x2013 libcrypto_pic.a(e_sureware.pico)
                0x00086a10                ENGINE_load_sureware
 *fill*         0x00088a23        0xd 
 .text          0x00088a30      0x993 libcrypto_pic.a(e_nuron.pico)
                0x00088a30                ENGINE_load_nuron
 *fill*         0x000893c3        0xd 
 .text          0x000893d0     0x223e libcrypto_pic.a(e_cswift.pico)
                0x000893d0                ENGINE_load_cswift
 *fill*         0x0008b60e        0x2 
 .text          0x0008b610     0x1f42 libcrypto_pic.a(e_chil.pico)
                0x0008b610                ENGINE_load_chil
 *fill*         0x0008d552        0xe 
 .text          0x0008d560      0xccc libcrypto_pic.a(e_atalla.pico)
                0x0008d560                ENGINE_load_atalla
 *fill*         0x0008e22c        0x4 
 .text          0x0008e230     0x136c libcrypto_pic.a(e_aep.pico)
                0x0008e230                ENGINE_load_aep
 *fill*         0x0008f59c        0x4 
 .text          0x0008f5a0     0x1b12 libcrypto_pic.a(e_4758cca.pico)
                0x0008f5a0                ENGINE_load_4758cca
 *fill*         0x000910b2        0xe 
 .text          0x000910c0        0x5 libcrypto_pic.a(eng_rsax.pico)
                0x000910c0                ENGINE_load_rsax
 *fill*         0x000910c5        0xb 
 .text          0x000910d0      0x16a libcrypto_pic.a(eng_rdrand.pico)
                0x000910d0                ENGINE_load_rdrand
 *fill*         0x0009123a        0x6 
 .text          0x00091240      0x9a8 libcrypto_pic.a(eng_dyn.pico)
                0x00091240                ENGINE_load_dynamic
 *fill*         0x00091be8        0x8 
 .text          0x00091bf0      0x40c libcrypto_pic.a(eng_pkey.pico)
                0x00091bf0                ENGINE_set_load_privkey_function
                0x00091c10                ENGINE_set_load_pubkey_function
                0x00091c30                ENGINE_set_load_ssl_client_cert_function
                0x00091c50                ENGINE_get_load_privkey_function
                0x00091c60                ENGINE_get_load_pubkey_function
                0x00091c70                ENGINE_get_ssl_client_cert_function
                0x00091c80                ENGINE_load_private_key
                0x00091dc0                ENGINE_load_public_key
                0x00091f00                ENGINE_load_ssl_client_cert
 *fill*         0x00091ffc        0x4 
 .text          0x00092000      0x199 libcrypto_pic.a(ofb64ede.pico)
                0x00092000                DES_ede3_ofb64_encrypt
 *fill*         0x00092199        0x7 
 .text          0x000921a0      0x9e5 libcrypto_pic.a(cfb64ede.pico)
                0x000921a0                DES_ede3_cfb64_encrypt
                0x00092390                DES_ede3_cfb_encrypt
 *fill*         0x00092b85        0xb 
 .text          0x00092b90      0x567 libcrypto_pic.a(xcbc_enc.pico)
                0x00092b90                DES_xcbc_encrypt
 *fill*         0x000930f7        0x9 
 .text          0x00093100      0x18d libcrypto_pic.a(ofb64enc.pico)
                0x00093100                DES_ofb64_encrypt
 *fill*         0x0009328d        0x3 
 .text          0x00093290      0x12a libcrypto_pic.a(ecb_enc.pico)
                0x00093290                DES_options
                0x00093310                DES_ecb_encrypt
 *fill*         0x000933ba        0x6 
 .text          0x000933c0       0xd2 libcrypto_pic.a(ecb3_enc.pico)
                0x000933c0                DES_ecb3_encrypt
 *fill*         0x00093492        0xe 
 .text          0x000934a0      0x8e0 libcrypto_pic.a(cfb_enc.pico)
                0x000934a0                DES_cfb_encrypt
 .text          0x00093d80      0x1db libcrypto_pic.a(cfb64enc.pico)
                0x00093d80                DES_cfb64_encrypt
 *fill*         0x00093f5b        0x5 
 .text          0x00093f60      0x17b libcrypto_pic.a(c_ofb64.pico)
                0x00093f60                CAST_ofb64_encrypt
 *fill*         0x000940db        0x5 
 .text          0x000940e0      0x1d7 libcrypto_pic.a(c_cfb64.pico)
                0x000940e0                CAST_cfb64_encrypt
 *fill*         0x000942b7        0x9 
 .text          0x000942c0       0xc0 libcrypto_pic.a(c_ecb.pico)
                0x000942c0                CAST_ecb_encrypt
 .text          0x00094380      0xc80 libcrypto_pic.a(c_enc.pico)
                0x00094380                CAST_encrypt
                0x00094790                CAST_decrypt
                0x00094bc0                CAST_cbc_encrypt
 .text          0x00095000      0x17b libcrypto_pic.a(bf_ofb64.pico)
                0x00095000                BF_ofb64_encrypt
 *fill*         0x0009517b        0x5 
 .text          0x00095180      0x1d7 libcrypto_pic.a(bf_cfb64.pico)
                0x00095180                BF_cfb64_encrypt
 *fill*         0x00095357        0x9 
 .text          0x00095360       0xe0 libcrypto_pic.a(bf_ecb.pico)
                0x00095360                BF_options
                0x00095380                BF_ecb_encrypt
 .text          0x00095440      0x1e0 libcrypto_pic.a(bf_skey.pico)
                0x00095440                BF_set_key
 *fill*         0x00095620       0x20 
 .text          0x00095640      0xa40 libcrypto_pic.a(bf-586.pico)
                0x00095640                BF_encrypt
                0x00095a60                BF_decrypt
                0x00095e80                BF_cbc_encrypt
 .text          0x00096080      0x4e3 libcrypto_pic.a(x_pkey.pico)
                0x00096080                i2d_X509_PKEY
                0x00096090                d2i_X509_PKEY
                0x000963d0                X509_PKEY_new
                0x000964c0                X509_PKEY_free
 *fill*         0x00096563        0xd 
 .text          0x00096570      0x117 libcrypto_pic.a(nsseq.pico)
                0x00096570                d2i_NETSCAPE_CERT_SEQUENCE
                0x000965b0                i2d_NETSCAPE_CERT_SEQUENCE
                0x000965f0                NETSCAPE_CERT_SEQUENCE_new
                0x00096620                NETSCAPE_CERT_SEQUENCE_free
 *fill*         0x00096687        0x9 
 .text          0x00096690     0x1e5a libcrypto_pic.a(aesni-x86.pico)
                0x00096690                aesni_encrypt
                0x000966d0                aesni_decrypt
                0x00096ab0                aesni_ecb_encrypt
                0x00096e00                aesni_ccm64_encrypt_blocks
                0x00096f00                aesni_ccm64_decrypt_blocks
                0x00097070                aesni_ctr32_encrypt_blocks
                0x000973d0                aesni_xts_encrypt
                0x000978f0                aesni_xts_decrypt
                0x00097e80                aesni_cbc_encrypt
                0x00098430                aesni_set_encrypt_key
                0x00098450                aesni_set_decrypt_key
 *fill*         0x000984ea        0x6 
 .text          0x000984f0      0x185 libcrypto_pic.a(rc5ofb64.pico)
                0x000984f0                RC5_32_ofb64_encrypt
 *fill*         0x00098675        0xb 
 .text          0x00098680      0x1d3 libcrypto_pic.a(rc5cfb64.pico)
                0x00098680                RC5_32_cfb64_encrypt
 *fill*         0x00098853        0xd 
 .text          0x00098860       0xbc libcrypto_pic.a(rc5_ecb.pico)
                0x00098860                RC5_32_ecb_encrypt
 *fill*         0x0009891c        0x4 
 .text          0x00098920       0x55 libcrypto_pic.a(seed_ofb.pico)
                0x00098920                SEED_ofb128_encrypt
 *fill*         0x00098975        0xb 
 .text          0x00098980       0x5c libcrypto_pic.a(seed_cfb.pico)
                0x00098980                SEED_cfb128_encrypt
 *fill*         0x000989dc        0x4 
 .text          0x000989e0       0x7b libcrypto_pic.a(seed_cbc.pico)
                0x000989e0                SEED_cbc_encrypt
 *fill*         0x00098a5b        0x5 
 .text          0x00098a60       0x27 libcrypto_pic.a(seed_ecb.pico)
                0x00098a60                SEED_ecb_encrypt
 *fill*         0x00098a87        0x9 
 .text          0x00098a90     0x22f0 libcrypto_pic.a(seed.pico)
                0x00098a90                SEED_set_key
                0x00099560                SEED_encrypt
                0x0009a170                SEED_decrypt
 .text          0x0009ad80      0x3de libcrypto_pic.a(mdc2dgst.pico)
                0x0009ad80                MDC2_Init
                0x0009adc0                MDC2_Update
                0x0009b0d0                MDC2_Final
 *fill*         0x0009b15e        0x2 
 .text          0x0009b160      0x2be libcrypto_pic.a(i_skey.pico)
                0x0009b160                idea_set_encrypt_key
                0x0009b2c0                idea_set_decrypt_key
 *fill*         0x0009b41e        0x2 
 .text          0x0009b420       0xc9 libcrypto_pic.a(i_ecb.pico)
                0x0009b420                idea_options
                0x0009b440                idea_ecb_encrypt
 *fill*         0x0009b4e9        0x7 
 .text          0x0009b4f0      0x17b libcrypto_pic.a(i_ofb64.pico)
                0x0009b4f0                idea_ofb64_encrypt
 *fill*         0x0009b66b        0x5 
 .text          0x0009b670      0x1d7 libcrypto_pic.a(i_cfb64.pico)
                0x0009b670                idea_cfb64_encrypt
 *fill*         0x0009b847        0x9 
 .text          0x0009b850     0x14cc libcrypto_pic.a(sha_dgst.pico)
                0x0009b850                SHA_Update
                0x0009cbc0                SHA_Transform
                0x0009cbf0                SHA_Final
                0x0009cce0                SHA_Init
 *fill*         0x0009cd1c        0x4 
 .text          0x0009cd20     0x134c libcrypto_pic.a(rmd_dgst.pico)
                0x0009cd20                RIPEMD160_Update
                0x0009ce50                ripemd160_block_data_order
                0x0009df10                RIPEMD160_Transform
                0x0009df50                RIPEMD160_Final
                0x0009e030                RIPEMD160_Init
 *fill*         0x0009e06c        0x4 
 .text          0x0009e070      0x185 libcrypto_pic.a(rc2ofb64.pico)
                0x0009e070                RC2_ofb64_encrypt
 *fill*         0x0009e1f5        0xb 
 .text          0x0009e200      0x1d3 libcrypto_pic.a(rc2cfb64.pico)
                0x0009e200                RC2_cfb64_encrypt
 *fill*         0x0009e3d3        0xd 
 .text          0x0009e3e0      0x17f libcrypto_pic.a(rc2_skey.pico)
                0x0009e3e0                RC2_set_key
 *fill*         0x0009e55f        0x1 
 .text          0x0009e560       0xbc libcrypto_pic.a(rc2_ecb.pico)
                0x0009e560                RC2_ecb_encrypt
 *fill*         0x0009e61c        0x4 
 .text          0x0009e620      0x71c libcrypto_pic.a(pem_pkey.pico)
                0x0009e620                PEM_read_bio_PrivateKey
                0x0009e8c0                PEM_write_bio_PrivateKey
                0x0009e990                PEM_read_bio_Parameters
                0x0009ead0                PEM_write_bio_Parameters
                0x0009eb70                PEM_read_PrivateKey
                0x0009ec20                PEM_write_PrivateKey
 *fill*         0x0009ed3c        0x4 
 .text          0x0009ed40      0xbd7 libcrypto_pic.a(pem_pk8.pico)
                0x0009ed40                PEM_write_bio_PKCS8PrivateKey_nid
                0x0009f070                PEM_write_bio_PKCS8PrivateKey
                0x0009f0d0                i2d_PKCS8PrivateKey_bio
                0x0009f130                i2d_PKCS8PrivateKey_nid_bio
                0x0009f190                d2i_PKCS8PrivateKey_bio
                0x0009f2c0                i2d_PKCS8PrivateKey_fp
                0x0009f370                i2d_PKCS8PrivateKey_nid_fp
                0x0009f420                PEM_write_PKCS8PrivateKey_nid
                0x0009f4d0                PEM_write_PKCS8PrivateKey
                0x0009f580                d2i_PKCS8PrivateKey_fp
                0x0009f620                PEM_read_bio_PKCS8
                0x0009f670                PEM_read_PKCS8
                0x0009f6c0                PEM_write_bio_PKCS8
                0x0009f730                PEM_write_PKCS8
                0x0009f7a0                PEM_read_bio_PKCS8_PRIV_KEY_INFO
                0x0009f7f0                PEM_read_PKCS8_PRIV_KEY_INFO
                0x0009f840                PEM_write_bio_PKCS8_PRIV_KEY_INFO
                0x0009f8b0                PEM_write_PKCS8_PRIV_KEY_INFO
 *fill*         0x0009f917        0x9 
 .text          0x0009f920      0x735 libcrypto_pic.a(md4_dgst.pico)
                0x0009f920                MD4_Update
                0x0009fa50                md4_block_data_order
                0x0009ff00                MD4_Transform
                0x0009ff40                MD4_Final
                0x000a0020                MD4_Init
 *fill*         0x000a0055        0xb 
 .text          0x000a0060       0x18 libcrypto_pic.a(cmll_utl.pico)
                0x000a0060                Camellia_set_key
 *fill*         0x000a0078        0x8 
 .text          0x000a0080       0x55 libcrypto_pic.a(cmll_ofb.pico)
                0x000a0080                Camellia_ofb128_encrypt
 *fill*         0x000a00d5        0xb 
 .text          0x000a00e0      0x11c libcrypto_pic.a(cmll_cfb.pico)
                0x000a00e0                Camellia_cfb128_encrypt
                0x000a0140                Camellia_cfb1_encrypt
                0x000a01a0                Camellia_cfb8_encrypt
 *fill*         0x000a01fc        0x4 
 .text          0x000a0200       0x27 libcrypto_pic.a(cmll_ecb.pico)
                0x000a0200                Camellia_ecb_encrypt
 *fill*         0x000a0227        0x9 
 .text          0x000a0230       0x7b libcrypto_pic.a(cmll_cbc.pico)
                0x000a0230                Camellia_cbc_encrypt
 *fill*         0x000a02ab        0x5 
 .text          0x000a02b0      0x3d2 libcrypto_pic.a(xts128.pico)
                0x000a02b0                CRYPTO_xts128_encrypt
 *fill*         0x000a0682        0xe 
 .text          0x000a0690      0xc99 libcrypto_pic.a(ccm128.pico)
                0x000a0690                CRYPTO_ccm128_init
                0x000a06f0                CRYPTO_ccm128_setiv
                0x000a0770                CRYPTO_ccm128_aad
                0x000a08a0                CRYPTO_ccm128_encrypt
                0x000a0b90                CRYPTO_ccm128_decrypt
                0x000a0e30                CRYPTO_ccm128_encrypt_ccm64
                0x000a10b0                CRYPTO_ccm128_decrypt_ccm64
                0x000a12e0                CRYPTO_ccm128_tag
 *fill*         0x000a1329        0x7 
 .text          0x000a1330     0x190d libcrypto_pic.a(gcm128.pico)
                0x000a1330                CRYPTO_gcm128_init
                0x000a1790                CRYPTO_gcm128_setiv
                0x000a1a80                CRYPTO_gcm128_aad
                0x000a1bb0                CRYPTO_gcm128_encrypt
                0x000a1fe0                CRYPTO_gcm128_decrypt
                0x000a2400                CRYPTO_gcm128_encrypt_ctr32
                0x000a2700                CRYPTO_gcm128_decrypt_ctr32
                0x000a2a30                CRYPTO_gcm128_finish
                0x000a2b40                CRYPTO_gcm128_tag
                0x000a2ba0                CRYPTO_gcm128_new
                0x000a2c00                CRYPTO_gcm128_release
 *fill*         0x000a2c3d        0x3 
 .text          0x000a2c40      0x13e libcrypto_pic.a(ofb128.pico)
                0x000a2c40                CRYPTO_ofb128_encrypt
 *fill*         0x000a2d7e        0x2 
 .text          0x000a2d80      0x586 libcrypto_pic.a(cfb128.pico)
                0x000a2d80                CRYPTO_cfb128_encrypt
                0x000a3060                CRYPTO_cfb128_1_encrypt
                0x000a3240                CRYPTO_cfb128_8_encrypt
 *fill*         0x000a3306        0xa 
 .text          0x000a3310      0x356 libcrypto_pic.a(ctr128.pico)
                0x000a3310                CRYPTO_ctr128_encrypt
                0x000a34a0                CRYPTO_ctr128_encrypt_ctr32
 *fill*         0x000a3666        0xa 
 .text          0x000a3670      0x494 libcrypto_pic.a(cbc128.pico)
                0x000a3670                CRYPTO_cbc128_encrypt
                0x000a3850                CRYPTO_cbc128_decrypt
 *fill*         0x000a3b04       0x3c 
 .text          0x000a3b40     0x14f1 libcrypto_pic.a(ghash-x86.pico)
                0x000a3b40                gcm_gmult_4bit_x86
                0x000a3c90                gcm_ghash_4bit_x86
                0x000a3e20                gcm_gmult_4bit_mmx
                0x000a3f40                gcm_ghash_4bit_mmx
                0x000a4850                gcm_init_clmul
                0x000a4940                gcm_gmult_clmul
                0x000a4a10                gcm_ghash_clmul
 *fill*         0x000a5031        0xf 
 .text          0x000a5040      0x48d libcrypto_pic.a(e_rc4_hmac_md5.pico)
                0x000a5040                EVP_rc4_hmac_md5
 *fill*         0x000a54cd        0x3 
 .text          0x000a54d0       0x17 libcrypto_pic.a(e_aes_cbc_hmac_sha1.pico)
                0x000a54d0                EVP_aes_128_cbc_hmac_sha1
                0x000a54e0                EVP_aes_256_cbc_hmac_sha1
 *fill*         0x000a54e7        0x9 
 .text          0x000a54f0       0xbe libcrypto_pic.a(m_wp.pico)
                0x000a54f0                EVP_whirlpool
 *fill*         0x000a55ae        0x2 
 .text          0x000a55b0       0xbe libcrypto_pic.a(m_ecdsa.pico)
                0x000a55b0                EVP_ecdsa
 *fill*         0x000a566e        0x2 
 .text          0x000a5670     0x11fd libcrypto_pic.a(gost_pmeth.pico)
                0x000a5670                register_pmeth_gost
 *fill*         0x000a686d        0x3 
 .text          0x000a6870      0x150 libcrypto_pic.a(gost_md.pico)
 .text          0x000a69c0      0x941 libcrypto_pic.a(gost94_keyx.pico)
                0x000a69c0                pkey_gost94_derive
                0x000a6b90                pkey_GOST94cp_encrypt
                0x000a6fc0                pkey_GOST94cp_decrypt
 *fill*         0x000a7301        0xf 
 .text          0x000a7310      0xafe libcrypto_pic.a(gost2001_keyx.pico)
                0x000a7310                pkey_gost2001_derive
                0x000a7660                pkey_GOST01cp_encrypt
                0x000a7a90                pkey_GOST01cp_decrypt
 *fill*         0x000a7e0e        0x2 
 .text          0x000a7e10      0x6f2 libcrypto_pic.a(set_key.pico)
                0x000a7e10                DES_set_odd_parity
                0x000a7ea0                DES_check_key_parity
                0x000a7f40                DES_is_weak_key
                0x000a8180                DES_set_key
                0x000a81f0                DES_set_key_checked
                0x000a8250                DES_set_key_unchecked
                0x000a84a0                DES_key_sched
 *fill*         0x000a8502       0x3e 
 .text          0x000a8540     0x1dc0 libcrypto_pic.a(des-586.pico)
                0x000a9380                DES_encrypt1
                0x000a9470                DES_encrypt2
                0x000a94c0                DES_encrypt3
                0x000a95f0                DES_decrypt3
                0x000a9720                DES_ncbc_encrypt
                0x000a9900                DES_ede3_cbc_encrypt
                0x000a9b00                DES_SPtrans
 .text          0x000aa300      0xccc libcrypto_pic.a(c_skey.pico)
                0x000aa300                CAST_set_key
 *fill*         0x000aafcc        0x4 
 .text          0x000aafd0      0x76d libcrypto_pic.a(wp_dgst.pico)
                0x000aafd0                WHIRLPOOL_Init
                0x000ab010                WHIRLPOOL_Update
                0x000ab0c0                WHIRLPOOL_BitUpdate
                0x000ab460                WHIRLPOOL_Final
                0x000ab640                WHIRLPOOL
 *fill*         0x000ab73d        0x3 
 .text          0x000ab740     0x1cfc libcrypto_pic.a(wp_block.pico)
                0x000ab740                whirlpool_block
 *fill*         0x000ad43c        0x4 
 .text          0x000ad440      0xc0a libcrypto_pic.a(i_cbc.pico)
                0x000ad440                idea_cbc_encrypt
                0x000ad890                idea_encrypt
 *fill*         0x000ae04a        0x6 
 .text          0x000ae050       0x18 libcrypto_pic.a(rc4_utl.pico)
                0x000ae050                RC4_set_key
 *fill*         0x000ae068       0x18 
 .text          0x000ae080      0x4c0 libcrypto_pic.a(rc4-586.pico)
                0x000ae080                RC4
                0x000ae390                private_RC4_set_key
                0x000ae450                RC4_options
 .text          0x000ae540      0x774 libcrypto_pic.a(rc2_cbc.pico)
                0x000ae540                RC2_cbc_encrypt
                0x000ae9a0                RC2_encrypt
                0x000aeb00                RC2_decrypt
 *fill*         0x000aecb4        0xc 
 .text          0x000aecc0       0xee libcrypto_pic.a(cmll_misc.pico)
                0x000aecc0                private_Camellia_set_key
                0x000aed30                Camellia_encrypt
                0x000aed70                Camellia_decrypt
 *fill*         0x000aedae        0x2 
 .text          0x000aedb0     0x1518 libcrypto_pic.a(camellia.pico)
                0x000aedb0                Camellia_Ekeygen
                0x000afa00                Camellia_EncryptBlock_Rounds
                0x000afdf0                Camellia_EncryptBlock
                0x000afe40                Camellia_DecryptBlock_Rounds
                0x000b0280                Camellia_DecryptBlock
 *fill*         0x000b02c8        0x8 
 .text          0x000b02d0      0x282 libcrypto_pic.a(gost_keywrap.pico)
                0x000b02d0                keyDiversifyCryptoPro
                0x000b0400                keyWrapCryptoPro
                0x000b04b0                keyUnwrapCryptoPro
 *fill*         0x000b0552        0xe 
 .text          0x000b0560      0xf37 libcrypto_pic.a(gosthash.pico)
                0x000b0560                init_gost_hash_ctx
                0x000b05c0                done_gost_hash_ctx
                0x000b05f0                start_hash
                0x000b0620                hash_block
                0x000b1230                finish_hash
 *fill*         0x000b1497        0x9 
 .text          0x000b14a0     0x1164 libcrypto_pic.a(gost_crypt.pico)
                0x000b2370                get_encryption_params
 *fill*         0x000b2604        0xc 
 .text          0x000b2610     0x2288 libcrypto_pic.a(gost_ameth.pico)
                0x000b2610                gost94_nid_by_params
                0x000b26a0                gost_get0_priv_key
                0x000b2700                register_ameth_gost
 *fill*         0x000b4898        0x8 
 .text          0x000b48a0     0x1f8a libcrypto_pic.a(gost89.pico)
                0x000b48a0                gostcrypt
                0x000b51c0                gostdecrypt
                0x000b5ae0                gost_enc
                0x000b5b40                gost_dec
                0x000b5ba0                gost_enc_cfb
                0x000b5c90                gost_dec_cfb
                0x000b5d80                gost_enc_with_key
                0x000b5df0                gost_key
                0x000b5e30                gost_get_key
                0x000b5e70                gost_init
                0x000b5f30                gost_destroy
                0x000b5f70                mac_block
                0x000b6450                get_mac
                0x000b64b0                gost_mac
                0x000b6600                gost_mac_iv
                0x000b6750                cryptopro_key_meshing
 *fill*         0x000b682a        0x6 
 .text          0x000b6830     0x1188 libcrypto_pic.a(gost2001.pico)
                0x000b6830                fill_GOST2001_params
                0x000b6c10                gost2001_do_sign
                0x000b71d0                gost2001_do_verify
                0x000b76e0                gost2001_compute_public
                0x000b78b0                gost2001_keygen
 *fill*         0x000b79b8        0x8 
 .text          0x000b79c0      0xdc6 libcrypto_pic.a(gost_sign.pico)
                0x000b79c0                gost_do_sign
                0x000b7d40                hashsum2bn
                0x000b7dd0                pack_sign_cp
                0x000b7ed0                store_bignum
                0x000b7f50                gost_do_verify
                0x000b8360                gost94_compute_public
                0x000b8450                fill_GOST94_params
                0x000b8560                gost_sign_keygen
                0x000b85d0                unpack_cp_signature
                0x000b8700                getbnfrombuf
 *fill*         0x000b8786        0x2 
 .text          0x000b8788        0x0 libcrypto_pic.a(gost_params.pico)
 *fill*         0x000b8788        0x8 
 .text          0x000b8790      0x160 libcrypto_pic.a(gost_ctl.pico)
                0x000b8790                gost_param_free
                0x000b87d0                gost_control_func
                0x000b8840                gost_set_default_param
                0x000b88a0                get_gost_engine_param
 .text          0x000b88f0      0x53e libcrypto_pic.a(gost_asn1.pico)
                0x000b88f0                d2i_GOST_KEY_TRANSPORT
                0x000b8930                i2d_GOST_KEY_TRANSPORT
                0x000b8970                GOST_KEY_TRANSPORT_new
                0x000b89a0                GOST_KEY_TRANSPORT_free
                0x000b89d0                d2i_GOST_KEY_INFO
                0x000b8a10                i2d_GOST_KEY_INFO
                0x000b8a50                GOST_KEY_INFO_new
                0x000b8a80                GOST_KEY_INFO_free
                0x000b8ab0                d2i_GOST_KEY_AGREEMENT_INFO
                0x000b8af0                i2d_GOST_KEY_AGREEMENT_INFO
                0x000b8b30                GOST_KEY_AGREEMENT_INFO_new
                0x000b8b60                GOST_KEY_AGREEMENT_INFO_free
                0x000b8b90                d2i_GOST_KEY_PARAMS
                0x000b8bd0                i2d_GOST_KEY_PARAMS
                0x000b8c10                GOST_KEY_PARAMS_new
                0x000b8c40                GOST_KEY_PARAMS_free
                0x000b8c70                d2i_GOST_CIPHER_PARAMS
                0x000b8cb0                i2d_GOST_CIPHER_PARAMS
                0x000b8cf0                GOST_CIPHER_PARAMS_new
                0x000b8d20                GOST_CIPHER_PARAMS_free
                0x000b8d50                d2i_GOST_CLIENT_KEY_EXCHANGE_PARAMS
                0x000b8d90                i2d_GOST_CLIENT_KEY_EXCHANGE_PARAMS
                0x000b8dd0                GOST_CLIENT_KEY_EXCHANGE_PARAMS_new
                0x000b8e00                GOST_CLIENT_KEY_EXCHANGE_PARAMS_free
 *fill*         0x000b8e2e        0x2 
 .text          0x000b8e30      0x134 libcrypto_pic.a(e_gost_err.pico)
                0x000b8e30                ERR_load_GOST_strings
                0x000b8ea0                ERR_unload_GOST_strings
                0x000b8f00                ERR_GOST_error
 *fill*         0x000b8f64        0xc 
 .text          0x000b8f70     0x19cf libcrypto_pic.a(v3_utl.pico)
                0x000b8f70                X509V3_add_value
                0x000b9110                X509V3_add_value_uchar
                0x000b9130                X509V3_conf_free
                0x000b9190                X509V3_add_value_bool
                0x000b91e0                X509V3_add_value_bool_nf
                0x000b9230                i2s_ASN1_ENUMERATED
                0x000b92c0                i2s_ASN1_INTEGER
                0x000b9350                s2i_ASN1_INTEGER
                0x000b94a0                X509V3_add_value_int
                0x000b9560                X509V3_get_value_bool
                0x000b9760                X509V3_get_value_int
                0x000b97e0                X509V3_parse_list
                0x000b9c60                hex_to_string
                0x000b9d30                string_to_hex
                0x000b9f10                name_cmp
                0x000b9f70                X509_get1_email
                0x000ba0b0                X509_get1_ocsp
                0x000ba240                X509_REQ_get1_email
                0x000ba2d0                X509_email_free
                0x000ba320                a2i_IPADDRESS
                0x000ba390                a2i_ipadd
                0x000ba5a0                a2i_IPADDRESS_NC
                0x000ba670                X509V3_NAME_from_section
 *fill*         0x000ba93f        0x1 
 .text          0x000ba940      0x966 libcrypto_pic.a(v3_sxnet.pico)
                0x000bab20                d2i_SXNETID
                0x000bab60                i2d_SXNETID
                0x000baba0                SXNETID_new
                0x000babd0                SXNETID_free
                0x000bac00                d2i_SXNET
                0x000bac40                i2d_SXNET
                0x000bac80                SXNET_new
                0x000bacb0                SXNET_free
                0x000bace0                SXNET_add_id_asc
                0x000bad70                SXNET_add_id_INTEGER
                0x000bafb0                SXNET_add_id_ulong
                0x000bb050                SXNET_get_id_INTEGER
                0x000bb0d0                SXNET_get_id_asc
                0x000bb1b0                SXNET_get_id_ulong
 *fill*         0x000bb2a6        0xa 
 .text          0x000bb2b0      0x29b libcrypto_pic.a(v3_skey.pico)
                0x000bb2b0                i2s_ASN1_OCTET_STRING
                0x000bb4c0                s2i_ASN1_OCTET_STRING
 *fill*         0x000bb54b        0x5 
 .text          0x000bb550     0x14a2 libcrypto_pic.a(v3_purp.pico)
                0x000bb550                X509_check_purpose
                0x000bbc70                X509_PURPOSE_get_by_id
                0x000bbcd0                X509_PURPOSE_get0
                0x000bbd20                X509_PURPOSE_set
                0x000bbdc0                X509_PURPOSE_get_count
                0x000bbe00                X509_PURPOSE_get_by_sname
                0x000bbea0                X509_PURPOSE_add
                0x000bc0b0                X509_PURPOSE_cleanup
                0x000bc190                X509_PURPOSE_get_id
                0x000bc1a0                X509_PURPOSE_get0_name
                0x000bc1b0                X509_PURPOSE_get0_sname
                0x000bc1c0                X509_PURPOSE_get_trust
                0x000bc1d0                X509_supported_extension
                0x000bc240                X509_check_ca
                0x000bc310                X509_check_issued
                0x000bc3c0                X509_check_akid
 *fill*         0x000bc9f2        0xe 
 .text          0x000bca00      0x6b3 libcrypto_pic.a(v3_prn.pico)
                0x000bca00                X509V3_EXT_val_prn
                0x000bcb70                X509V3_EXT_print
                0x000bce80                X509V3_extensions_print
                0x000bd050                X509V3_EXT_print_fp
 *fill*         0x000bd0b3        0xd 
 .text          0x000bd0c0      0x1ae libcrypto_pic.a(v3_pku.pico)
                0x000bd190                d2i_PKEY_USAGE_PERIOD
                0x000bd1d0                i2d_PKEY_USAGE_PERIOD
                0x000bd210                PKEY_USAGE_PERIOD_new
                0x000bd240                PKEY_USAGE_PERIOD_free
 *fill*         0x000bd26e        0x2 
 .text          0x000bd270      0xa6e libcrypto_pic.a(v3_pci.pico)
 *fill*         0x000bdcde        0x2 
 .text          0x000bdce0      0x1be libcrypto_pic.a(v3_pcia.pico)
                0x000bdce0                d2i_PROXY_POLICY
                0x000bdd20                i2d_PROXY_POLICY
                0x000bdd60                PROXY_POLICY_new
                0x000bdd90                PROXY_POLICY_free
                0x000bddc0                d2i_PROXY_CERT_INFO_EXTENSION
                0x000bde00                i2d_PROXY_CERT_INFO_EXTENSION
                0x000bde40                PROXY_CERT_INFO_EXTENSION_new
                0x000bde70                PROXY_CERT_INFO_EXTENSION_free
 *fill*         0x000bde9e        0x2 
 .text          0x000bdea0      0x563 libcrypto_pic.a(v3_ocsp.pico)
 *fill*         0x000be403        0xd 
 .text          0x000be410      0xd1e libcrypto_pic.a(ocsp_asn.pico)
                0x000be410                d2i_OCSP_SIGNATURE
                0x000be450                i2d_OCSP_SIGNATURE
                0x000be490                OCSP_SIGNATURE_new
                0x000be4c0                OCSP_SIGNATURE_free
                0x000be4f0                d2i_OCSP_CERTID
                0x000be530                i2d_OCSP_CERTID
                0x000be570                OCSP_CERTID_new
                0x000be5a0                OCSP_CERTID_free
                0x000be5d0                d2i_OCSP_ONEREQ
                0x000be610                i2d_OCSP_ONEREQ
                0x000be650                OCSP_ONEREQ_new
                0x000be680                OCSP_ONEREQ_free
                0x000be6b0                d2i_OCSP_REQINFO
                0x000be6f0                i2d_OCSP_REQINFO
                0x000be730                OCSP_REQINFO_new
                0x000be760                OCSP_REQINFO_free
                0x000be790                d2i_OCSP_REQUEST
                0x000be7d0                i2d_OCSP_REQUEST
                0x000be810                OCSP_REQUEST_new
                0x000be840                OCSP_REQUEST_free
                0x000be870                d2i_OCSP_RESPBYTES
                0x000be8b0                i2d_OCSP_RESPBYTES
                0x000be8f0                OCSP_RESPBYTES_new
                0x000be920                OCSP_RESPBYTES_free
                0x000be950                d2i_OCSP_RESPONSE
                0x000be990                i2d_OCSP_RESPONSE
                0x000be9d0                OCSP_RESPONSE_new
                0x000bea00                OCSP_RESPONSE_free
                0x000bea30                d2i_OCSP_RESPID
                0x000bea70                i2d_OCSP_RESPID
                0x000beab0                OCSP_RESPID_new
                0x000beae0                OCSP_RESPID_free
                0x000beb10                d2i_OCSP_REVOKEDINFO
                0x000beb50                i2d_OCSP_REVOKEDINFO
                0x000beb90                OCSP_REVOKEDINFO_new
                0x000bebc0                OCSP_REVOKEDINFO_free
                0x000bebf0                d2i_OCSP_CERTSTATUS
                0x000bec30                i2d_OCSP_CERTSTATUS
                0x000bec70                OCSP_CERTSTATUS_new
                0x000beca0                OCSP_CERTSTATUS_free
                0x000becd0                d2i_OCSP_SINGLERESP
                0x000bed10                i2d_OCSP_SINGLERESP
                0x000bed50                OCSP_SINGLERESP_new
                0x000bed80                OCSP_SINGLERESP_free
                0x000bedb0                d2i_OCSP_RESPDATA
                0x000bedf0                i2d_OCSP_RESPDATA
                0x000bee30                OCSP_RESPDATA_new
                0x000bee60                OCSP_RESPDATA_free
                0x000bee90                d2i_OCSP_BASICRESP
                0x000beed0                i2d_OCSP_BASICRESP
                0x000bef10                OCSP_BASICRESP_new
                0x000bef40                OCSP_BASICRESP_free
                0x000bef70                d2i_OCSP_CRLID
                0x000befb0                i2d_OCSP_CRLID
                0x000beff0                OCSP_CRLID_new
                0x000bf020                OCSP_CRLID_free
                0x000bf050                d2i_OCSP_SERVICELOC
                0x000bf090                i2d_OCSP_SERVICELOC
                0x000bf0d0                OCSP_SERVICELOC_new
                0x000bf100                OCSP_SERVICELOC_free
 *fill*         0x000bf12e        0x2 
 .text          0x000bf130      0x47b libcrypto_pic.a(f_string.pico)
                0x000bf130                i2a_ASN1_STRING
                0x000bf250                a2i_ASN1_STRING
 *fill*         0x000bf5ab        0x5 
 .text          0x000bf5b0      0xabc libcrypto_pic.a(v3_ncons.pico)
                0x000bf820                GENERAL_SUBTREE_new
                0x000bf850                GENERAL_SUBTREE_free
                0x000bf880                NAME_CONSTRAINTS_new
                0x000bf8b0                NAME_CONSTRAINTS_free
                0x000bf8e0                NAME_CONSTRAINTS_check
 *fill*         0x000c006c        0x4 
 .text          0x000c0070      0x8b3 libcrypto_pic.a(v3_lib.pico)
                0x000c0070                X509V3_EXT_add
                0x000c0130                X509V3_EXT_get_nid
                0x000c01d0                X509V3_EXT_get
                0x000c0280                X509V3_EXT_add_list
                0x000c0340                X509V3_EXT_add_alias
                0x000c04f0                X509V3_EXT_cleanup
                0x000c0560                X509V3_add_standard_extensions
                0x000c0570                X509V3_EXT_d2i
                0x000c05f0                X509V3_get_d2i
                0x000c0760                X509V3_add1_i2d
 *fill*         0x000c0923        0xd 
 .text          0x000c0930       0x2b libcrypto_pic.a(v3_int.pico)
 *fill*         0x000c095b        0x5 
 .text          0x000c0960      0x612 libcrypto_pic.a(v3_info.pico)
                0x000c0d80                d2i_ACCESS_DESCRIPTION
                0x000c0dc0                i2d_ACCESS_DESCRIPTION
                0x000c0e00                ACCESS_DESCRIPTION_new
                0x000c0e30                ACCESS_DESCRIPTION_free
                0x000c0e60                d2i_AUTHORITY_INFO_ACCESS
                0x000c0ea0                i2d_AUTHORITY_INFO_ACCESS
                0x000c0ee0                AUTHORITY_INFO_ACCESS_new
                0x000c0f10                AUTHORITY_INFO_ACCESS_free
                0x000c0f40                i2a_ACCESS_DESCRIPTION
 *fill*         0x000c0f72        0xe 
 .text          0x000c0f80      0x158 libcrypto_pic.a(v3_ia5.pico)
 *fill*         0x000c10d8        0x8 
 .text          0x000c10e0      0x2ce libcrypto_pic.a(v3_extku.pico)
                0x000c12d0                d2i_EXTENDED_KEY_USAGE
                0x000c1310                i2d_EXTENDED_KEY_USAGE
                0x000c1350                EXTENDED_KEY_USAGE_new
                0x000c1380                EXTENDED_KEY_USAGE_free
 *fill*         0x000c13ae        0x2 
 .text          0x000c13b0       0x5b libcrypto_pic.a(v3_enum.pico)
                0x000c13b0                i2s_ASN1_ENUMERATED_TABLE
 *fill*         0x000c140b        0x5 
 .text          0x000c1410      0x251 libcrypto_pic.a(v3_bitst.pico)
                0x000c1410                i2v_ASN1_BIT_STRING
                0x000c1480                v2i_ASN1_BIT_STRING
 *fill*         0x000c1661        0xf 
 .text          0x000c1670      0x2de libcrypto_pic.a(v3_bcons.pico)
                0x000c1870                d2i_BASIC_CONSTRAINTS
                0x000c18b0                i2d_BASIC_CONSTRAINTS
                0x000c18f0                BASIC_CONSTRAINTS_new
                0x000c1920                BASIC_CONSTRAINTS_free
 *fill*         0x000c194e        0x2 
 .text          0x000c1950      0x454 libcrypto_pic.a(v3_akey.pico)
 *fill*         0x000c1da4        0xc 
 .text          0x000c1db0      0x603 libcrypto_pic.a(v3_genn.pico)
                0x000c1db0                d2i_OTHERNAME
                0x000c1df0                i2d_OTHERNAME
                0x000c1e30                OTHERNAME_new
                0x000c1e60                OTHERNAME_free
                0x000c1e90                d2i_EDIPARTYNAME
                0x000c1ed0                i2d_EDIPARTYNAME
                0x000c1f10                EDIPARTYNAME_new
                0x000c1f40                EDIPARTYNAME_free
                0x000c1f70                d2i_GENERAL_NAME
                0x000c1fb0                i2d_GENERAL_NAME
                0x000c1ff0                GENERAL_NAME_new
                0x000c2020                GENERAL_NAME_free
                0x000c2050                d2i_GENERAL_NAMES
                0x000c2090                i2d_GENERAL_NAMES
                0x000c20d0                GENERAL_NAMES_new
                0x000c2100                GENERAL_NAMES_free
                0x000c2130                GENERAL_NAME_dup
                0x000c2170                GENERAL_NAME_cmp
                0x000c2260                OTHERNAME_cmp
                0x000c22c0                GENERAL_NAME_set0_value
                0x000c22f0                GENERAL_NAME_get0_value
                0x000c2330                GENERAL_NAME_set0_othername
                0x000c2380                GENERAL_NAME_get0_otherName
 *fill*         0x000c23b3        0xd 
 .text          0x000c23c0     0x1416 libcrypto_pic.a(v3_crld.pico)
                0x000c27a0                d2i_DIST_POINT_NAME
                0x000c27e0                i2d_DIST_POINT_NAME
                0x000c2820                DIST_POINT_NAME_new
                0x000c2850                DIST_POINT_NAME_free
                0x000c2880                d2i_DIST_POINT
                0x000c28c0                i2d_DIST_POINT
                0x000c2900                DIST_POINT_new
                0x000c2930                DIST_POINT_free
                0x000c2960                d2i_CRL_DIST_POINTS
                0x000c29a0                i2d_CRL_DIST_POINTS
                0x000c29e0                CRL_DIST_POINTS_new
                0x000c2a10                CRL_DIST_POINTS_free
                0x000c2a40                d2i_ISSUING_DIST_POINT
                0x000c2a80                i2d_ISSUING_DIST_POINT
                0x000c2ac0                ISSUING_DIST_POINT_new
                0x000c2af0                ISSUING_DIST_POINT_free
                0x000c2ec0                DIST_POINT_set_dpname
 *fill*         0x000c37d6        0xa 
 .text          0x000c37e0     0x1234 libcrypto_pic.a(v3_alt.pico)
                0x000c37e0                i2v_GENERAL_NAMES
                0x000c3c90                i2v_GENERAL_NAME
                0x000c3f00                GENERAL_NAME_print
                0x000c4180                v2i_GENERAL_NAMES
                0x000c4270                v2i_GENERAL_NAME
                0x000c42c0                v2i_GENERAL_NAME_ex
                0x000c4460                a2i_GENERAL_NAME
 *fill*         0x000c4a14        0xc 
 .text          0x000c4a20     0x1474 libcrypto_pic.a(v3_cpols.pico)
                0x000c56b0                d2i_CERTIFICATEPOLICIES
                0x000c56f0                i2d_CERTIFICATEPOLICIES
                0x000c5730                CERTIFICATEPOLICIES_new
                0x000c5760                CERTIFICATEPOLICIES_free
                0x000c5790                d2i_POLICYINFO
                0x000c57d0                i2d_POLICYINFO
                0x000c5810                POLICYINFO_new
                0x000c5840                POLICYINFO_free
                0x000c5870                d2i_POLICYQUALINFO
                0x000c58b0                i2d_POLICYQUALINFO
                0x000c58f0                POLICYQUALINFO_new
                0x000c5920                POLICYQUALINFO_free
                0x000c5950                d2i_USERNOTICE
                0x000c5990                i2d_USERNOTICE
                0x000c59d0                USERNOTICE_new
                0x000c5a00                USERNOTICE_free
                0x000c5a30                d2i_NOTICEREF
                0x000c5a70                i2d_NOTICEREF
                0x000c5ab0                NOTICEREF_new
                0x000c5ae0                NOTICEREF_free
                0x000c5b10                X509_POLICY_NODE_print
 *fill*         0x000c5e94        0xc 
 .text          0x000c5ea0      0xf48 libcrypto_pic.a(v3_conf.pico)
                0x000c5ea0                X509V3_EXT_nconf
                0x000c64a0                X509V3_EXT_nconf_nid
                0x000c65e0                X509V3_EXT_i2d
                0x000c6780                X509V3_EXT_add_nconf_sk
                0x000c6850                X509V3_EXT_add_nconf
                0x000c68a0                X509V3_EXT_CRL_add_nconf
                0x000c68f0                X509V3_EXT_REQ_add_nconf
                0x000c6970                X509V3_get_string
                0x000c69f0                X509V3_get_section
                0x000c6a60                X509V3_string_free
                0x000c6aa0                X509V3_section_free
                0x000c6ae0                X509V3_set_nconf
                0x000c6b10                X509V3_set_ctx
                0x000c6b40                X509V3_EXT_conf
                0x000c6b90                X509V3_EXT_conf_nid
                0x000c6be0                X509V3_set_conf_lhash
                0x000c6c10                X509V3_EXT_add_conf
                0x000c6c70                X509V3_EXT_CRL_add_conf
                0x000c6cd0                X509V3_EXT_REQ_add_conf
 *fill*         0x000c6de8        0x8 
 .text          0x000c6df0      0x7e1 libcrypto_pic.a(x509_req.pico)
                0x000c6df0                X509_to_X509_REQ
                0x000c6f00                X509_REQ_get_pubkey
                0x000c6f40                X509_REQ_check_private_key
                0x000c7080                X509_REQ_extension_nid
                0x000c70d0                X509_REQ_get_extension_nids
                0x000c70f0                X509_REQ_set_extension_nids
                0x000c7110                X509_REQ_get_extensions
                0x000c7220                X509_REQ_get_attr_by_NID
                0x000c7260                X509_REQ_get_attr
                0x000c7290                X509_REQ_add_extensions_nid
                0x000c73a0                X509_REQ_add_extensions
                0x000c73e0                X509_REQ_get_attr_count
                0x000c7410                X509_REQ_get_attr_by_OBJ
                0x000c7450                X509_REQ_delete_attr
                0x000c7480                X509_REQ_add1_attr
                0x000c74c0                X509_REQ_add1_attr_by_OBJ
                0x000c7520                X509_REQ_add1_attr_by_NID
                0x000c7580                X509_REQ_add1_attr_by_txt
 *fill*         0x000c75d1        0xf 
 .text          0x000c75e0     0x1337 libcrypto_pic.a(asn1_gen.pico)
                0x000c75e0                ASN1_generate_nconf
                0x000c7690                ASN1_generate_v3
 *fill*         0x000c8917        0x9 
 .text          0x000c8920       0xbc libcrypto_pic.a(x509rset.pico)
                0x000c8920                X509_REQ_set_version
                0x000c8960                X509_REQ_set_subject_name
                0x000c89a0                X509_REQ_set_pubkey
 *fill*         0x000c89dc        0x4 
 .text          0x000c89e0      0xb44 libcrypto_pic.a(conf_mod.pico)
                0x000c89e0                CONF_modules_load
                0x000c8f00                CONF_modules_load_file
                0x000c8fe0                CONF_get1_default_config_file
                0x000c9090                CONF_modules_unload
                0x000c9190                CONF_modules_finish
                0x000c9230                CONF_module_add
                0x000c9320                CONF_modules_free
                0x000c9350                CONF_imodule_get_name
                0x000c9360                CONF_imodule_get_value
                0x000c9370                CONF_imodule_get_usr_data
                0x000c9380                CONF_imodule_set_usr_data
                0x000c9390                CONF_imodule_get_module
                0x000c93a0                CONF_imodule_get_flags
                0x000c93b0                CONF_imodule_set_flags
                0x000c93c0                CONF_module_get_usr_data
                0x000c93d0                CONF_module_set_usr_data
                0x000c93e0                CONF_parse_list
 *fill*         0x000c9524        0xc 
 .text          0x000c9530       0xb7 libcrypto_pic.a(x509_def.pico)
                0x000c9530                X509_get_default_private_dir
                0x000c9550                X509_get_default_cert_area
                0x000c9570                X509_get_default_cert_dir
                0x000c9590                X509_get_default_cert_file
                0x000c95b0                X509_get_default_cert_dir_env
                0x000c95d0                X509_get_default_cert_file_env
 *fill*         0x000c95e7        0x9 
 .text          0x000c95f0      0xc44 libcrypto_pic.a(pcy_tree.pico)
                0x000c95f0                X509_policy_tree_free
                0x000c96f0                X509_policy_check
 *fill*         0x000ca234        0xc 
 .text          0x000ca240      0x323 libcrypto_pic.a(pcy_node.pico)
                0x000ca240                policy_node_cmp_new
                0x000ca2b0                tree_find_sk
                0x000ca310                level_find_node
                0x000ca3a0                level_add_node
                0x000ca4a0                policy_node_free
                0x000ca4c0                policy_node_match
 *fill*         0x000ca563        0xd 
 .text          0x000ca570      0x161 libcrypto_pic.a(pcy_lib.pico)
                0x000ca570                X509_policy_tree_level_count
                0x000ca590                X509_policy_tree_get0_level
                0x000ca5c0                X509_policy_tree_get0_policies
                0x000ca5e0                X509_policy_tree_get0_user_policies
                0x000ca600                X509_policy_level_node_count
                0x000ca640                X509_policy_level_get0_node
                0x000ca680                X509_policy_node_get0_policy
                0x000ca6a0                X509_policy_node_get0_qualifiers
                0x000ca6c0                X509_policy_node_get0_parent
 *fill*         0x000ca6d1        0xf 
 .text          0x000ca6e0      0x183 libcrypto_pic.a(pcy_map.pico)
                0x000ca6e0                policy_cache_set_mapping
 *fill*         0x000ca863        0xd 
 .text          0x000ca870      0x34e libcrypto_pic.a(v3_pmaps.pico)
                0x000cab60                POLICY_MAPPING_new
                0x000cab90                POLICY_MAPPING_free
 *fill*         0x000cabbe        0x2 
 .text          0x000cabc0     0x154f libcrypto_pic.a(x_all.pico)
                0x000cabc0                X509_verify
                0x000cac30                X509_REQ_verify
                0x000cac80                NETSCAPE_SPKI_verify
                0x000cacd0                X509_sign
                0x000cad30                X509_sign_ctx
                0x000cad90                X509_REQ_sign
                0x000cadf0                X509_REQ_sign_ctx
                0x000cae40                X509_CRL_sign
                0x000caea0                X509_CRL_sign_ctx
                0x000caf00                NETSCAPE_SPKI_sign
                0x000caf60                d2i_X509_fp
                0x000cafa0                i2d_X509_fp
                0x000cafe0                d2i_X509_bio
                0x000cb020                i2d_X509_bio
                0x000cb060                d2i_X509_CRL_fp
                0x000cb0a0                i2d_X509_CRL_fp
                0x000cb0e0                d2i_X509_CRL_bio
                0x000cb120                i2d_X509_CRL_bio
                0x000cb160                d2i_PKCS7_fp
                0x000cb1a0                i2d_PKCS7_fp
                0x000cb1e0                d2i_PKCS7_bio
                0x000cb220                i2d_PKCS7_bio
                0x000cb260                d2i_X509_REQ_fp
                0x000cb2a0                i2d_X509_REQ_fp
                0x000cb2e0                d2i_X509_REQ_bio
                0x000cb320                i2d_X509_REQ_bio
                0x000cb360                d2i_RSAPrivateKey_fp
                0x000cb3a0                i2d_RSAPrivateKey_fp
                0x000cb3e0                d2i_RSAPublicKey_fp
                0x000cb420                d2i_RSA_PUBKEY_fp
                0x000cb460                i2d_RSAPublicKey_fp
                0x000cb4a0                i2d_RSA_PUBKEY_fp
                0x000cb4e0                d2i_RSAPrivateKey_bio
                0x000cb520                i2d_RSAPrivateKey_bio
                0x000cb560                d2i_RSAPublicKey_bio
                0x000cb5a0                d2i_RSA_PUBKEY_bio
                0x000cb5e0                i2d_RSAPublicKey_bio
                0x000cb620                i2d_RSA_PUBKEY_bio
                0x000cb660                d2i_DSAPrivateKey_fp
                0x000cb6a0                i2d_DSAPrivateKey_fp
                0x000cb6e0                d2i_DSA_PUBKEY_fp
                0x000cb720                i2d_DSA_PUBKEY_fp
                0x000cb760                d2i_DSAPrivateKey_bio
                0x000cb7a0                i2d_DSAPrivateKey_bio
                0x000cb7e0                d2i_DSA_PUBKEY_bio
                0x000cb820                i2d_DSA_PUBKEY_bio
                0x000cb860                d2i_EC_PUBKEY_fp
                0x000cb8a0                i2d_EC_PUBKEY_fp
                0x000cb8e0                d2i_ECPrivateKey_fp
                0x000cb920                i2d_ECPrivateKey_fp
                0x000cb960                d2i_EC_PUBKEY_bio
                0x000cb9a0                i2d_EC_PUBKEY_bio
                0x000cb9e0                d2i_ECPrivateKey_bio
                0x000cba20                i2d_ECPrivateKey_bio
                0x000cba60                X509_pubkey_digest
                0x000cbac0                X509_digest
                0x000cbb10                X509_CRL_digest
                0x000cbb60                X509_REQ_digest
                0x000cbbb0                X509_NAME_digest
                0x000cbc00                PKCS7_ISSUER_AND_SERIAL_digest
                0x000cbc50                d2i_PKCS8_fp
                0x000cbc90                i2d_PKCS8_fp
                0x000cbcd0                d2i_PKCS8_bio
                0x000cbd10                i2d_PKCS8_bio
                0x000cbd50                d2i_PKCS8_PRIV_KEY_INFO_fp
                0x000cbd90                i2d_PKCS8_PRIV_KEY_INFO_fp
                0x000cbdd0                i2d_PKCS8PrivateKeyInfo_fp
                0x000cbe30                i2d_PrivateKey_fp
                0x000cbe70                d2i_PrivateKey_fp
                0x000cbeb0                i2d_PUBKEY_fp
                0x000cbef0                d2i_PUBKEY_fp
                0x000cbf30                d2i_PKCS8_PRIV_KEY_INFO_bio
                0x000cbf70                i2d_PKCS8_PRIV_KEY_INFO_bio
                0x000cbfb0                i2d_PKCS8PrivateKeyInfo_bio
                0x000cc010                i2d_PrivateKey_bio
                0x000cc050                d2i_PrivateKey_bio
                0x000cc090                i2d_PUBKEY_bio
                0x000cc0d0                d2i_PUBKEY_bio
 *fill*         0x000cc10f        0x1 
 .text          0x000cc110       0x97 libcrypto_pic.a(i2d_pr.pico)
                0x000cc110                i2d_PrivateKey
 *fill*         0x000cc1a7        0x9 
 .text          0x000cc1b0      0x2ab libcrypto_pic.a(d2i_pr.pico)
                0x000cc1b0                d2i_PrivateKey
                0x000cc330                d2i_AutoPrivateKey
 *fill*         0x000cc45b        0x5 
 .text          0x000cc460      0x1be libcrypto_pic.a(x_spki.pico)
                0x000cc460                d2i_NETSCAPE_SPKAC
                0x000cc4a0                i2d_NETSCAPE_SPKAC
                0x000cc4e0                NETSCAPE_SPKAC_new
                0x000cc510                NETSCAPE_SPKAC_free
                0x000cc540                d2i_NETSCAPE_SPKI
                0x000cc580                i2d_NETSCAPE_SPKI
                0x000cc5c0                NETSCAPE_SPKI_new
                0x000cc5f0                NETSCAPE_SPKI_free
 *fill*         0x000cc61e        0x2 
 .text          0x000cc620      0x225 libcrypto_pic.a(x_req.pico)
                0x000cc620                d2i_X509_REQ_INFO
                0x000cc660                i2d_X509_REQ_INFO
                0x000cc6a0                X509_REQ_INFO_new
                0x000cc6d0                X509_REQ_INFO_free
                0x000cc700                d2i_X509_REQ
                0x000cc740                i2d_X509_REQ
                0x000cc780                X509_REQ_new
                0x000cc7b0                X509_REQ_free
                0x000cc7e0                X509_REQ_dup
 *fill*         0x000cc845        0xb 
 .text          0x000cc850      0x165 libcrypto_pic.a(a_digest.pico)
                0x000cc850                ASN1_digest
                0x000cc930                ASN1_item_digest
 *fill*         0x000cc9b5        0xb 
 .text          0x000cc9c0      0x713 libcrypto_pic.a(a_sign.pico)
                0x000cc9c0                ASN1_sign
                0x000ccd00                ASN1_item_sign
                0x000ccd90                ASN1_item_sign_ctx
 *fill*         0x000cd0d3        0xd 
 .text          0x000cd0e0      0x5af libcrypto_pic.a(evp_pkey.pico)
                0x000cd0e0                EVP_PKCS82PKEY
                0x000cd270                EVP_PKEY2PKCS8
                0x000cd2a0                EVP_PKEY2PKCS8_broken
                0x000cd3d0                PKCS8_set_broken
                0x000cd450                EVP_PKEY_get_attr_count
                0x000cd480                EVP_PKEY_get_attr_by_NID
                0x000cd4c0                EVP_PKEY_get_attr_by_OBJ
                0x000cd500                EVP_PKEY_get_attr
                0x000cd530                EVP_PKEY_delete_attr
                0x000cd560                EVP_PKEY_add1_attr
                0x000cd5a0                EVP_PKEY_add1_attr_by_OBJ
                0x000cd5f0                EVP_PKEY_add1_attr_by_NID
                0x000cd640                EVP_PKEY_add1_attr_by_txt
 *fill*         0x000cd68f        0x1 
 .text          0x000cd690     0x181e libcrypto_pic.a(x509_lu.pico)
                0x000cd690                X509_LOOKUP_new
                0x000cd710                X509_LOOKUP_free
                0x000cd750                X509_LOOKUP_init
                0x000cd770                X509_LOOKUP_shutdown
                0x000cd790                X509_LOOKUP_ctrl
                0x000cd7c0                X509_LOOKUP_by_subject
                0x000cd7f0                X509_LOOKUP_by_issuer_serial
                0x000cd810                X509_LOOKUP_by_fingerprint
                0x000cd830                X509_LOOKUP_by_alias
                0x000cd850                X509_STORE_new
                0x000cd9b0                X509_STORE_free
                0x000cdaf0                X509_STORE_add_lookup
                0x000cdbe0                X509_STORE_get_by_subject
                0x000cde00                X509_OBJECT_retrieve_by_subject
                0x000cdeb0                X509_OBJECT_up_ref_count
                0x000cdf30                X509_STORE_add_cert
                0x000ce0f0                X509_OBJECT_retrieve_match
                0x000ce240                X509_OBJECT_free_contents
                0x000ce280                X509_STORE_add_crl
                0x000ce440                X509_OBJECT_idx_by_subject
                0x000ce600                X509_STORE_get1_certs
                0x000ce860                X509_STORE_get1_crls
                0x000ceaa0                X509_STORE_CTX_get1_issuer
                0x000ceda0                X509_STORE_set_flags
                0x000cedd0                X509_STORE_set_depth
                0x000cee10                X509_STORE_set_purpose
                0x000cee40                X509_STORE_set_trust
                0x000cee70                X509_STORE_set1_param
                0x000ceea0                X509_STORE_set_verify_cb
 *fill*         0x000ceeae        0x2 
 .text          0x000ceeb0      0xb70 libcrypto_pic.a(x509name.pico)
                0x000ceeb0                X509_NAME_get_text_by_NID
                0x000cef00                X509_NAME_get_text_by_OBJ
                0x000ceff0                X509_NAME_get_index_by_OBJ
                0x000cf070                X509_NAME_ENTRY_get_data
                0x000cf090                X509_NAME_get_entry
                0x000cf0e0                X509_NAME_entry_count
                0x000cf110                X509_NAME_get_index_by_NID
                0x000cf1b0                X509_NAME_delete_entry
                0x000cf2a0                X509_NAME_add_entry_by_OBJ
                0x000cf320                X509_NAME_ENTRY_create_by_OBJ
                0x000cf400                X509_NAME_add_entry
                0x000cf5b0                X509_NAME_add_entry_by_NID
                0x000cf670                X509_NAME_ENTRY_create_by_NID
                0x000cf700                X509_NAME_add_entry_by_txt
                0x000cf7e0                X509_NAME_ENTRY_create_by_txt
                0x000cf8a0                X509_NAME_ENTRY_set_object
                0x000cf920                X509_NAME_ENTRY_set_data
                0x000cfa10                X509_NAME_ENTRY_get_object
 .text          0x000cfa20      0x260 libcrypto_pic.a(a_print.pico)
                0x000cfa20                ASN1_PRINTABLE_type
                0x000cfb00                ASN1_UNIVERSALSTRING_to_string
 .text          0x000cfc80     0x31d7 libcrypto_pic.a(x509_vfy.pico)
                0x000cfc80                X509_verify_cert
                0x000d0790                X509_get_pubkey_parameters
                0x000d0b90                X509_cmp_current_time
                0x000d0bc0                X509_cmp_time
                0x000d0f30                X509_time_adj
                0x000d0f70                X509_gmtime_adj
                0x000d0fb0                X509_time_adj_ex
                0x000d1080                X509_STORE_CTX_get_ex_new_index
                0x000d10d0                X509_STORE_CTX_set_ex_data
                0x000d1110                X509_STORE_CTX_get_ex_data
                0x000d1140                X509_STORE_CTX_get_error
                0x000d1150                X509_STORE_CTX_set_error
                0x000d1160                X509_STORE_CTX_get_error_depth
                0x000d1170                X509_STORE_CTX_get_current_cert
                0x000d1180                X509_STORE_CTX_get_chain
                0x000d1190                X509_STORE_CTX_get1_chain
                0x000d1220                X509_STORE_CTX_get0_current_issuer
                0x000d1230                X509_STORE_CTX_get0_current_crl
                0x000d1240                X509_STORE_CTX_get0_parent_ctx
                0x000d1250                X509_STORE_CTX_set_cert
                0x000d1260                X509_STORE_CTX_set_chain
                0x000d1270                X509_STORE_CTX_set0_crls
                0x000d1280                X509_STORE_CTX_set_purpose
                0x000d12c0                X509_STORE_CTX_purpose_inherit
                0x000d13e0                X509_STORE_CTX_set_trust
                0x000d1420                X509_STORE_CTX_new
                0x000d14b0                X509_STORE_CTX_free
                0x000d14f0                X509_STORE_CTX_cleanup
                0x000d15a0                X509_STORE_CTX_init
                0x000d2260                X509_STORE_CTX_trusted_stack
                0x000d2350                X509_STORE_CTX_set_depth
                0x000d2380                X509_STORE_CTX_set_flags
                0x000d23b0                X509_STORE_CTX_set_time
                0x000d23f0                X509_STORE_CTX_set_verify_cb
                0x000d2400                X509_STORE_CTX_get0_policy_tree
                0x000d2410                X509_STORE_CTX_get_explicit_policy
                0x000d2420                X509_STORE_CTX_set_default
                0x000d2460                X509_STORE_CTX_get0_param
                0x000d2470                X509_STORE_CTX_set0_param
 *fill*         0x000d2e57        0x9 
 .text          0x000d2e60      0x73f libcrypto_pic.a(x509_vpm.pico)
                0x000d2e60                X509_VERIFY_PARAM_new
                0x000d2ef0                X509_VERIFY_PARAM_free
                0x000d2f70                X509_VERIFY_PARAM_inherit
                0x000d30a0                X509_VERIFY_PARAM_set1_policies
                0x000d3180                X509_VERIFY_PARAM_set1
                0x000d31c0                X509_VERIFY_PARAM_set1_name
                0x000d3210                X509_VERIFY_PARAM_set_flags
                0x000d3240                X509_VERIFY_PARAM_clear_flags
                0x000d3260                X509_VERIFY_PARAM_get_flags
                0x000d3270                X509_VERIFY_PARAM_set_purpose
                0x000d32a0                X509_VERIFY_PARAM_set_trust
                0x000d32d0                X509_VERIFY_PARAM_set_depth
                0x000d32e0                X509_VERIFY_PARAM_set_time
                0x000d3300                X509_VERIFY_PARAM_add0_policy
                0x000d3350                X509_VERIFY_PARAM_get_depth
                0x000d3360                X509_VERIFY_PARAM_add0_table
                0x000d34a0                X509_VERIFY_PARAM_lookup
                0x000d3530                X509_VERIFY_PARAM_table_cleanup
 *fill*         0x000d359f        0x1 
 .text          0x000d35a0      0x763 libcrypto_pic.a(x509_trs.pico)
                0x000d35a0                X509_TRUST_set_default
                0x000d35c0                X509_check_trust
                0x000d3690                X509_TRUST_get_by_id
                0x000d36f0                X509_TRUST_get0
                0x000d3740                X509_TRUST_get_count
                0x000d3780                X509_TRUST_set
                0x000d3820                X509_TRUST_add
                0x000d3a10                X509_TRUST_cleanup
                0x000d3ae0                X509_TRUST_get_flags
                0x000d3af0                X509_TRUST_get0_name
                0x000d3b00                X509_TRUST_get_trust
 *fill*         0x000d3d03        0xd 
 .text          0x000d3d10      0x902 libcrypto_pic.a(x509_cmp.pico)
                0x000d3d10                X509_issuer_and_serial_cmp
                0x000d3d60                X509_NAME_cmp
                0x000d3e00                X509_issuer_and_serial_hash
                0x000d3f10                X509_issuer_name_cmp
                0x000d3f50                X509_subject_name_cmp
                0x000d3f90                X509_CRL_cmp
                0x000d3fd0                X509_CRL_match
                0x000d4010                X509_get_issuer_name
                0x000d4020                X509_issuer_name_hash
                0x000d40b0                X509_NAME_hash
                0x000d4140                X509_issuer_name_hash_old
                0x000d4170                X509_NAME_hash_old
                0x000d4250                X509_get_subject_name
                0x000d4260                X509_get_serialNumber
                0x000d4270                X509_subject_name_hash
                0x000d4300                X509_subject_name_hash_old
                0x000d4330                X509_cmp
                0x000d43a0                X509_find_by_issuer_and_serial
                0x000d4430                X509_find_by_subject
                0x000d44b0                X509_get_pubkey
                0x000d44f0                X509_get0_pubkey_bitstr
                0x000d4510                X509_check_private_key
 *fill*         0x000d4612        0xe 
 .text          0x000d4620      0x6ea libcrypto_pic.a(ui_openssl.pico)
                0x000d4620                UI_OpenSSL
 *fill*         0x000d4d0a        0x6 
 .text          0x000d4d10      0x914 libcrypto_pic.a(stack.pico)
                0x000d4d10                sk_set_cmp_func
                0x000d4d30                sk_dup
                0x000d4e60                sk_new
                0x000d4f10                sk_free
                0x000d4f50                sk_new_null
                0x000d5000                sk_insert
                0x000d50b0                sk_delete_ptr
                0x000d5130                sk_delete
                0x000d5190                sk_find
                0x000d5260                sk_find_ex
                0x000d5330                sk_push
                0x000d5370                sk_unshift
                0x000d5410                sk_shift
                0x000d5470                sk_pop
                0x000d5490                sk_zero
                0x000d54e0                sk_pop_free
                0x000d5550                sk_num
                0x000d5570                sk_value
                0x000d5590                sk_set
                0x000d55c0                sk_sort
                0x000d5610                sk_is_sorted
 *fill*         0x000d5624        0xc 
 .text          0x000d5630      0x444 libcrypto_pic.a(rsa_crpt.pico)
                0x000d5630                RSA_size
                0x000d5670                RSA_public_encrypt
                0x000d5680                RSA_private_encrypt
                0x000d5690                RSA_private_decrypt
                0x000d56a0                RSA_public_decrypt
                0x000d56b0                RSA_flags
                0x000d56d0                RSA_blinding_off
                0x000d5720                RSA_blinding_on
                0x000d57a0                RSA_setup_blinding
 *fill*         0x000d5a74        0xc 
 .text          0x000d5a80      0x870 libcrypto_pic.a(rsa_pss.pico)
                0x000d5a80                RSA_verify_PKCS1_PSS
                0x000d5ad0                RSA_verify_PKCS1_PSS_mgf1
                0x000d5f80                RSA_padding_add_PKCS1_PSS
                0x000d5fd0                RSA_padding_add_PKCS1_PSS_mgf1
 .text          0x000d62f0     0x1057 libcrypto_pic.a(rsa_pmeth.pico)
 *fill*         0x000d7347        0x9 
 .text          0x000d7350      0x2ac libcrypto_pic.a(rsa_saos.pico)
                0x000d7350                RSA_sign_ASN1_OCTET_STRING
                0x000d7490                RSA_verify_ASN1_OCTET_STRING
 *fill*         0x000d75fc        0x4 
 .text          0x000d7600      0x6ab libcrypto_pic.a(rsa_gen.pico)
                0x000d7600                RSA_generate_key_ex
 *fill*         0x000d7cab        0x5 
 .text          0x000d7cb0     0x147e libcrypto_pic.a(rsa_ameth.pico)
 *fill*         0x000d912e        0x2 
 .text          0x000d9130      0x295 libcrypto_pic.a(rsa_asn1.pico)
                0x000d9130                d2i_RSA_PSS_PARAMS
                0x000d9170                i2d_RSA_PSS_PARAMS
                0x000d91b0                RSA_PSS_PARAMS_new
                0x000d91e0                RSA_PSS_PARAMS_free
                0x000d9210                d2i_RSAPrivateKey
                0x000d9250                i2d_RSAPrivateKey
                0x000d9290                d2i_RSAPublicKey
                0x000d92d0                i2d_RSAPublicKey
                0x000d9310                RSAPublicKey_dup
                0x000d9340                RSAPrivateKey_dup
 *fill*         0x000d93c5        0xb 
 .text          0x000d93d0      0x530 libcrypto_pic.a(f_int.pico)
                0x000d93d0                i2a_ASN1_INTEGER
                0x000d9540                a2i_ASN1_INTEGER
 .text          0x000d9900      0x83b libcrypto_pic.a(rsa_oaep.pico)
                0x000d9900                RSA_padding_add_PKCS1_OAEP
                0x000d9b80                RSA_padding_check_PKCS1_OAEP
                0x000d9fb0                PKCS1_MGF1
 *fill*         0x000da13b        0x5 
 .text          0x000da140      0x284 libcrypto_pic.a(rsa_ssl.pico)
                0x000da140                RSA_padding_add_SSLv23
                0x000da230                RSA_padding_check_SSLv23
 *fill*         0x000da3c4        0xc 
 .text          0x000da3d0      0x4d6 libcrypto_pic.a(rsa_pk1.pico)
                0x000da3d0                RSA_padding_add_PKCS1_type_1
                0x000da480                RSA_padding_check_PKCS1_type_1
                0x000da600                RSA_padding_add_PKCS1_type_2
                0x000da6e0                RSA_padding_check_PKCS1_type_2
 *fill*         0x000da8a6        0xa 
 .text          0x000da8b0      0x864 libcrypto_pic.a(rsa_sign.pico)
                0x000da8b0                RSA_sign
                0x000dab10                int_rsa_verify
                0x000db0a0                RSA_verify
 *fill*         0x000db114        0xc 
 .text          0x000db120      0x890 libcrypto_pic.a(rsa_lib.pico)
                0x000db120                RSA_new
                0x000db150                RSA_new_method
                0x000db390                RSA_set_default_method
                0x000db3b0                RSA_get_default_method
                0x000db3e0                RSA_get_method
                0x000db3f0                RSA_set_method
                0x000db450                RSA_free
                0x000db590                RSA_up_ref
                0x000db5f0                RSA_get_ex_new_index
                0x000db640                RSA_set_ex_data
                0x000db680                RSA_get_ex_data
                0x000db6b0                RSA_memory_lock
 .text          0x000db9b0     0x1c2c libcrypto_pic.a(rsa_eay.pico)
                0x000db9b0                RSA_PKCS1_SSLeay
 *fill*         0x000dd5dc        0x4 
 .text          0x000dd5e0      0x1f3 libcrypto_pic.a(tb_rsa.pico)
                0x000dd5e0                ENGINE_unregister_RSA
                0x000dd610                ENGINE_register_RSA
                0x000dd6a0                ENGINE_register_all_RSA
                0x000dd720                ENGINE_set_default_RSA
                0x000dd780                ENGINE_get_default_RSA
                0x000dd7b0                ENGINE_get_RSA
                0x000dd7c0                ENGINE_set_RSA
 *fill*         0x000dd7d3        0xd 
 .text          0x000dd7e0      0x7ce libcrypto_pic.a(bn_blind.pico)
                0x000dd7e0                BN_BLINDING_new
                0x000dd910                BN_BLINDING_free
                0x000dd980                BN_BLINDING_update
                0x000ddab0                BN_BLINDING_create_param
                0x000ddcd0                BN_BLINDING_convert
                0x000ddd80                BN_BLINDING_convert_ex
                0x000dde60                BN_BLINDING_invert
                0x000ddee0                BN_BLINDING_invert_ex
                0x000ddf60                BN_BLINDING_get_thread_id
                0x000ddf70                BN_BLINDING_set_thread_id
                0x000ddf80                BN_BLINDING_thread_id
                0x000ddf90                BN_BLINDING_get_flags
                0x000ddfa0                BN_BLINDING_set_flags
 *fill*         0x000ddfae        0x2 
 .text          0x000ddfb0      0x24e libcrypto_pic.a(rsa_x931.pico)
                0x000ddfb0                RSA_padding_add_X931
                0x000de080                RSA_padding_check_X931
                0x000de1b0                RSA_X931_hash_id
 *fill*         0x000de1fe        0x2 
 .text          0x000de200      0x11c libcrypto_pic.a(rsa_none.pico)
                0x000de200                RSA_padding_add_none
                0x000de290                RSA_padding_check_none
 *fill*         0x000de31c        0x4 
 .text          0x000de320      0x41b libcrypto_pic.a(rand_unix.pico)
                0x000de320                RAND_poll
 *fill*         0x000de73b        0x5 
 .text          0x000de740      0x37c libcrypto_pic.a(rand_egd.pico)
                0x000de740                RAND_query_egd_bytes
                0x000dea20                RAND_egd_bytes
                0x000dea70                RAND_egd
 *fill*         0x000deabc        0x4 
 .text          0x000deac0      0x420 libcrypto_pic.a(rand_lib.pico)
                0x000deac0                RAND_set_rand_method
                0x000deb10                RAND_get_rand_method
                0x000deb70                RAND_set_rand_engine
                0x000dec00                RAND_cleanup
                0x000dec90                RAND_seed
                0x000ded00                RAND_add
                0x000ded70                RAND_bytes
                0x000dedf0                RAND_pseudo_bytes
                0x000dee70                RAND_status
 .text          0x000deee0      0xd72 libcrypto_pic.a(md_rand.pico)
                0x000df6b0                RAND_SSLeay
                0x000df6d0                ssleay_rand_bytes
 *fill*         0x000dfc52        0xe 
 .text          0x000dfc60      0x1f3 libcrypto_pic.a(tb_rand.pico)
                0x000dfc60                ENGINE_unregister_RAND
                0x000dfc90                ENGINE_register_RAND
                0x000dfd20                ENGINE_register_all_RAND
                0x000dfda0                ENGINE_set_default_RAND
                0x000dfe00                ENGINE_get_default_RAND
                0x000dfe30                ENGINE_get_RAND
                0x000dfe40                ENGINE_set_RAND
 *fill*         0x000dfe53        0xd 
 .text          0x000dfe60      0x386 libcrypto_pic.a(pk7_attr.pico)
                0x000dfe60                PKCS7_add_attrib_smimecap
                0x000dff00                PKCS7_get_smimecap
                0x000dff70                PKCS7_simple_smimecap
                0x000e0070                PKCS7_add_attrib_content_type
                0x000e00e0                PKCS7_add0_attrib_signing_time
                0x000e0170                PKCS7_add1_attrib_digest
 *fill*         0x000e01e6        0xa 
 .text          0x000e01f0     0x27c6 libcrypto_pic.a(pk7_doit.pico)
                0x000e01f0                PKCS7_dataInit
                0x000e0aa0                PKCS7_dataDecode
                0x000e1510                PKCS7_dataFinal
                0x000e1d10                PKCS7_SIGNER_INFO_sign
                0x000e1f50                PKCS7_dataVerify
                0x000e2120                PKCS7_signatureVerify
                0x000e24d0                PKCS7_digest_from_attributes
                0x000e2500                PKCS7_get_issuer_and_serial
                0x000e2580                PKCS7_get_signed_attribute
                0x000e2680                PKCS7_get_attribute
                0x000e26b0                PKCS7_set_signed_attributes
                0x000e2770                PKCS7_set_attributes
                0x000e2830                PKCS7_add_signed_attribute
                0x000e2980                PKCS7_add_attribute
 *fill*         0x000e29b6        0xa 
 .text          0x000e29c0     0x105b libcrypto_pic.a(pk7_lib.pico)
                0x000e29c0                PKCS7_ctrl
                0x000e2ae0                PKCS7_content_new
                0x000e2b40                PKCS7_set_type
                0x000e2d30                PKCS7_set_content
                0x000e2de0                PKCS7_set0_type_other
                0x000e2e20                PKCS7_add_signer
                0x000e2f80                PKCS7_add_certificate
                0x000e3070                PKCS7_add_crl
                0x000e3160                PKCS7_SIGNER_INFO_set
                0x000e32e0                PKCS7_add_signature
                0x000e33c0                PKCS7_set_digest
                0x000e34a0                PKCS7_get_signer_info
                0x000e3500                PKCS7_SIGNER_INFO_get0_algs
                0x000e3530                PKCS7_RECIP_INFO_get0_alg
                0x000e3550                PKCS7_add_recipient
                0x000e3610                PKCS7_RECIP_INFO_set
                0x000e37d0                PKCS7_add_recipient_info
                0x000e3860                PKCS7_cert_from_signer_info
                0x000e38c0                PKCS7_set_cipher
                0x000e3970                PKCS7_stream
 *fill*         0x000e3a1b        0x5 
 .text          0x000e3a20      0xa8d libcrypto_pic.a(pk7_asn1.pico)
                0x000e3a20                d2i_PKCS7
                0x000e3a60                i2d_PKCS7
                0x000e3aa0                PKCS7_new
                0x000e3ad0                PKCS7_free
                0x000e3b00                i2d_PKCS7_NDEF
                0x000e3b40                PKCS7_dup
                0x000e3b70                d2i_PKCS7_SIGNED
                0x000e3bb0                i2d_PKCS7_SIGNED
                0x000e3bf0                PKCS7_SIGNED_new
                0x000e3c20                PKCS7_SIGNED_free
                0x000e3c50                d2i_PKCS7_SIGNER_INFO
                0x000e3c90                i2d_PKCS7_SIGNER_INFO
                0x000e3cd0                PKCS7_SIGNER_INFO_new
                0x000e3d00                PKCS7_SIGNER_INFO_free
                0x000e3d30                d2i_PKCS7_ISSUER_AND_SERIAL
                0x000e3d70                i2d_PKCS7_ISSUER_AND_SERIAL
                0x000e3db0                PKCS7_ISSUER_AND_SERIAL_new
                0x000e3de0                PKCS7_ISSUER_AND_SERIAL_free
                0x000e3e10                d2i_PKCS7_ENVELOPE
                0x000e3e50                i2d_PKCS7_ENVELOPE
                0x000e3e90                PKCS7_ENVELOPE_new
                0x000e3ec0                PKCS7_ENVELOPE_free
                0x000e3ef0                d2i_PKCS7_RECIP_INFO
                0x000e3f30                i2d_PKCS7_RECIP_INFO
                0x000e3f70                PKCS7_RECIP_INFO_new
                0x000e3fa0                PKCS7_RECIP_INFO_free
                0x000e3fd0                d2i_PKCS7_ENC_CONTENT
                0x000e4010                i2d_PKCS7_ENC_CONTENT
                0x000e4050                PKCS7_ENC_CONTENT_new
                0x000e4080                PKCS7_ENC_CONTENT_free
                0x000e40b0                d2i_PKCS7_SIGN_ENVELOPE
                0x000e40f0                i2d_PKCS7_SIGN_ENVELOPE
                0x000e4130                PKCS7_SIGN_ENVELOPE_new
                0x000e4160                PKCS7_SIGN_ENVELOPE_free
                0x000e4190                d2i_PKCS7_ENCRYPT
                0x000e41d0                i2d_PKCS7_ENCRYPT
                0x000e4210                PKCS7_ENCRYPT_new
                0x000e4240                PKCS7_ENCRYPT_free
                0x000e4270                d2i_PKCS7_DIGEST
                0x000e42b0                i2d_PKCS7_DIGEST
                0x000e42f0                PKCS7_DIGEST_new
                0x000e4320                PKCS7_DIGEST_free
                0x000e4350                PKCS7_print_ctx
 *fill*         0x000e44ad        0x3 
 .text          0x000e44b0      0x12e libcrypto_pic.a(p12_p8e.pico)
                0x000e44b0                PKCS8_encrypt
 *fill*         0x000e45de        0x2 
 .text          0x000e45e0       0x4f libcrypto_pic.a(p12_p8d.pico)
                0x000e45e0                PKCS8_decrypt
 *fill*         0x000e462f        0x1 
 .text          0x000e4630      0x383 libcrypto_pic.a(p12_utl.pico)
                0x000e4630                OPENSSL_asc2uni
                0x000e46d0                OPENSSL_uni2asc
                0x000e4760                i2d_PKCS12_bio
                0x000e47a0                i2d_PKCS12_fp
                0x000e47e0                d2i_PKCS12_bio
                0x000e4820                d2i_PKCS12_fp
                0x000e4860                PKCS12_x5092certbag
                0x000e48a0                PKCS12_x509crl2certbag
                0x000e48e0                PKCS12_certbag2x509
                0x000e4950                PKCS12_certbag2x509crl
 *fill*         0x000e49b3        0xd 
 .text          0x000e49c0      0x68b libcrypto_pic.a(p12_add.pico)
                0x000e49c0                PKCS12_item_pack_safebag
                0x000e4a90                PKCS12_MAKE_KEYBAG
                0x000e4b00                PKCS12_MAKE_SHKEYBAG
                0x000e4be0                PKCS12_pack_p7data
                0x000e4cc0                PKCS12_unpack_p7data
                0x000e4d40                PKCS12_pack_p7encdata
                0x000e4ed0                PKCS12_unpack_p7encdata
                0x000e4f40                PKCS12_decrypt_skey
                0x000e4f80                PKCS12_pack_authsafes
                0x000e4fd0                PKCS12_unpack_authsafes
 *fill*         0x000e504b        0x5 
 .text          0x000e5050      0x457 libcrypto_pic.a(p12_decr.pico)
                0x000e5050                PKCS12_pbe_crypt
                0x000e5240                PKCS12_item_decrypt_d2i
                0x000e5360                PKCS12_item_i2d_encrypt
 *fill*         0x000e54a7        0x9 
 .text          0x000e54b0      0x37e libcrypto_pic.a(p12_asn.pico)
                0x000e54b0                d2i_PKCS12
                0x000e54f0                i2d_PKCS12
                0x000e5530                PKCS12_new
                0x000e5560                PKCS12_free
                0x000e5590                d2i_PKCS12_MAC_DATA
                0x000e55d0                i2d_PKCS12_MAC_DATA
                0x000e5610                PKCS12_MAC_DATA_new
                0x000e5640                PKCS12_MAC_DATA_free
                0x000e5670                d2i_PKCS12_BAGS
                0x000e56b0                i2d_PKCS12_BAGS
                0x000e56f0                PKCS12_BAGS_new
                0x000e5720                PKCS12_BAGS_free
                0x000e5750                d2i_PKCS12_SAFEBAG
                0x000e5790                i2d_PKCS12_SAFEBAG
                0x000e57d0                PKCS12_SAFEBAG_new
                0x000e5800                PKCS12_SAFEBAG_free
 *fill*         0x000e582e        0x2 
 .text          0x000e5830       0xde libcrypto_pic.a(x_sig.pico)
                0x000e5830                d2i_X509_SIG
                0x000e5870                i2d_X509_SIG
                0x000e58b0                X509_SIG_new
                0x000e58e0                X509_SIG_free
 *fill*         0x000e590e        0x2 
 .text          0x000e5910      0x704 libcrypto_pic.a(p12_key.pico)
                0x000e5910                PKCS12_key_gen_asc
                0x000e5a10                PKCS12_key_gen_uni
 *fill*         0x000e6014        0xc 
 .text          0x000e6020      0x24c libcrypto_pic.a(p12_crpt.pico)
                0x000e6020                PKCS12_PBE_add
                0x000e6030                PKCS12_PBE_keyivgen
 *fill*         0x000e626c        0x4 
 .text          0x000e6270       0xc5 libcrypto_pic.a(pem_oth.pico)
                0x000e6270                PEM_ASN1_read_bio
 *fill*         0x000e6335        0xb 
 .text          0x000e6340     0x200c libcrypto_pic.a(pem_lib.pico)
                0x000e6340                PEM_def_callback
                0x000e6480                PEM_proc_type
                0x000e6520                PEM_dek_info
                0x000e65f0                PEM_ASN1_read
                0x000e66b0                PEM_bytes_read_bio
                0x000e6b80                PEM_read_bio
                0x000e7360                PEM_get_EVP_CIPHER_INFO
                0x000e7610                PEM_do_header
                0x000e7880                PEM_ASN1_write
                0x000e7950                PEM_ASN1_write_bio
                0x000e7e60                PEM_write_bio
                0x000e8160                PEM_write
                0x000e8220                PEM_read
                0x000e82e0                pem_check_suffix
 *fill*         0x000e834c        0x4 
 .text          0x000e8350       0xbe libcrypto_pic.a(m_md5.pico)
                0x000e8350                EVP_md5
 *fill*         0x000e840e        0x2 
 .text          0x000e8410      0x4bd libcrypto_pic.a(evp_key.pico)
                0x000e8410                EVP_set_pw_prompt
                0x000e8460                EVP_get_pw_prompt
                0x000e8490                EVP_read_pw_string
                0x000e84e0                EVP_read_pw_string_min
                0x000e85e0                EVP_BytesToKey
 *fill*         0x000e88cd        0x3 
 .text          0x000e88d0     0x1ae5 libcrypto_pic.a(ui_lib.pico)
                0x000e88d0                UI_new
                0x000e8990                UI_new_method
                0x000e8a50                UI_get_default_method
                0x000e8a80                UI_free
                0x000e8b40                UI_add_input_string
                0x000e8c60                UI_dup_input_string
                0x000e8dc0                UI_add_verify_string
                0x000e8ee0                UI_dup_verify_string
                0x000e9030                UI_add_input_boolean
                0x000e9260                UI_dup_input_boolean
                0x000e9430                UI_add_info_string
                0x000e9530                UI_dup_info_string
                0x000e9670                UI_add_error_string
                0x000e9770                UI_dup_error_string
                0x000e98b0                UI_construct_prompt
                0x000e99c0                UI_add_user_data
                0x000e99e0                UI_get0_user_data
                0x000e99f0                UI_get0_result
                0x000e9aa0                UI_get0_result_string
                0x000e9ac0                UI_process
                0x000e9cc0                UI_ctrl
                0x000e9d70                UI_get_ex_new_index
                0x000e9dc0                UI_set_ex_data
                0x000e9e00                UI_get_ex_data
                0x000e9e30                UI_set_default_method
                0x000e9e50                UI_get_method
                0x000e9e60                UI_set_method
                0x000e9e70                UI_create_method
                0x000e9ef0                UI_destroy_method
                0x000e9f30                UI_method_set_opener
                0x000e9f50                UI_method_set_writer
                0x000e9f70                UI_method_set_flusher
                0x000e9f90                UI_method_set_reader
                0x000e9fb0                UI_method_set_closer
                0x000e9fd0                UI_method_set_prompt_constructor
                0x000e9ff0                UI_method_get_opener
                0x000ea010                UI_method_get_writer
                0x000ea030                UI_method_get_flusher
                0x000ea050                UI_method_get_reader
                0x000ea070                UI_method_get_closer
                0x000ea090                UI_method_get_prompt_constructor
                0x000ea0b0                UI_get_string_type
                0x000ea0c0                UI_get_input_flags
                0x000ea0e0                UI_get0_output_string
                0x000ea100                UI_get0_action_string
                0x000ea120                UI_get0_test_string
                0x000ea140                UI_get_result_minsize
                0x000ea160                UI_get_result_maxsize
                0x000ea180                UI_set_result
 *fill*         0x000ea3b5        0xb 
 .text          0x000ea3c0      0x905 libcrypto_pic.a(md5_dgst.pico)
                0x000ea3c0                MD5_Update
                0x000ea4f0                md5_block_data_order
                0x000eab70                MD5_Transform
                0x000eabb0                MD5_Final
                0x000eac90                MD5_Init
 *fill*         0x000eacc5        0xb 
 .text          0x000eacd0      0x261 libcrypto_pic.a(obj_lib.pico)
                0x000eacd0                OBJ_dup
                0x000eaef0                OBJ_cmp
 *fill*         0x000eaf31        0xf 
 .text          0x000eaf40     0x153e libcrypto_pic.a(obj_dat.pico)
                0x000eaf40                check_defer
                0x000eaf70                OBJ_cleanup
                0x000eb080                OBJ_new_nid
                0x000eb0b0                OBJ_add_object
                0x000eb390                OBJ_nid2obj
                0x000eb480                OBJ_nid2sn
                0x000eb570                OBJ_nid2ln
                0x000eb660                OBJ_obj2nid
                0x000eb7a0                OBJ_txt2obj
                0x000eb8d0                OBJ_sn2nid
                0x000eb9d0                OBJ_ln2nid
                0x000ebad0                OBJ_obj2txt
                0x000ebea0                OBJ_txt2nid
                0x000ebef0                OBJ_bsearch_
                0x000ebf70                OBJ_bsearch_ex_
                0x000ec060                OBJ_create_objects
                0x000ec210                OBJ_create
 *fill*         0x000ec47e        0x2 
 .text          0x000ec480      0x831 libcrypto_pic.a(lhash.pico)
                0x000ec480                lh_new
                0x000ec640                lh_strhash
                0x000ec6a0                lh_free
                0x000ec720                lh_insert
                0x000ec980                lh_delete
                0x000ecb20                lh_retrieve
                0x000ecbd0                lh_doall
                0x000ecc30                lh_doall_arg
                0x000ecca0                lh_num_items
 *fill*         0x000eccb1        0xf 
 .text          0x000eccc0      0x4f3 libcrypto_pic.a(hm_pmeth.pico)
 *fill*         0x000ed1b3        0xd 
 .text          0x000ed1c0      0x170 libcrypto_pic.a(hm_ameth.pico)
 .text          0x000ed330      0x720 libcrypto_pic.a(hmac.pico)
                0x000ed330                HMAC_Init_ex
                0x000ed5c0                HMAC_Init
                0x000ed640                HMAC_CTX_init
                0x000ed690                HMAC_Update
                0x000ed6d0                HMAC_Final
                0x000ed770                HMAC_CTX_copy
                0x000ed810                HMAC_CTX_cleanup
                0x000ed870                HMAC
                0x000eda00                HMAC_CTX_set_flags
 .text          0x000eda50      0x4ac libcrypto_pic.a(pmeth_gn.pico)
                0x000eda50                EVP_PKEY_paramgen_init
                0x000edae0                EVP_PKEY_paramgen
                0x000edbd0                EVP_PKEY_keygen_init
                0x000edc60                EVP_PKEY_keygen
                0x000edd50                EVP_PKEY_CTX_set_cb
                0x000edd60                EVP_PKEY_CTX_get_cb
                0x000edd70                evp_pkey_set_cb_translate
                0x000edde0                EVP_PKEY_CTX_get_keygen_info
                0x000ede10                EVP_PKEY_new_mac_key
 *fill*         0x000edefc        0x4 
 .text          0x000edf00      0x475 libcrypto_pic.a(m_sigver.pico)
                0x000edf00                EVP_DigestSignInit
                0x000ee0d0                EVP_DigestVerifyInit
                0x000ee120                EVP_DigestSignFinal
                0x000ee280                EVP_DigestVerifyFinal
 *fill*         0x000ee375        0xb 
 .text          0x000ee380      0xbca libcrypto_pic.a(pmeth_fn.pico)
                0x000ee380                EVP_PKEY_sign_init
                0x000ee410                EVP_PKEY_sign
                0x000ee530                EVP_PKEY_verify_init
                0x000ee5c0                EVP_PKEY_verify
                0x000ee670                EVP_PKEY_verify_recover_init
                0x000ee700                EVP_PKEY_verify_recover
                0x000ee820                EVP_PKEY_encrypt_init
                0x000ee8b0                EVP_PKEY_encrypt
                0x000ee9d0                EVP_PKEY_decrypt_init
                0x000eea60                EVP_PKEY_decrypt
                0x000eeb80                EVP_PKEY_derive_init
                0x000eec10                EVP_PKEY_derive_set_peer
                0x000eee30                EVP_PKEY_derive
 *fill*         0x000eef4a        0x6 
 .text          0x000eef50      0xb93 libcrypto_pic.a(pmeth_lib.pico)
                0x000eef50                EVP_PKEY_meth_find
                0x000eeff0                EVP_PKEY_meth_new
                0x000ef060                EVP_PKEY_meth_get0_info
                0x000ef090                EVP_PKEY_meth_copy
                0x000ef140                EVP_PKEY_meth_free
                0x000ef170                EVP_PKEY_CTX_new
                0x000ef3f0                EVP_PKEY_CTX_new_id
                0x000ef420                EVP_PKEY_CTX_dup
                0x000ef590                EVP_PKEY_CTX_free
                0x000ef600                EVP_PKEY_meth_add0
                0x000ef690                EVP_PKEY_CTX_ctrl
                0x000ef7b0                EVP_PKEY_CTX_ctrl_str
                0x000ef8b0                EVP_PKEY_CTX_get_operation
                0x000ef8c0                EVP_PKEY_CTX_set0_keygen_info
                0x000ef8e0                EVP_PKEY_CTX_set_data
                0x000ef8f0                EVP_PKEY_CTX_get_data
                0x000ef900                EVP_PKEY_CTX_get0_pkey
                0x000ef910                EVP_PKEY_CTX_get0_peerkey
                0x000ef920                EVP_PKEY_CTX_set_app_data
                0x000ef930                EVP_PKEY_CTX_get_app_data
                0x000ef940                EVP_PKEY_meth_set_init
                0x000ef950                EVP_PKEY_meth_set_copy
                0x000ef960                EVP_PKEY_meth_set_cleanup
                0x000ef970                EVP_PKEY_meth_set_paramgen
                0x000ef990                EVP_PKEY_meth_set_keygen
                0x000ef9b0                EVP_PKEY_meth_set_sign
                0x000ef9d0                EVP_PKEY_meth_set_verify
                0x000ef9f0                EVP_PKEY_meth_set_verify_recover
                0x000efa10                EVP_PKEY_meth_set_signctx
                0x000efa30                EVP_PKEY_meth_set_verifyctx
                0x000efa50                EVP_PKEY_meth_set_encrypt
                0x000efa70                EVP_PKEY_meth_set_decrypt
                0x000efa90                EVP_PKEY_meth_set_derive
                0x000efab0                EVP_PKEY_meth_set_ctrl
 *fill*         0x000efae3        0xd 
 .text          0x000efaf0      0x6a7 libcrypto_pic.a(ec_pmeth.pico)
 *fill*         0x000f0197        0x9 
 .text          0x000f01a0      0x69e libcrypto_pic.a(dsa_pmeth.pico)
 *fill*         0x000f083e        0x2 
 .text          0x000f0840      0x178 libcrypto_pic.a(dsa_key.pico)
                0x000f0840                DSA_generate_key
 *fill*         0x000f09b8        0x8 
 .text          0x000f09c0      0xa8b libcrypto_pic.a(dsa_gen.pico)
                0x000f09c0                DSA_generate_parameters_ex
                0x000f0a60                dsa_builtin_paramgen
 *fill*         0x000f144b        0x5 
 .text          0x000f1450      0x401 libcrypto_pic.a(dh_pmeth.pico)
 *fill*         0x000f1851        0xf 
 .text          0x000f1860      0x28f libcrypto_pic.a(dh_gen.pico)
                0x000f1860                DH_generate_parameters_ex
 *fill*         0x000f1aef        0x1 
 .text          0x000f1af0      0x430 libcrypto_pic.a(cm_pmeth.pico)
 .text          0x000f1f20      0x14a libcrypto_pic.a(ecs_vrf.pico)
                0x000f1f20                ECDSA_do_verify
                0x000f1f60                ECDSA_verify
 *fill*         0x000f206a        0x6 
 .text          0x000f2070       0x35 libcrypto_pic.a(ech_key.pico)
                0x000f2070                ECDH_compute_key
 *fill*         0x000f20a5        0xb 
 .text          0x000f20b0      0x3ee libcrypto_pic.a(ech_lib.pico)
                0x000f20b0                ECDH_set_default_method
                0x000f20d0                ECDH_get_default_method
                0x000f2100                ECDH_set_method
                0x000f2150                ecdh_check
                0x000f23c0                ECDH_get_ex_new_index
                0x000f2410                ECDH_set_ex_data
                0x000f2460                ECDH_get_ex_data
 *fill*         0x000f249e        0x2 
 .text          0x000f24a0      0x1f3 libcrypto_pic.a(tb_ecdh.pico)
                0x000f24a0                ENGINE_unregister_ECDH
                0x000f24d0                ENGINE_register_ECDH
                0x000f2560                ENGINE_register_all_ECDH
                0x000f25e0                ENGINE_set_default_ECDH
                0x000f2640                ENGINE_get_default_ECDH
                0x000f2670                ENGINE_get_ECDH
                0x000f2680                ENGINE_set_ECDH
 *fill*         0x000f2693        0xd 
 .text          0x000f26a0      0x3fe libcrypto_pic.a(ech_ossl.pico)
                0x000f26a0                ECDH_OpenSSL
 *fill*         0x000f2a9e        0x2 
 .text          0x000f2aa0      0x863 libcrypto_pic.a(p5_crpt2.pico)
                0x000f2aa0                PKCS5_PBKDF2_HMAC
                0x000f2d60                PKCS5_PBKDF2_HMAC_SHA1
                0x000f2dc0                PKCS5_v2_PBE_keyivgen
                0x000f2fb0                PKCS5_v2_PBKDF2_keyivgen
 *fill*         0x000f3303        0xd 
 .text          0x000f3310      0x3a0 libcrypto_pic.a(p5_crpt.pico)
                0x000f3310                PKCS5_PBE_add
                0x000f3320                PKCS5_PBE_keyivgen
 .text          0x000f36b0      0x36c libcrypto_pic.a(p5_pbe.pico)
                0x000f36b0                d2i_PBEPARAM
                0x000f36f0                i2d_PBEPARAM
                0x000f3730                PBEPARAM_new
                0x000f3760                PBEPARAM_free
                0x000f3790                PKCS5_pbe_set0_algor
                0x000f3990                PKCS5_pbe_set
 *fill*         0x000f3a1c        0x4 
 .text          0x000f3a20      0x577 libcrypto_pic.a(evp_pbe.pico)
                0x000f3a20                EVP_PBE_CipherInit
                0x000f3c80                EVP_PBE_find
                0x000f3d50                EVP_PBE_alg_add_type
                0x000f3e30                EVP_PBE_alg_add
                0x000f3f20                EVP_PBE_cleanup
 *fill*         0x000f3f97        0x9 
 .text          0x000f3fa0      0x8ed libcrypto_pic.a(bio_enc.pico)
                0x000f3fa0                BIO_f_cipher
                0x000f3fc0                BIO_set_cipher
 *fill*         0x000f488d        0x3 
 .text          0x000f4890      0x43d libcrypto_pic.a(bio_md.pico)
                0x000f4890                BIO_f_md
 *fill*         0x000f4ccd        0x3 
 .text          0x000f4cd0      0xadd libcrypto_pic.a(p_lib.pico)
                0x000f4cd0                EVP_PKEY_bits
                0x000f4cf0                EVP_PKEY_size
                0x000f4d10                EVP_PKEY_save_parameters
                0x000f4d40                EVP_PKEY_copy_parameters
                0x000f4de0                EVP_PKEY_missing_parameters
                0x000f4e00                EVP_PKEY_cmp_parameters
                0x000f4e30                EVP_PKEY_cmp
                0x000f4ea0                EVP_PKEY_new
                0x000f4f40                EVP_PKEY_set_type
                0x000f50b0                EVP_PKEY_set_type_str
                0x000f50e0                EVP_PKEY_assign
                0x000f5130                EVP_PKEY_get0
                0x000f5140                EVP_PKEY_set1_RSA
                0x000f51a0                EVP_PKEY_get1_RSA
                0x000f5210                EVP_PKEY_set1_DSA
                0x000f5270                EVP_PKEY_get1_DSA
                0x000f52e0                EVP_PKEY_set1_EC_KEY
                0x000f5340                EVP_PKEY_get1_EC_KEY
                0x000f53b0                EVP_PKEY_set1_DH
                0x000f5410                EVP_PKEY_get1_DH
                0x000f5480                EVP_PKEY_type
                0x000f54d0                EVP_PKEY_id
                0x000f54e0                EVP_PKEY_base_id
                0x000f5530                EVP_PKEY_free
                0x000f55e0                EVP_PKEY_print_public
                0x000f5660                EVP_PKEY_print_private
                0x000f56e0                EVP_PKEY_print_params
                0x000f5760                EVP_PKEY_get_default_digest_nid
 *fill*         0x000f57ad        0x3 
 .text          0x000f57b0      0x209 libcrypto_pic.a(p_verify.pico)
                0x000f57b0                EVP_VerifyFinal
 *fill*         0x000f59b9        0x7 
 .text          0x000f59c0      0x1fe libcrypto_pic.a(p_sign.pico)
                0x000f59c0                EVP_SignFinal
 *fill*         0x000f5bbe        0x2 
 .text          0x000f5bc0     0x13be libcrypto_pic.a(evp_enc.pico)
                0x000f5bc0                EVP_CIPHER_CTX_init
                0x000f5c00                EVP_CIPHER_CTX_new
                0x000f5c60                EVP_CipherInit
                0x000f5ce0                EVP_CipherInit_ex
                0x000f6100                EVP_CIPHER_CTX_cleanup
                0x000f61a0                EVP_CIPHER_CTX_ctrl
                0x000f6260                EVP_CipherUpdate
                0x000f6290                EVP_EncryptUpdate
                0x000f6490                EVP_DecryptUpdate
                0x000f6600                EVP_CipherFinal_ex
                0x000f6630                EVP_EncryptFinal_ex
                0x000f6760                EVP_DecryptFinal_ex
                0x000f68f0                EVP_CipherFinal
                0x000f6920                EVP_EncryptFinal
                0x000f6940                EVP_DecryptFinal
                0x000f6960                EVP_EncryptInit
                0x000f69e0                EVP_EncryptInit_ex
                0x000f6a30                EVP_DecryptInit
                0x000f6ab0                EVP_DecryptInit_ex
                0x000f6b00                EVP_CIPHER_CTX_free
                0x000f6ba0                EVP_CIPHER_CTX_set_key_length
                0x000f6cc0                EVP_CIPHER_CTX_set_padding
                0x000f6cf0                EVP_CIPHER_CTX_rand_key
                0x000f6dd0                EVP_CIPHER_CTX_copy
 *fill*         0x000f6f7e        0x2 
 .text          0x000f6f80      0x2d3 libcrypto_pic.a(tb_cipher.pico)
                0x000f6f80                ENGINE_unregister_ciphers
                0x000f6fb0                ENGINE_register_ciphers
                0x000f7060                ENGINE_register_all_ciphers
                0x000f7100                ENGINE_set_default_ciphers
                0x000f7180                ENGINE_get_cipher_engine
                0x000f71b0                ENGINE_get_cipher
                0x000f7230                ENGINE_get_ciphers
                0x000f7240                ENGINE_set_ciphers
 *fill*         0x000f7253        0xd 
 .text          0x000f7260      0x8f3 libcrypto_pic.a(digest.pico)
                0x000f7260                EVP_MD_CTX_init
                0x000f72a0                EVP_MD_CTX_create
                0x000f7310                EVP_DigestInit
                0x000f7370                EVP_DigestInit_ex
                0x000f7580                EVP_DigestUpdate
                0x000f7590                EVP_DigestFinal
                0x000f7640                EVP_DigestFinal_ex
                0x000f76f0                EVP_MD_CTX_cleanup
                0x000f77d0                EVP_MD_CTX_copy
                0x000f7820                EVP_MD_CTX_copy_ex
                0x000f79d0                EVP_Digest
                0x000f7b20                EVP_MD_CTX_destroy
 *fill*         0x000f7b53        0xd 
 .text          0x000f7b60      0x2d3 libcrypto_pic.a(tb_digest.pico)
                0x000f7b60                ENGINE_unregister_digests
                0x000f7b90                ENGINE_register_digests
                0x000f7c40                ENGINE_register_all_digests
                0x000f7ce0                ENGINE_set_default_digests
                0x000f7d60                ENGINE_get_digest_engine
                0x000f7d90                ENGINE_get_digest
                0x000f7e10                ENGINE_get_digests
                0x000f7e20                ENGINE_set_digests
 *fill*         0x000f7e33        0xd 
 .text          0x000f7e40     0x27af libcrypto_pic.a(err.pico)
                0x000f7e40                ERR_get_implementation
                0x000f7ed0                ERR_set_implementation
                0x000f7f60                ERR_load_ERR_strings
                0x000f8210                ERR_load_strings
                0x000f8270                ERR_unload_strings
                0x000f82d0                ERR_free_strings
                0x000f8360                ERR_put_error
                0x000f8460                ERR_get_state
                0x000f8770                ERR_clear_error
                0x000f8810                ERR_get_error
                0x000f8a40                ERR_get_error_line
                0x000f8b20                ERR_get_error_line_data
                0x000f8b70                ERR_peek_error
                0x000f8bc0                ERR_peek_error_line
                0x000f8c50                ERR_peek_error_line_data
                0x000f8d20                ERR_peek_last_error
                0x000f8d50                ERR_peek_last_error_line
                0x000f8dc0                ERR_peek_last_error_line_data
                0x000f8e80                ERR_error_string_n
                0x000f9210                ERR_lib_error_string
                0x000f92c0                ERR_func_error_string
                0x000f9370                ERR_reason_error_string
                0x000f9440                ERR_error_string
                0x000f9490                ERR_get_string_table
                0x000f9530                ERR_get_err_state_table
                0x000f95d0                ERR_release_err_state_table
                0x000f9660                ERR_remove_thread_state
                0x000f9720                ERR_remove_state
                0x000f97d0                ERR_get_next_error_library
                0x000f9860                ERR_set_error_data
                0x000f98e0                ERR_add_error_data
                0x000f9910                ERR_add_error_vdata
                0x000f9a60                ERR_set_mark
                0x000f9aa0                ERR_pop_to_mark
 *fill*         0x000fa5ef        0x1 
 .text          0x000fa5f0      0x36c libcrypto_pic.a(tb_pkmeth.pico)
                0x000fa5f0                ENGINE_unregister_pkey_meths
                0x000fa620                ENGINE_register_pkey_meths
                0x000fa6d0                ENGINE_register_all_pkey_meths
                0x000fa770                ENGINE_set_default_pkey_meths
                0x000fa7f0                ENGINE_get_pkey_meth_engine
                0x000fa820                ENGINE_get_pkey_meth
                0x000fa8a0                ENGINE_get_pkey_meths
                0x000fa8b0                ENGINE_set_pkey_meths
                0x000fa8d0                engine_pkey_meths_free
 *fill*         0x000fa95c        0x4 
 .text          0x000fa960      0x1f3 libcrypto_pic.a(tb_ecdsa.pico)
                0x000fa960                ENGINE_unregister_ECDSA
                0x000fa990                ENGINE_register_ECDSA
                0x000faa20                ENGINE_register_all_ECDSA
                0x000faaa0                ENGINE_set_default_ECDSA
                0x000fab00                ENGINE_get_default_ECDSA
                0x000fab30                ENGINE_get_ECDSA
                0x000fab40                ENGINE_set_ECDSA
 *fill*         0x000fab53        0xd 
 .text          0x000fab60      0x1f3 libcrypto_pic.a(tb_dh.pico)
                0x000fab60                ENGINE_unregister_DH
                0x000fab90                ENGINE_register_DH
                0x000fac20                ENGINE_register_all_DH
                0x000faca0                ENGINE_set_default_DH
                0x000fad00                ENGINE_get_default_DH
                0x000fad30                ENGINE_get_DH
                0x000fad40                ENGINE_set_DH
 *fill*         0x000fad53        0xd 
 .text          0x000fad60      0x1f3 libcrypto_pic.a(tb_dsa.pico)
                0x000fad60                ENGINE_unregister_DSA
                0x000fad90                ENGINE_register_DSA
                0x000fae20                ENGINE_register_all_DSA
                0x000faea0                ENGINE_set_default_DSA
                0x000faf00                ENGINE_get_default_DSA
                0x000faf30                ENGINE_get_DSA
                0x000faf40                ENGINE_set_DSA
 *fill*         0x000faf53        0xd 
 .text          0x000faf60      0x5d8 libcrypto_pic.a(tb_asnmth.pico)
                0x000faf60                ENGINE_unregister_pkey_asn1_meths
                0x000faf90                ENGINE_register_pkey_asn1_meths
                0x000fb040                ENGINE_register_all_pkey_asn1_meths
                0x000fb0e0                ENGINE_set_default_pkey_asn1_meths
                0x000fb160                ENGINE_get_pkey_asn1_meth_engine
                0x000fb190                ENGINE_get_pkey_asn1_meth
                0x000fb210                ENGINE_get_pkey_asn1_meths
                0x000fb220                ENGINE_set_pkey_asn1_meths
                0x000fb240                engine_pkey_asn1_meths_free
                0x000fb2d0                ENGINE_get_pkey_asn1_meth_str
                0x000fb3b0                ENGINE_pkey_asn1_find_str
 *fill*         0x000fb538        0x8 
 .text          0x000fb540      0x67f libcrypto_pic.a(eng_table.pico)
                0x000fb540                ENGINE_get_table_flags
                0x000fb560                ENGINE_set_table_flags
                0x000fb580                engine_table_register
                0x000fb790                engine_table_unregister
                0x000fb890                engine_table_cleanup
                0x000fb970                engine_table_select
                0x000fbb10                engine_table_doall
 *fill*         0x000fbbbf        0x1 
 .text          0x000fbbc0      0x9d8 libcrypto_pic.a(eng_list.pico)
                0x000fbbc0                ENGINE_get_first
                0x000fbc40                ENGINE_get_last
                0x000fbcc0                ENGINE_get_next
                0x000fbd80                ENGINE_get_prev
                0x000fbe40                ENGINE_add
                0x000fc050                ENGINE_remove
                0x000fc1c0                ENGINE_by_id
                0x000fc4d0                ENGINE_up_ref
 *fill*         0x000fc598        0x8 
 .text          0x000fc5a0      0x7db libcrypto_pic.a(eng_ctrl.pico)
                0x000fc5a0                ENGINE_ctrl
                0x000fc940                ENGINE_cmd_is_executable
                0x000fc9d0                ENGINE_ctrl_cmd
                0x000fcac0                ENGINE_ctrl_cmd_string
 *fill*         0x000fcd7b        0x5 
 .text          0x000fcd80      0x215 libcrypto_pic.a(ecs_sign.pico)
                0x000fcd80                ECDSA_do_sign
                0x000fcde0                ECDSA_do_sign_ex
                0x000fce20                ECDSA_sign
                0x000fcec0                ECDSA_sign_ex
                0x000fcf60                ECDSA_sign_setup
 *fill*         0x000fcf95        0xb 
 .text          0x000fcfa0      0xec9 libcrypto_pic.a(ecs_ossl.pico)
                0x000fcfa0                ECDSA_OpenSSL
 *fill*         0x000fde69        0x7 
 .text          0x000fde70       0xde libcrypto_pic.a(ecs_asn1.pico)
                0x000fde70                d2i_ECDSA_SIG
                0x000fdeb0                i2d_ECDSA_SIG
                0x000fdef0                ECDSA_SIG_new
                0x000fdf20                ECDSA_SIG_free
 *fill*         0x000fdf4e        0x2 
 .text          0x000fdf50      0xb7e libcrypto_pic.a(ecp_oct.pico)
                0x000fdf50                ec_GFp_simple_set_compressed_coordinates
                0x000fe410                ec_GFp_simple_point2oct
                0x000fe790                ec_GFp_simple_oct2point
 *fill*         0x000feace        0x2 
 .text          0x000fead0      0x8e2 libcrypto_pic.a(bn_sqrt.pico)
                0x000fead0                BN_mod_sqrt
 *fill*         0x000ff3b2        0xe 
 .text          0x000ff3c0      0x29d libcrypto_pic.a(bn_kron.pico)
                0x000ff3c0                BN_kronecker
 *fill*         0x000ff65d        0x3 
 .text          0x000ff660      0x9f2 libcrypto_pic.a(ec2_oct.pico)
                0x000ff660                ec_GF2m_simple_set_compressed_coordinates
                0x000ff950                ec_GF2m_simple_point2oct
                0x000ffcd0                ec_GF2m_simple_oct2point
 *fill*         0x00100052        0xe 
 .text          0x00100060     0x1290 libcrypto_pic.a(ec_ameth.pico)
 .text          0x001012f0      0x4ce libcrypto_pic.a(ecs_lib.pico)
                0x001012f0                ECDSA_set_default_method
                0x00101310                ECDSA_get_default_method
                0x00101340                ECDSA_set_method
                0x00101390                ecdsa_check
                0x00101600                ECDSA_size
                0x001016e0                ECDSA_get_ex_new_index
                0x00101730                ECDSA_set_ex_data
                0x00101780                ECDSA_get_ex_data
 *fill*         0x001017be        0x2 
 .text          0x001017c0      0xe5a libcrypto_pic.a(eck_prn.pico)
                0x001017c0                ECPKParameters_print_fp
                0x00101870                ECPKParameters_print
                0x00102380                EC_KEY_print_fp
                0x00102460                EC_KEY_print
                0x001024d0                ECParameters_print_fp
                0x001025b0                ECParameters_print
 *fill*         0x0010261a        0x6 
 .text          0x00102620      0x349 libcrypto_pic.a(ec_print.pico)
                0x00102620                EC_POINT_point2bn
                0x001026f0                EC_POINT_bn2point
                0x001027d0                EC_POINT_point2hex
                0x00102900                EC_POINT_hex2point
 *fill*         0x00102969        0x7 
 .text          0x00102970     0x297f libcrypto_pic.a(ec_asn1.pico)
                0x00102970                EC_GROUP_get_basis_type
                0x001029e0                EC_GROUP_get_trinomial_basis
                0x00102a70                EC_GROUP_get_pentanomial_basis
                0x00102b30                X9_62_PENTANOMIAL_new
                0x00102b60                X9_62_PENTANOMIAL_free
                0x00102b90                X9_62_CHARACTERISTIC_TWO_new
                0x00102bc0                X9_62_CHARACTERISTIC_TWO_free
                0x00102bf0                ECPARAMETERS_new
                0x00102c20                ECPARAMETERS_free
                0x00102c50                d2i_ECPKPARAMETERS
                0x00102c90                i2d_ECPKPARAMETERS
                0x00102cd0                ECPKPARAMETERS_new
                0x00102d00                ECPKPARAMETERS_free
                0x00102d30                d2i_EC_PRIVATEKEY
                0x00102d70                i2d_EC_PRIVATEKEY
                0x00102db0                EC_PRIVATEKEY_new
                0x00102de0                EC_PRIVATEKEY_free
                0x00102e10                d2i_ECPKParameters
                0x00103900                i2d_ECPKParameters
                0x00104780                d2i_ECPrivateKey
                0x00104a80                i2d_ECPrivateKey
                0x00104ef0                i2d_ECParameters
                0x00104f60                d2i_ECParameters
                0x00105070                o2i_ECPublicKey
                0x00105170                i2o_ECPublicKey
 *fill*         0x001052ef        0x1 
 .text          0x001052f0      0xca5 libcrypto_pic.a(bn_print.pico)
                0x001052f0                BN_bn2hex
                0x00105500                BN_bn2dec
                0x00105770                BN_hex2bn
                0x001059a0                BN_dec2bn
                0x00105b50                BN_asc2bn
                0x00105be0                BN_print_fp
                0x00105c50                BN_print
                0x00105f30                BN_options
 *fill*         0x00105f95        0xb 
 .text          0x00105fa0      0x2b7 libcrypto_pic.a(ec_oct.pico)
                0x00105fa0                EC_POINT_set_compressed_coordinates_GFp
                0x00106050                EC_POINT_set_compressed_coordinates_GF2m
                0x00106100                EC_POINT_point2oct
                0x001061b0                EC_POINT_oct2point
 *fill*         0x00106257        0x9 
 .text          0x00106260     0x182d libcrypto_pic.a(ec_mult.pico)
                0x00106260                ec_wNAF_mul
                0x00107330                ec_wNAF_precompute_mult
                0x00107a40                ec_wNAF_have_precompute_mult
 *fill*         0x00107a8d        0x3 
 .text          0x00107a90       0x18 libcrypto_pic.a(dso_openssl.pico)
                0x00107a90                DSO_METHOD_openssl
 *fill*         0x00107aa8        0x8 
 .text          0x00107ab0      0x886 libcrypto_pic.a(dso_dlfcn.pico)
                0x00107ab0                DSO_METHOD_dlfcn
 *fill*         0x00108336        0xa 
 .text          0x00108340      0xbe6 libcrypto_pic.a(dso_lib.pico)
                0x00108340                DSO_new
                0x00108370                DSO_new_method
                0x001084a0                DSO_set_default_method
                0x001084c0                DSO_get_default_method
                0x001084e0                DSO_get_method
                0x001084f0                DSO_set_method
                0x00108500                DSO_free
                0x00108630                DSO_flags
                0x00108650                DSO_up_ref
                0x001086e0                DSO_load
                0x00108870                DSO_ctrl
                0x00108920                DSO_set_filename
                0x00108a20                DSO_bind_var
                0x00108ad0                DSO_bind_func
                0x00108b80                DSO_set_name_converter
                0x00108bf0                DSO_get_filename
                0x00108c50                DSO_merge
                0x00108cd0                DSO_convert_filename
                0x00108df0                DSO_get_loaded_filename
                0x00108e50                DSO_pathbyaddr
                0x00108ec0                DSO_global_lookup
 *fill*         0x00108f26        0xa 
 .text          0x00108f30     0x13d1 libcrypto_pic.a(dsa_ameth.pico)
 *fill*         0x0010a301        0xf 
 .text          0x0010a310      0x4ab libcrypto_pic.a(dsa_asn1.pico)
                0x0010a310                d2i_DSA_SIG
                0x0010a350                i2d_DSA_SIG
                0x0010a390                d2i_DSAPrivateKey
                0x0010a3d0                i2d_DSAPrivateKey
                0x0010a410                d2i_DSAparams
                0x0010a450                i2d_DSAparams
                0x0010a490                d2i_DSAPublicKey
                0x0010a4d0                i2d_DSAPublicKey
                0x0010a510                DSAparams_dup
                0x0010a540                DSA_sign
                0x0010a5d0                DSA_verify
 *fill*         0x0010a7bb        0x5 
 .text          0x0010a7c0        0xf libcrypto_pic.a(dsa_vrf.pico)
                0x0010a7c0                DSA_do_verify
 *fill*         0x0010a7cf        0x1 
 .text          0x0010a7d0      0x343 libcrypto_pic.a(x86cpuid.pico)
                0x0010a7d0                OPENSSL_ia32_cpuid
                0x0010a950                OPENSSL_rdtsc
                0x0010a970                OPENSSL_instrument_halt
                0x0010a9b0                OPENSSL_far_spin
                0x0010a9e0                OPENSSL_wipe_cpu
                0x0010aa50                OPENSSL_atomic_add
                0x0010aa70                OPENSSL_indirect_call
                0x0010aab0                OPENSSL_cleanse
                0x0010ab00                OPENSSL_ia32_rdrand
 *fill*         0x0010ab13        0xd 
 .text          0x0010ab20     0x1396 libcrypto_pic.a(mem_dbg.pico)
                0x0010ab20                CRYPTO_mem_ctrl
                0x0010acf0                CRYPTO_is_mem_check_on
                0x0010ada0                CRYPTO_dbg_set_options
                0x0010adc0                CRYPTO_dbg_get_options
                0x0010ade0                CRYPTO_push_info_
                0x0010afa0                CRYPTO_pop_info
                0x0010b120                CRYPTO_remove_all_info
                0x0010b200                CRYPTO_dbg_malloc
                0x0010b500                CRYPTO_dbg_free
                0x0010b660                CRYPTO_dbg_realloc
                0x0010b7b0                CRYPTO_mem_leaks
                0x0010bcc0                CRYPTO_mem_leaks_fp
                0x0010bdd0                CRYPTO_mem_leaks_cb
 *fill*         0x0010beb6        0xa 
 .text          0x0010bec0     0x1247 libcrypto_pic.a(conf_def.pico)
                0x0010bec0                NCONF_default
                0x0010bee0                NCONF_WIN32
 *fill*         0x0010d107        0x9 
 .text          0x0010d110      0xc89 libcrypto_pic.a(conf_lib.pico)
                0x0010d110                CONF_set_nconf
                0x0010d160                CONF_set_default_method
                0x0010d180                CONF_load
                0x0010d240                CONF_load_bio
                0x0010d2b0                CONF_load_fp
                0x0010d370                NCONF_load_bio
                0x0010d3d0                CONF_get_section
                0x0010d470                NCONF_get_section
                0x0010d4f0                CONF_get_string
                0x0010d610                NCONF_get_string
                0x0010d6e0                CONF_get_number
                0x0010d7c0                NCONF_get_number_e
                0x0010d940                CONF_free
                0x0010d9a0                NCONF_free_data
                0x0010d9c0                CONF_dump_fp
                0x0010da70                CONF_dump_bio
                0x0010dad0                NCONF_dump_bio
                0x0010db30                NCONF_new
                0x0010dba0                NCONF_free
                0x0010dbc0                NCONF_load
                0x0010dc20                NCONF_load_fp
                0x0010dce0                NCONF_dump_fp
 *fill*         0x0010dd99        0x7 
 .text          0x0010dda0      0x57f libcrypto_pic.a(conf_api.pico)
                0x0010dda0                _CONF_get_section
                0x0010ddf0                _CONF_get_section_values
                0x0010de50                _CONF_add_string
                0x0010dee0                _CONF_get_string
                0x0010dfc0                _CONF_new_data
                0x0010e0d0                _CONF_free_data
                0x0010e220                _CONF_new_section
 *fill*         0x0010e31f        0x1 
 .text          0x0010e320      0xbad libcrypto_pic.a(cms_pwri.pico)
                0x0010e320                CMS_RecipientInfo_set0_password
                0x0010e3a0                CMS_add0_recipient_password
                0x0010e7c0                cms_RecipientInfo_pwri_crypt
 *fill*         0x0010eecd        0x3 
 .text          0x0010eed0      0x7ab libcrypto_pic.a(p5_pbev2.pico)
                0x0010eed0                d2i_PBE2PARAM
                0x0010ef10                i2d_PBE2PARAM
                0x0010ef50                PBE2PARAM_new
                0x0010ef80                PBE2PARAM_free
                0x0010efb0                d2i_PBKDF2PARAM
                0x0010eff0                i2d_PBKDF2PARAM
                0x0010f030                PBKDF2PARAM_new
                0x0010f060                PBKDF2PARAM_free
                0x0010f090                PKCS5_pbe2_set_iv
                0x0010f3e0                PKCS5_pbkdf2_set
                0x0010f630                PKCS5_pbe2_set
 *fill*         0x0010f67b        0x5 
 .text          0x0010f680      0x4ba libcrypto_pic.a(asn_pack.pico)
                0x0010f680                ASN1_seq_unpack
                0x0010f710                ASN1_seq_pack
                0x0010f820                ASN1_unpack_string
                0x0010f8a0                ASN1_pack_string
                0x0010f9e0                ASN1_item_pack
                0x0010fac0                ASN1_item_unpack
 *fill*         0x0010fb3a        0x6 
 .text          0x0010fb40      0x5a6 libcrypto_pic.a(a_set.pico)
                0x0010fb40                i2d_ASN1_SET
                0x0010fe50                d2i_ASN1_SET
 *fill*         0x001100e6        0xa 
 .text          0x001100f0      0x75a libcrypto_pic.a(cms_enc.pico)
                0x001100f0                cms_EncryptedContent_init_bio
                0x00110620                cms_EncryptedContent_init
                0x001106b0                CMS_EncryptedData_set1_key
                0x00110810                cms_EncryptedData_init_bio
 *fill*         0x0011084a        0x6 
 .text          0x00110850     0x148d libcrypto_pic.a(cms_env.pico)
                0x00110850                cms_get0_enveloped
                0x001108c0                CMS_get0_RecipientInfos
                0x00110930                CMS_RecipientInfo_type
                0x00110940                CMS_EnvelopedData_create
                0x00110a90                CMS_add1_recipient_cert
                0x00110d00                CMS_RecipientInfo_ktri_get0_algs
                0x00110d90                CMS_RecipientInfo_ktri_get0_signer_id
                0x00110e10                CMS_RecipientInfo_ktri_cert_cmp
                0x00110e80                CMS_RecipientInfo_set0_pkey
                0x00110ef0                CMS_RecipientInfo_kekri_id_cmp
                0x00110f80                CMS_add0_recipient_key
                0x00111210                CMS_RecipientInfo_kekri_get0_id
                0x001112d0                CMS_RecipientInfo_set0_key
                0x00111340                CMS_RecipientInfo_decrypt
                0x001117c0                cms_EnvelopedData_init_bio
 *fill*         0x00111cdd        0x3 
 .text          0x00111ce0      0x2f2 libcrypto_pic.a(aes_wrap.pico)
                0x00111ce0                AES_wrap_key
                0x00111e50                AES_unwrap_key
 *fill*         0x00111fd2        0xe 
 .text          0x00111fe0       0x58 libcrypto_pic.a(aes_misc.pico)
                0x00111fe0                AES_options
                0x00112000                AES_set_encrypt_key
                0x00112020                AES_set_decrypt_key
 *fill*         0x00112038        0x8 
 .text          0x00112040     0x36d3 libcrypto_pic.a(aes-586.pico)
                0x00113440                AES_encrypt
                0x00114a80                AES_decrypt
                0x00114b30                AES_cbc_encrypt
                0x00115430                private_AES_set_encrypt_key
                0x00115440                private_AES_set_decrypt_key
 *fill*         0x00115713        0xd 
 .text          0x00115720      0x20b libcrypto_pic.a(cms_dd.pico)
                0x00115720                cms_DigestedData_create
                0x001157b0                cms_DigestedData_init_bio
                0x001157e0                cms_DigestedData_do_final
 *fill*         0x0011592b        0x5 
 .text          0x00115930     0x1e95 libcrypto_pic.a(cms_sd.pico)
                0x00115930                CMS_SignedData_init
                0x00115a40                cms_set1_SignerIdentifier
                0x00115b50                cms_SignerIdentifier_get0_signer_id
                0x00115ba0                cms_SignerIdentifier_cert_cmp
                0x00115c50                CMS_add1_signer
                0x00116280                CMS_add_standard_smimecap
                0x001164e0                CMS_add_smimecap
                0x00116550                CMS_SignerInfo_sign
                0x00116840                CMS_get0_SignerInfos
                0x001168b0                CMS_get0_signers
                0x001169b0                CMS_SignerInfo_set1_signer_cert
                0x00116a30                CMS_SignerInfo_get0_signer_id
                0x00116a80                CMS_SignerInfo_cert_cmp
                0x00116ab0                CMS_set1_signers_certs
                0x00116d90                CMS_SignerInfo_get0_algs
                0x00116dd0                cms_SignedData_final
                0x00117100                CMS_SignerInfo_verify
                0x001172a0                cms_SignedData_init_bio
                0x00117510                CMS_SignerInfo_verify_content
                0x00117700                CMS_add_simple_smimecap
 *fill*         0x001177c5        0xb 
 .text          0x001177d0      0x4fe libcrypto_pic.a(cms_att.pico)
                0x001177d0                CMS_signed_get_attr_count
                0x00117800                CMS_signed_get_attr_by_NID
                0x00117840                CMS_signed_get_attr_by_OBJ
                0x00117880                CMS_signed_get_attr
                0x001178b0                CMS_signed_delete_attr
                0x001178e0                CMS_signed_add1_attr
                0x00117920                CMS_signed_add1_attr_by_OBJ
                0x00117970                CMS_signed_add1_attr_by_NID
                0x001179c0                CMS_signed_add1_attr_by_txt
                0x00117a10                CMS_signed_get0_data_by_OBJ
                0x00117a50                CMS_unsigned_get_attr_count
                0x00117a80                CMS_unsigned_get_attr_by_NID
                0x00117ac0                CMS_unsigned_get_attr_by_OBJ
                0x00117b00                CMS_unsigned_get_attr
                0x00117b30                CMS_unsigned_delete_attr
                0x00117b60                CMS_unsigned_add1_attr
                0x00117ba0                CMS_unsigned_add1_attr_by_OBJ
                0x00117bf0                CMS_unsigned_add1_attr_by_NID
                0x00117c40                CMS_unsigned_add1_attr_by_txt
                0x00117c90                CMS_unsigned_get0_data_by_OBJ
 *fill*         0x00117cce        0x2 
 .text          0x00117cd0      0xbeb libcrypto_pic.a(x509_att.pico)
                0x00117cd0                X509at_get_attr_count
                0x00117cf0                X509at_get_attr_by_NID
                0x00117d90                X509at_get_attr_by_OBJ
                0x00117e10                X509at_get_attr
                0x00117e60                X509at_delete_attr
                0x00117eb0                X509at_add1_attr
                0x00117fd0                X509at_add1_attr_by_OBJ
                0x00118040                X509_ATTRIBUTE_create_by_OBJ
                0x00118120                X509at_add1_attr_by_NID
                0x001181d0                X509_ATTRIBUTE_create_by_NID
                0x00118260                X509at_add1_attr_by_txt
                0x00118330                X509_ATTRIBUTE_create_by_txt
                0x001183f0                X509at_get0_data_by_OBJ
                0x00118540                X509_ATTRIBUTE_count
                0x00118580                X509_ATTRIBUTE_get0_data
                0x00118640                X509_ATTRIBUTE_set1_object
                0x00118690                X509_ATTRIBUTE_set1_data
                0x00118840                X509_ATTRIBUTE_get0_object
                0x00118850                X509_ATTRIBUTE_get0_type
 *fill*         0x001188bb        0x5 
 .text          0x001188c0      0x4ff libcrypto_pic.a(a_strnid.pico)
                0x001188c0                ASN1_STRING_set_default_mask
                0x001188e0                ASN1_STRING_get_default_mask
                0x00118900                ASN1_STRING_set_default_mask_asc
                0x00118a00                ASN1_STRING_set_by_NID
                0x00118b20                ASN1_STRING_TABLE_get
                0x00118bb0                ASN1_STRING_TABLE_add
                0x00118d40                ASN1_STRING_TABLE_cleanup
 *fill*         0x00118dbf        0x1 
 .text          0x00118dc0      0x435 libcrypto_pic.a(cms_io.pico)
                0x00118dc0                CMS_stream
                0x00118e50                d2i_CMS_bio
                0x00118e90                i2d_CMS_bio
                0x00118ed0                PEM_read_bio_CMS
                0x00118f20                PEM_read_CMS
                0x00118f70                PEM_write_bio_CMS
                0x00118fe0                PEM_write_CMS
                0x00119050                BIO_new_CMS
                0x00119090                i2d_CMS_bio_stream
                0x001190e0                PEM_write_bio_CMS_stream
                0x00119140                SMIME_write_CMS
                0x001191c0                SMIME_read_CMS
 *fill*         0x001191f5        0xb 
 .text          0x00119200     0x1fe3 libcrypto_pic.a(asn_mime.pico)
                0x00119200                i2d_ASN1_bio_stream
                0x001192f0                SMIME_crlf_copy
                0x001194c0                PEM_write_bio_ASN1_stream
                0x00119610                SMIME_write_ASN1
                0x00119cd0                SMIME_read_ASN1
                0x0011ad40                SMIME_text
 *fill*         0x0011b1e3        0xd 
 .text          0x0011b1f0      0x324 libcrypto_pic.a(a_i2d_fp.pico)
                0x0011b1f0                ASN1_i2d_fp
                0x0011b2a0                ASN1_i2d_bio
                0x0011b390                ASN1_item_i2d_fp
                0x0011b440                ASN1_item_i2d_bio
 *fill*         0x0011b514        0xc 
 .text          0x0011b520      0x651 libcrypto_pic.a(a_d2i_fp.pico)
                0x0011b520                ASN1_d2i_fp
                0x0011b600                ASN1_d2i_bio
                0x0011ba20                ASN1_item_d2i_bio
                0x0011ba90                ASN1_item_d2i_fp
 *fill*         0x0011bb71        0xf 
 .text          0x0011bb80      0xfed libcrypto_pic.a(bio_b64.pico)
                0x0011bb80                BIO_f_base64
 *fill*         0x0011cb6d        0x3 
 .text          0x0011cb70      0x872 libcrypto_pic.a(encode.pico)
                0x0011cb70                EVP_EncodeInit
                0x0011cb90                EVP_EncodeUpdate
                0x0011cd40                EVP_EncodeBlock
                0x0011ce90                EVP_EncodeFinal
                0x0011cef0                EVP_DecodeInit
                0x0011cf20                EVP_DecodeUpdate
                0x0011d1f0                EVP_DecodeBlock
                0x0011d380                EVP_DecodeFinal
 *fill*         0x0011d3e2        0xe 
 .text          0x0011d3f0      0xb0d libcrypto_pic.a(bf_buff.pico)
                0x0011d3f0                BIO_f_buffer
 *fill*         0x0011defd        0x3 
 .text          0x0011df00      0x409 libcrypto_pic.a(bio_ndef.pico)
                0x0011df00                BIO_new_NDEF
 *fill*         0x0011e309        0x7 
 .text          0x0011e310      0x894 libcrypto_pic.a(bio_asn1.pico)
                0x0011e310                BIO_f_asn1
                0x0011e330                BIO_asn1_set_prefix
                0x0011e380                BIO_asn1_get_prefix
                0x0011e3e0                BIO_asn1_set_suffix
                0x0011e430                BIO_asn1_get_suffix
 *fill*         0x0011eba4        0xc 
 .text          0x0011ebb0      0x177 libcrypto_pic.a(cms_asn1.pico)
 *fill*         0x0011ed27        0x9 
 .text          0x0011ed30     0x134b libcrypto_pic.a(cms_lib.pico)
                0x0011ed30                d2i_CMS_ContentInfo
                0x0011ed70                i2d_CMS_ContentInfo
                0x0011edb0                CMS_ContentInfo_new
                0x0011ede0                CMS_ContentInfo_free
                0x0011ee10                CMS_ContentInfo_print_ctx
                0x0011ee60                CMS_get0_type
                0x0011ee70                cms_Data_create
                0x0011eec0                CMS_set_detached
                0x0011eff0                cms_content_bio
                0x0011f0f0                CMS_get0_content
                0x0011f1d0                CMS_dataInit
                0x0011f2c0                CMS_dataFinal
                0x0011f4e0                CMS_get0_eContentType
                0x0011f590                CMS_set1_eContentType
                0x0011f670                CMS_is_detached
                0x0011f740                cms_DigestAlgorithm_set
                0x0011f7a0                cms_DigestAlgorithm_init_bio
                0x0011f8c0                cms_DigestAlgorithm_find_ctx
                0x0011f9d0                CMS_add0_CertificateChoices
                0x0011faa0                CMS_add0_cert
                0x0011fbc0                CMS_add1_cert
                0x0011fc30                CMS_add0_RevocationInfoChoice
                0x0011fd00                CMS_add0_crl
                0x0011fd40                CMS_add1_crl
                0x0011fdb0                CMS_get1_certs
                0x0011ff20                CMS_get1_crls
 *fill*         0x0012007b        0x5 
 .text          0x00120080       0xef libcrypto_pic.a(bss_null.pico)
                0x00120080                BIO_s_null
 *fill*         0x0012016f        0x1 
 .text          0x00120170      0x58a libcrypto_pic.a(bss_mem.pico)
                0x00120170                BIO_s_mem
                0x00120190                BIO_new_mem_buf
 *fill*         0x001206fa        0x6 
 .text          0x00120700      0xcb3 libcrypto_pic.a(tasn_prn.pico)
                0x00120700                ASN1_PCTX_new
                0x00120790                ASN1_PCTX_free
                0x001207b0                ASN1_PCTX_get_flags
                0x001207c0                ASN1_PCTX_set_flags
                0x001207d0                ASN1_PCTX_get_nm_flags
                0x001207e0                ASN1_PCTX_set_nm_flags
                0x001207f0                ASN1_PCTX_get_cert_flags
                0x00120800                ASN1_PCTX_set_cert_flags
                0x00120810                ASN1_PCTX_get_oid_flags
                0x00120820                ASN1_PCTX_set_oid_flags
                0x00120830                ASN1_PCTX_get_str_flags
                0x00120840                ASN1_PCTX_set_str_flags
                0x00120850                ASN1_item_print
                0x00121070                asn1_template_print_ctx
 *fill*         0x001213b3        0xd 
 .text          0x001213c0      0xc36 libcrypto_pic.a(x_crl.pico)
                0x001213c0                d2i_X509_REVOKED
                0x00121400                i2d_X509_REVOKED
                0x00121440                X509_REVOKED_new
                0x00121470                X509_REVOKED_free
                0x001214a0                d2i_X509_CRL_INFO
                0x001214e0                i2d_X509_CRL_INFO
                0x00121520                X509_CRL_INFO_new
                0x00121550                X509_CRL_INFO_free
                0x00121580                d2i_X509_CRL
                0x001215c0                i2d_X509_CRL
                0x00121600                X509_CRL_new
                0x00121630                X509_CRL_free
                0x00121660                X509_CRL_dup
                0x00121690                X509_CRL_add0_revoked
                0x00121760                X509_CRL_verify
                0x00121780                X509_CRL_get0_by_serial
                0x001217d0                X509_CRL_get0_by_cert
                0x00121830                X509_CRL_set_default_method
                0x00121860                X509_CRL_METHOD_new
                0x001218d0                X509_CRL_METHOD_free
                0x00121900                X509_CRL_set_meth_data
                0x00121910                X509_CRL_get_meth_data
 *fill*         0x00121ff6        0xa 
 .text          0x00122000      0x54a libcrypto_pic.a(a_verify.pico)
                0x00122000                ASN1_verify
                0x00122220                ASN1_item_verify
 *fill*         0x0012254a        0x6 
 .text          0x00122550      0x329 libcrypto_pic.a(a_enum.pico)
                0x00122550                ASN1_ENUMERATED_set
                0x00122660                ASN1_ENUMERATED_get
                0x001226d0                BN_to_ASN1_ENUMERATED
                0x001227f0                ASN1_ENUMERATED_to_BN
 *fill*         0x00122879        0x7 
 .text          0x00122880      0x438 libcrypto_pic.a(names.pico)
                0x00122880                EVP_add_cipher
                0x00122900                EVP_add_digest
                0x001229e0                EVP_get_cipherbyname
                0x00122a10                EVP_get_digestbyname
                0x00122a40                EVP_cleanup
                0x00122aa0                EVP_CIPHER_do_all
                0x00122b60                EVP_CIPHER_do_all_sorted
                0x00122bb0                EVP_MD_do_all
                0x00122c70                EVP_MD_do_all_sorted
 *fill*         0x00122cb8        0x8 
 .text          0x00122cc0      0x8a8 libcrypto_pic.a(o_names.pico)
                0x00122cc0                OBJ_NAME_init
                0x00122e10                OBJ_NAME_new_index
                0x00122f80                OBJ_NAME_get
                0x00123080                OBJ_NAME_add
                0x001231b0                OBJ_NAME_remove
                0x00123260                OBJ_NAME_do_all
                0x00123300                OBJ_NAME_do_all_sorted
                0x00123470                OBJ_NAME_cleanup
 *fill*         0x00123568        0x8 
 .text          0x00123570     0x1195 libcrypto_pic.a(tasn_typ.pico)
                0x00123570                d2i_ASN1_INTEGER
                0x001235b0                i2d_ASN1_INTEGER
                0x001235f0                ASN1_INTEGER_new
                0x00123620                ASN1_INTEGER_free
                0x00123650                d2i_ASN1_ENUMERATED
                0x00123690                i2d_ASN1_ENUMERATED
                0x001236d0                ASN1_ENUMERATED_new
                0x00123700                ASN1_ENUMERATED_free
                0x00123730                d2i_ASN1_BIT_STRING
                0x00123770                i2d_ASN1_BIT_STRING
                0x001237b0                ASN1_BIT_STRING_new
                0x001237e0                ASN1_BIT_STRING_free
                0x00123810                d2i_ASN1_OCTET_STRING
                0x00123850                i2d_ASN1_OCTET_STRING
                0x00123890                ASN1_OCTET_STRING_new
                0x001238c0                ASN1_OCTET_STRING_free
                0x001238f0                d2i_ASN1_NULL
                0x00123930                i2d_ASN1_NULL
                0x00123970                ASN1_NULL_new
                0x001239a0                ASN1_NULL_free
                0x001239d0                d2i_ASN1_UTF8STRING
                0x00123a10                i2d_ASN1_UTF8STRING
                0x00123a50                ASN1_UTF8STRING_new
                0x00123a80                ASN1_UTF8STRING_free
                0x00123ab0                d2i_ASN1_PRINTABLESTRING
                0x00123af0                i2d_ASN1_PRINTABLESTRING
                0x00123b30                ASN1_PRINTABLESTRING_new
                0x00123b60                ASN1_PRINTABLESTRING_free
                0x00123b90                d2i_ASN1_T61STRING
                0x00123bd0                i2d_ASN1_T61STRING
                0x00123c10                ASN1_T61STRING_new
                0x00123c40                ASN1_T61STRING_free
                0x00123c70                d2i_ASN1_IA5STRING
                0x00123cb0                i2d_ASN1_IA5STRING
                0x00123cf0                ASN1_IA5STRING_new
                0x00123d20                ASN1_IA5STRING_free
                0x00123d50                d2i_ASN1_GENERALSTRING
                0x00123d90                i2d_ASN1_GENERALSTRING
                0x00123dd0                ASN1_GENERALSTRING_new
                0x00123e00                ASN1_GENERALSTRING_free
                0x00123e30                d2i_ASN1_UTCTIME
                0x00123e70                i2d_ASN1_UTCTIME
                0x00123eb0                ASN1_UTCTIME_new
                0x00123ee0                ASN1_UTCTIME_free
                0x00123f10                d2i_ASN1_GENERALIZEDTIME
                0x00123f50                i2d_ASN1_GENERALIZEDTIME
                0x00123f90                ASN1_GENERALIZEDTIME_new
                0x00123fc0                ASN1_GENERALIZEDTIME_free
                0x00123ff0                d2i_ASN1_VISIBLESTRING
                0x00124030                i2d_ASN1_VISIBLESTRING
                0x00124070                ASN1_VISIBLESTRING_new
                0x001240a0                ASN1_VISIBLESTRING_free
                0x001240d0                d2i_ASN1_UNIVERSALSTRING
                0x00124110                i2d_ASN1_UNIVERSALSTRING
                0x00124150                ASN1_UNIVERSALSTRING_new
                0x00124180                ASN1_UNIVERSALSTRING_free
                0x001241b0                d2i_ASN1_BMPSTRING
                0x001241f0                i2d_ASN1_BMPSTRING
                0x00124230                ASN1_BMPSTRING_new
                0x00124260                ASN1_BMPSTRING_free
                0x00124290                d2i_ASN1_TYPE
                0x001242d0                i2d_ASN1_TYPE
                0x00124310                ASN1_TYPE_new
                0x00124340                ASN1_TYPE_free
                0x00124370                d2i_ASN1_PRINTABLE
                0x001243b0                i2d_ASN1_PRINTABLE
                0x001243f0                ASN1_PRINTABLE_new
                0x00124420                ASN1_PRINTABLE_free
                0x00124450                d2i_DISPLAYTEXT
                0x00124490                i2d_DISPLAYTEXT
                0x001244d0                DISPLAYTEXT_new
                0x00124500                DISPLAYTEXT_free
                0x00124530                d2i_DIRECTORYSTRING
                0x00124570                i2d_DIRECTORYSTRING
                0x001245b0                DIRECTORYSTRING_new
                0x001245e0                DIRECTORYSTRING_free
                0x00124610                d2i_ASN1_SEQUENCE_ANY
                0x00124650                i2d_ASN1_SEQUENCE_ANY
                0x00124690                d2i_ASN1_SET_ANY
                0x001246d0                i2d_ASN1_SET_ANY
 *fill*         0x00124705        0xb 
 .text          0x00124710     0x1393 libcrypto_pic.a(t_x509.pico)
                0x00124710                X509_print_fp
                0x00124750                X509_print_ex_fp
                0x00124800                X509_print_ex
                0x00124e50                X509_print
                0x00124e90                X509_signature_print
                0x00124fa0                ASN1_TIME_print
                0x00125000                X509_ocspid_print
                0x001251d0                X509_signature_dump
                0x001252e0                ASN1_STRING_print
                0x001253d0                ASN1_UTCTIME_print
                0x00125630                ASN1_GENERALIZEDTIME_print
                0x00125920                X509_NAME_print
 *fill*         0x00125aa3        0xd 
 .text          0x00125ab0      0x35f libcrypto_pic.a(obj_xref.pico)
                0x00125ab0                OBJ_find_sigid_algs
                0x00125b60                OBJ_find_sigid_by_algs
                0x00125c20                OBJ_add_sigid
                0x00125d60                OBJ_sigid_free
 *fill*         0x00125e0f        0x1 
 .text          0x00125e10      0x3be libcrypto_pic.a(m_sha1.pico)
                0x00125e10                EVP_sha1
                0x00125e30                EVP_sha224
                0x00125e50                EVP_sha256
                0x00125e70                EVP_sha384
                0x00125e90                EVP_sha512
 *fill*         0x001261ce        0x2 
 .text          0x001261d0      0x202 libcrypto_pic.a(err_prn.pico)
                0x001261d0                ERR_print_errors_cb
                0x001262d0                ERR_print_errors_fp
                0x00126370                ERR_print_errors
 *fill*         0x001263d2        0xe 
 .text          0x001263e0      0x803 libcrypto_pic.a(ameth_lib.pico)
                0x001263e0                EVP_PKEY_asn1_get_count
                0x00126420                EVP_PKEY_asn1_get0
                0x00126470                EVP_PKEY_asn1_find
                0x00126580                EVP_PKEY_asn1_find_str
                0x001266c0                EVP_PKEY_asn1_add0
                0x00126750                EVP_PKEY_asn1_add_alias
                0x00126870                EVP_PKEY_asn1_new
                0x001269e0                EVP_PKEY_asn1_free
                0x00126a40                EVP_PKEY_asn1_get0_info
                0x00126a90                EVP_PKEY_get0_asn1
                0x00126aa0                EVP_PKEY_asn1_copy
                0x00126b30                EVP_PKEY_asn1_set_public
                0x00126b60                EVP_PKEY_asn1_set_private
                0x00126b80                EVP_PKEY_asn1_set_param
                0x00126bb0                EVP_PKEY_asn1_set_free
                0x00126bc0                EVP_PKEY_asn1_set_ctrl
 *fill*         0x00126be3        0xd 
 .text          0x00126bf0      0x2ec libcrypto_pic.a(t_x509a.pico)
                0x00126bf0                X509_CERT_AUX_print
 *fill*         0x00126edc        0x4 
 .text          0x00126ee0     0x127c libcrypto_pic.a(sha1dgst.pico)
                0x00126ee0                SHA1_Update
                0x00128000                SHA1_Transform
                0x00128030                SHA1_Final
                0x00128120                SHA1_Init
 *fill*         0x0012815c        0x4 
 .text          0x00128160      0xd65 libcrypto_pic.a(dh_ameth.pico)
                0x00128160                DHparams_print
 *fill*         0x00128ec5        0xb 
 .text          0x00128ed0      0x105 libcrypto_pic.a(dh_asn1.pico)
                0x00128ed0                d2i_DHparams
                0x00128f10                i2d_DHparams
                0x00128f50                DHparams_dup
 *fill*         0x00128fd5        0xb 
 .text          0x00128fe0       0x39 libcrypto_pic.a(cm_ameth.pico)
 *fill*         0x00129019        0x7 
 .text          0x00129020      0x813 libcrypto_pic.a(cmac.pico)
                0x00129020                CMAC_CTX_new
                0x00129080                CMAC_CTX_cleanup
                0x00129110                CMAC_CTX_get0_cipher_ctx
                0x00129120                CMAC_CTX_free
                0x001291c0                CMAC_CTX_copy
                0x001292b0                CMAC_Init
                0x00129570                CMAC_Update
                0x001296d0                CMAC_Final
                0x001297e0                CMAC_resume
 *fill*         0x00129833        0xd 
 .text          0x00129840      0x25d libcrypto_pic.a(p8_pkey.pico)
                0x00129840                d2i_PKCS8_PRIV_KEY_INFO
                0x00129880                i2d_PKCS8_PRIV_KEY_INFO
                0x001298c0                PKCS8_PRIV_KEY_INFO_new
                0x001298f0                PKCS8_PRIV_KEY_INFO_free
                0x00129920                PKCS8_pkey_set0
                0x001299e0                PKCS8_pkey_get0
 *fill*         0x00129a9d        0x3 
 .text          0x00129aa0      0x262 libcrypto_pic.a(t_pkey.pico)
                0x00129aa0                ASN1_bn_print
 *fill*         0x00129d02        0xe 
 .text          0x00129d10      0x1c7 libcrypto_pic.a(x_long.pico)
 *fill*         0x00129ed7        0x9 
 .text          0x00129ee0      0x175 libcrypto_pic.a(x_bignum.pico)
 *fill*         0x0012a055        0xb 
 .text          0x0012a060      0x1ca libcrypto_pic.a(x_attrib.pico)
                0x0012a060                d2i_X509_ATTRIBUTE
                0x0012a0a0                i2d_X509_ATTRIBUTE
                0x0012a0e0                X509_ATTRIBUTE_new
                0x0012a110                X509_ATTRIBUTE_free
                0x0012a140                X509_ATTRIBUTE_dup
                0x0012a170                X509_ATTRIBUTE_create
 *fill*         0x0012a22a        0x6 
 .text          0x0012a230      0x53e libcrypto_pic.a(x_x509a.pico)
                0x0012a230                d2i_X509_CERT_AUX
                0x0012a270                i2d_X509_CERT_AUX
                0x0012a2b0                X509_CERT_AUX_new
                0x0012a2e0                X509_CERT_AUX_free
                0x0012a310                X509_alias_set1
                0x0012a3d0                X509_keyid_set1
                0x0012a490                X509_alias_get0
                0x0012a4c0                X509_keyid_get0
                0x0012a4f0                X509_add1_trust_object
                0x0012a570                X509_add1_reject_object
                0x0012a5f0                X509_trust_clear
                0x0012a640                X509_reject_clear
                0x0012a690                d2i_X509_CERT_PAIR
                0x0012a6d0                i2d_X509_CERT_PAIR
                0x0012a710                X509_CERT_PAIR_new
                0x0012a740                X509_CERT_PAIR_free
 *fill*         0x0012a76e        0x2 
 .text          0x0012a770      0x529 libcrypto_pic.a(x_x509.pico)
                0x0012a770                d2i_X509_CINF
                0x0012a7b0                i2d_X509_CINF
                0x0012a7f0                X509_CINF_new
                0x0012a820                X509_CINF_free
                0x0012a850                d2i_X509
                0x0012a890                i2d_X509
                0x0012a8d0                X509_new
                0x0012a900                X509_free
                0x0012a930                X509_dup
                0x0012a960                X509_get_ex_new_index
                0x0012a9b0                X509_set_ex_data
                0x0012a9f0                X509_get_ex_data
                0x0012aa20                d2i_X509_AUX
                0x0012aad0                i2d_X509_AUX
 *fill*         0x0012ac99        0x7 
 .text          0x0012aca0      0xd28 libcrypto_pic.a(x_name.pico)
                0x0012aca0                d2i_X509_NAME_ENTRY
                0x0012ace0                i2d_X509_NAME_ENTRY
                0x0012ad20                X509_NAME_ENTRY_new
                0x0012ad50                X509_NAME_ENTRY_free
                0x0012ad80                X509_NAME_ENTRY_dup
                0x0012b3d0                d2i_X509_NAME
                0x0012b410                i2d_X509_NAME
                0x0012b450                X509_NAME_new
                0x0012b480                X509_NAME_free
                0x0012b4b0                X509_NAME_dup
                0x0012b4e0                X509_NAME_set
 *fill*         0x0012b9c8        0x8 
 .text          0x0012b9d0      0xa92 libcrypto_pic.a(x_pubkey.pico)
                0x0012b9d0                d2i_X509_PUBKEY
                0x0012ba10                i2d_X509_PUBKEY
                0x0012ba50                X509_PUBKEY_new
                0x0012ba80                X509_PUBKEY_free
                0x0012bab0                X509_PUBKEY_set
                0x0012bbb0                X509_PUBKEY_get
                0x0012bdf0                d2i_PUBKEY
                0x0012be70                i2d_PUBKEY
                0x0012bee0                d2i_RSA_PUBKEY
                0x0012bf90                i2d_RSA_PUBKEY
                0x0012c060                d2i_DSA_PUBKEY
                0x0012c110                i2d_DSA_PUBKEY
                0x0012c1e0                d2i_EC_PUBKEY
                0x0012c290                i2d_EC_PUBKEY
                0x0012c360                X509_PUBKEY_set0_param
                0x0012c3e0                X509_PUBKEY_get0_param
 *fill*         0x0012c462        0xe 
 .text          0x0012c470       0xde libcrypto_pic.a(x_val.pico)
                0x0012c470                d2i_X509_VAL
                0x0012c4b0                i2d_X509_VAL
                0x0012c4f0                X509_VAL_new
                0x0012c520                X509_VAL_free
 *fill*         0x0012c54e        0x2 
 .text          0x0012c550      0x321 libcrypto_pic.a(x_algor.pico)
                0x0012c550                d2i_X509_ALGOR
                0x0012c590                i2d_X509_ALGOR
                0x0012c5d0                X509_ALGOR_new
                0x0012c600                X509_ALGOR_free
                0x0012c630                d2i_X509_ALGORS
                0x0012c670                i2d_X509_ALGORS
                0x0012c6b0                X509_ALGOR_dup
                0x0012c6e0                X509_ALGOR_set0
                0x0012c780                X509_ALGOR_get0
                0x0012c7c0                X509_ALGOR_set_md
                0x0012c820                X509_ALGOR_cmp
 *fill*         0x0012c871        0xf 
 .text          0x0012c880      0xf3e libcrypto_pic.a(a_strex.pico)
                0x0012c880                X509_NAME_print_ex
                0x0012cde0                X509_NAME_print_ex_fp
                0x0012cec0                ASN1_STRING_print_ex
                0x0012d330                ASN1_STRING_print_ex_fp
                0x0012d370                ASN1_STRING_to_UTF8
 *fill*         0x0012d7be        0x2 
 .text          0x0012d7c0      0x7ce libcrypto_pic.a(a_mbstr.pico)
                0x0012d7c0                ASN1_mbstring_copy
                0x0012d820                ASN1_mbstring_ncopy
 *fill*         0x0012df8e        0x2 
 .text          0x0012df90      0x5b4 libcrypto_pic.a(a_utf8.pico)
                0x0012df90                UTF8_getc
                0x0012e2f0                UTF8_putc
 *fill*         0x0012e544        0xc 
 .text          0x0012e550      0x409 libcrypto_pic.a(a_time.pico)
                0x0012e550                d2i_ASN1_TIME
                0x0012e590                i2d_ASN1_TIME
                0x0012e5d0                ASN1_TIME_new
                0x0012e600                ASN1_TIME_free
                0x0012e630                ASN1_TIME_set
                0x0012e680                ASN1_TIME_adj
                0x0012e780                ASN1_TIME_check
                0x0012e7c0                ASN1_TIME_to_generalizedtime
                0x0012e8d0                ASN1_TIME_set_string
 *fill*         0x0012e959        0x7 
 .text          0x0012e960      0x449 libcrypto_pic.a(a_gentm.pico)
                0x0012e960                ASN1_GENERALIZEDTIME_check
                0x0012eb50                ASN1_GENERALIZEDTIME_set_string
                0x0012ebd0                ASN1_GENERALIZEDTIME_set
                0x0012ec20                ASN1_GENERALIZEDTIME_adj
 *fill*         0x0012eda9        0x7 
 .text          0x0012edb0      0x5f5 libcrypto_pic.a(a_utctm.pico)
                0x0012edb0                ASN1_UTCTIME_check
                0x0012ef70                ASN1_UTCTIME_set_string
                0x0012eff0                ASN1_UTCTIME_set
                0x0012f040                ASN1_UTCTIME_adj
                0x0012f200                ASN1_UTCTIME_cmp_time_t
 *fill*         0x0012f3a5        0xb 
 .text          0x0012f3b0     0x1ecb libcrypto_pic.a(v3_asid.pico)
                0x0012f3b0                d2i_ASRange
                0x0012f3f0                i2d_ASRange
                0x0012f430                ASRange_new
                0x0012f460                ASRange_free
                0x0012f490                d2i_ASIdOrRange
                0x0012f4d0                i2d_ASIdOrRange
                0x0012f510                ASIdOrRange_new
                0x0012f540                ASIdOrRange_free
                0x0012f570                d2i_ASIdentifierChoice
                0x0012f5b0                i2d_ASIdentifierChoice
                0x0012f5f0                ASIdentifierChoice_new
                0x0012f620                ASIdentifierChoice_free
                0x0012f650                d2i_ASIdentifiers
                0x0012f690                i2d_ASIdentifiers
                0x0012f6d0                ASIdentifiers_new
                0x0012f700                ASIdentifiers_free
                0x0012f730                v3_asid_add_inherit
                0x0012f7d0                v3_asid_add_id_or_range
                0x0012fa40                v3_asid_is_canonical
                0x0012fd50                v3_asid_canonize
                0x00130820                v3_asid_inherits
                0x00130860                v3_asid_subset
                0x00130aa0                v3_asid_validate_path
                0x00131030                v3_asid_validate_resource_set
 *fill*         0x0013127b        0x5 
 .text          0x00131280       0xde libcrypto_pic.a(v3_akeya.pico)
                0x00131280                d2i_AUTHORITY_KEYID
                0x001312c0                i2d_AUTHORITY_KEYID
                0x00131300                AUTHORITY_KEYID_new
                0x00131330                AUTHORITY_KEYID_free
 *fill*         0x0013135e        0x2 
 .text          0x00131360     0x3139 libcrypto_pic.a(v3_addr.pico)
                0x00131360                d2i_IPAddressRange
                0x001313a0                i2d_IPAddressRange
                0x001313e0                IPAddressRange_new
                0x00131410                IPAddressRange_free
                0x00131440                d2i_IPAddressOrRange
                0x00131480                i2d_IPAddressOrRange
                0x001314c0                IPAddressOrRange_new
                0x001314f0                IPAddressOrRange_free
                0x00131520                d2i_IPAddressChoice
                0x00131560                i2d_IPAddressChoice
                0x001315a0                IPAddressChoice_new
                0x001315d0                IPAddressChoice_free
                0x00131600                d2i_IPAddressFamily
                0x00131640                i2d_IPAddressFamily
                0x00131680                IPAddressFamily_new
                0x001316b0                IPAddressFamily_free
                0x001316e0                v3_addr_get_afi
                0x00131710                v3_addr_add_inherit
                0x001318e0                v3_addr_add_prefix
                0x00131af0                v3_addr_add_range
                0x00131dd0                v3_addr_get_range
                0x00132040                v3_addr_is_canonical
                0x00132550                v3_addr_canonize
                0x00133500                v3_addr_inherits
                0x00133570                v3_addr_subset
                0x00133890                v3_addr_validate_path
                0x00133df0                v3_addr_validate_resource_set
 *fill*         0x00134499        0x7 
 .text          0x001344a0      0x4e5 libcrypto_pic.a(pcy_cache.pico)
                0x001344a0                policy_cache_free
                0x00134500                policy_cache_set
                0x001348f0                policy_cache_find_data
 *fill*         0x00134985        0xb 
 .text          0x00134990      0x657 libcrypto_pic.a(x509_ext.pico)
                0x00134990                X509_CRL_get_ext_count
                0x001349c0                X509_CRL_get_ext_by_NID
                0x00134a00                X509_CRL_get_ext_by_OBJ
                0x00134a40                X509_CRL_get_ext_by_critical
                0x00134a80                X509_CRL_get_ext
                0x00134ab0                X509_CRL_delete_ext
                0x00134ae0                X509_CRL_get_ext_d2i
                0x00134b20                X509_CRL_add1_ext_i2d
                0x00134b70                X509_CRL_add_ext
                0x00134bb0                X509_get_ext_count
                0x00134be0                X509_get_ext_by_NID
                0x00134c20                X509_get_ext_by_OBJ
                0x00134c60                X509_get_ext_by_critical
                0x00134ca0                X509_get_ext
                0x00134cd0                X509_delete_ext
                0x00134d00                X509_add_ext
                0x00134d40                X509_get_ext_d2i
                0x00134d80                X509_add1_ext_i2d
                0x00134dd0                X509_REVOKED_get_ext_count
                0x00134e00                X509_REVOKED_get_ext_by_NID
                0x00134e40                X509_REVOKED_get_ext_by_OBJ
                0x00134e80                X509_REVOKED_get_ext_by_critical
                0x00134ec0                X509_REVOKED_get_ext
                0x00134ef0                X509_REVOKED_delete_ext
                0x00134f20                X509_REVOKED_add_ext
                0x00134f60                X509_REVOKED_get_ext_d2i
                0x00134fa0                X509_REVOKED_add1_ext_i2d
 *fill*         0x00134fe7        0x9 
 .text          0x00134ff0      0x648 libcrypto_pic.a(x509_v3.pico)
                0x00134ff0                X509v3_get_ext_count
                0x00135020                X509v3_get_ext_by_NID
                0x001350c0                X509v3_get_ext_by_OBJ
                0x00135140                X509v3_get_ext_by_critical
                0x001351c0                X509v3_get_ext
                0x00135210                X509v3_delete_ext
                0x00135260                X509v3_add_ext
                0x001353a0                X509_EXTENSION_create_by_NID
                0x00135430                X509_EXTENSION_create_by_OBJ
                0x00135520                X509_EXTENSION_set_object
                0x00135570                X509_EXTENSION_set_critical
                0x001355a0                X509_EXTENSION_set_data
                0x001355f0                X509_EXTENSION_get_object
                0x00135600                X509_EXTENSION_get_data
                0x00135620                X509_EXTENSION_get_critical
 *fill*         0x00135638        0x8 
 .text          0x00135640      0x42b libcrypto_pic.a(x509_obj.pico)
                0x00135640                X509_NAME_oneline
 *fill*         0x00135a6b        0x5 
 .text          0x00135a70      0x53e libcrypto_pic.a(evp_lib.pico)
                0x00135a70                EVP_CIPHER_param_to_asn1
                0x00135b00                EVP_CIPHER_set_asn1_iv
                0x00135b70                EVP_CIPHER_asn1_to_param
                0x00135c20                EVP_CIPHER_get_asn1_iv
                0x00135cc0                EVP_CIPHER_CTX_iv_length
                0x00135cd0                EVP_CIPHER_type
                0x00135dd0                EVP_CIPHER_nid
                0x00135de0                EVP_CIPHER_block_size
                0x00135df0                EVP_CIPHER_CTX_block_size
                0x00135e00                EVP_Cipher
                0x00135e10                EVP_CIPHER_CTX_cipher
                0x00135e20                EVP_CIPHER_flags
                0x00135e30                EVP_CIPHER_CTX_flags
                0x00135e40                EVP_CIPHER_CTX_get_app_data
                0x00135e50                EVP_CIPHER_CTX_set_app_data
                0x00135e60                EVP_CIPHER_iv_length
                0x00135e70                EVP_CIPHER_key_length
                0x00135e80                EVP_CIPHER_CTX_key_length
                0x00135e90                EVP_CIPHER_CTX_nid
                0x00135ea0                EVP_MD_block_size
                0x00135eb0                EVP_MD_type
                0x00135ec0                EVP_MD_pkey_type
                0x00135ed0                EVP_MD_size
                0x00135f30                EVP_MD_flags
                0x00135f40                EVP_MD_CTX_md
                0x00135f50                EVP_MD_CTX_set_flags
                0x00135f60                EVP_MD_CTX_clear_flags
                0x00135f70                EVP_MD_CTX_test_flags
                0x00135f80                EVP_CIPHER_CTX_set_flags
                0x00135f90                EVP_CIPHER_CTX_clear_flags
                0x00135fa0                EVP_CIPHER_CTX_test_flags
 *fill*         0x00135fae        0x2 
 .text          0x00135fb0      0xf90 libcrypto_pic.a(ec_key.pico)
                0x00135fb0                EC_KEY_new
                0x00136060                EC_KEY_new_by_curve_name
                0x00136130                EC_KEY_free
                0x001361e0                EC_KEY_copy
                0x001363b0                EC_KEY_dup
                0x00136480                EC_KEY_up_ref
                0x001364e0                EC_KEY_generate_key
                0x001366a0                EC_KEY_check_key
                0x00136950                EC_KEY_set_public_key_affine_coordinates
                0x00136bb0                EC_KEY_set_public_key
                0x00136c00                EC_KEY_get0_group
                0x00136c10                EC_KEY_set_group
                0x00136c60                EC_KEY_get0_private_key
                0x00136c70                EC_KEY_set_private_key
                0x00136cc0                EC_KEY_get0_public_key
                0x00136cd0                EC_KEY_get_enc_flags
                0x00136ce0                EC_KEY_set_enc_flags
                0x00136cf0                EC_KEY_get_conv_form
                0x00136d00                EC_KEY_set_conv_form
                0x00136d40                EC_KEY_get_key_method_data
                0x00136dd0                EC_KEY_insert_key_method_data
                0x00136e90                EC_KEY_set_asn1_flag
                0x00136ed0                EC_KEY_precompute_mult
                0x00136f10                EC_KEY_get_flags
                0x00136f20                EC_KEY_set_flags
                0x00136f30                EC_KEY_clear_flags
 .text          0x00136f40      0x665 libcrypto_pic.a(dsa_lib.pico)
                0x00136f40                DSA_set_default_method
                0x00136f60                DSA_get_default_method
                0x00136f90                DSA_new
                0x00136fc0                DSA_new_method
                0x001371d0                DSA_set_method
                0x00137230                DSA_free
                0x00137330                DSA_up_ref
                0x00137390                DSA_size
                0x00137420                DSA_get_ex_new_index
                0x00137470                DSA_set_ex_data
                0x001374b0                DSA_get_ex_data
                0x001374e0                DSA_dup_DH
 *fill*         0x001375a5        0xb 
 .text          0x001375b0      0x565 libcrypto_pic.a(dh_lib.pico)
                0x001375b0                DH_set_default_method
                0x001375d0                DH_get_default_method
                0x00137600                DH_set_method
                0x00137660                DH_new
                0x00137690                DH_new_method
                0x001378b0                DH_free
                0x001379c0                DH_up_ref
                0x00137a20                DH_get_ex_new_index
                0x00137a70                DH_set_ex_data
                0x00137ab0                DH_get_ex_data
                0x00137ae0                DH_size
 *fill*         0x00137b15        0xb 
 .text          0x00137b20      0x55e libcrypto_pic.a(dh_key.pico)
                0x00137b20                DH_generate_key
                0x00137b30                DH_compute_key
                0x00137b40                DH_OpenSSL
 *fill*         0x0013807e        0x2 
 .text          0x00138080      0x28f libcrypto_pic.a(o_time.pico)
                0x00138080                OPENSSL_gmtime
                0x001380b0                OPENSSL_gmtime_adj
 *fill*         0x0013830f        0x1 
 .text          0x00138310      0x6eb libcrypto_pic.a(bss_file.pico)
                0x00138310                BIO_new_file
                0x00138450                BIO_s_file
                0x00138470                BIO_new_fp
 *fill*         0x001389fb        0x5 
 .text          0x00138a00      0x462 libcrypto_pic.a(evp_asn1.pico)
                0x00138a00                ASN1_TYPE_set_octetstring
                0x00138a80                ASN1_TYPE_get_octetstring
                0x00138b10                ASN1_TYPE_set_int_octetstring
                0x00138c80                ASN1_TYPE_get_int_octetstring
 *fill*         0x00138e62        0xe 
 .text          0x00138e70      0x64d libcrypto_pic.a(a_bytes.pico)
                0x00138e70                d2i_ASN1_type_bytes
                0x00139020                i2d_ASN1_bytes
                0x001390f0                d2i_ASN1_bytes
 *fill*         0x001394bd        0x3 
 .text          0x001394c0      0xd1b libcrypto_pic.a(asn1_par.pico)
                0x001394c0                ASN1_parse
                0x0013a140                ASN1_parse_dump
                0x0013a1a0                ASN1_tag2str
 *fill*         0x0013a1db        0x5 
 .text          0x0013a1e0      0x18e libcrypto_pic.a(x_exten.pico)
                0x0013a1e0                d2i_X509_EXTENSION
                0x0013a220                i2d_X509_EXTENSION
                0x0013a260                X509_EXTENSION_new
                0x0013a290                X509_EXTENSION_free
                0x0013a2c0                d2i_X509_EXTENSIONS
                0x0013a300                i2d_X509_EXTENSIONS
                0x0013a340                X509_EXTENSION_dup
 *fill*         0x0013a36e        0x2 
 .text          0x0013a370      0x141 libcrypto_pic.a(a_bool.pico)
                0x0013a370                i2d_ASN1_BOOLEAN
                0x0013a400                d2i_ASN1_BOOLEAN
 *fill*         0x0013a4b1        0xf 
 .text          0x0013a4c0      0x167 libcrypto_pic.a(a_dup.pico)
                0x0013a4c0                ASN1_dup
                0x0013a580                ASN1_item_dup
 *fill*         0x0013a627        0x9 
 .text          0x0013a630       0x58 libcrypto_pic.a(a_octet.pico)
                0x0013a630                ASN1_OCTET_STRING_dup
                0x0013a650                ASN1_OCTET_STRING_cmp
                0x0013a670                ASN1_OCTET_STRING_set
 *fill*         0x0013a688        0x8 
 .text          0x0013a690      0x29e libcrypto_pic.a(v3_pcons.pico)
                0x0013a8d0                POLICY_CONSTRAINTS_new
                0x0013a900                POLICY_CONSTRAINTS_free
 *fill*         0x0013a92e        0x2 
 .text          0x0013a930      0x142 libcrypto_pic.a(pcy_data.pico)
                0x0013a930                policy_data_free
                0x0013a990                policy_data_new
 *fill*         0x0013aa72        0xe 
 .text          0x0013aa80      0x2d8 libcrypto_pic.a(eng_init.pico)
                0x0013aa80                engine_unlocked_init
                0x0013aad0                engine_unlocked_finish
                0x0013abc0                ENGINE_init
                0x0013ac90                ENGINE_finish
 *fill*         0x0013ad58        0x8 
 .text          0x0013ad60      0x667 libcrypto_pic.a(eng_lib.pico)
                0x0013ad60                ENGINE_new
                0x0013ae00                engine_set_all_null
                0x0013ae80                engine_free_util
                0x0013af60                ENGINE_free
                0x0013af90                engine_cleanup_add_first
                0x0013b010                engine_cleanup_add_last
                0x0013b080                ENGINE_cleanup
                0x0013b0f0                ENGINE_get_ex_new_index
                0x0013b140                ENGINE_set_ex_data
                0x0013b180                ENGINE_get_ex_data
                0x0013b1b0                ENGINE_set_id
                0x0013b210                ENGINE_set_name
                0x0013b270                ENGINE_set_destroy_function
                0x0013b290                ENGINE_set_init_function
                0x0013b2b0                ENGINE_set_finish_function
                0x0013b2d0                ENGINE_set_ctrl_function
                0x0013b2f0                ENGINE_set_flags
                0x0013b310                ENGINE_set_cmd_defns
                0x0013b330                ENGINE_get_id
                0x0013b340                ENGINE_get_name
                0x0013b350                ENGINE_get_destroy_function
                0x0013b360                ENGINE_get_init_function
                0x0013b370                ENGINE_get_finish_function
                0x0013b380                ENGINE_get_ctrl_function
                0x0013b390                ENGINE_get_flags
                0x0013b3a0                ENGINE_get_cmd_defns
                0x0013b3b0                ENGINE_get_static_state
 *fill*         0x0013b3c7        0x9 
 .text          0x0013b3d0      0x5db libcrypto_pic.a(ec_curve.pico)
                0x0013b3d0                EC_GROUP_new_by_curve_name
                0x0013b950                EC_get_builtin_curves
 *fill*         0x0013b9ab        0x5 
 .text          0x0013b9b0      0x148 libcrypto_pic.a(ec_cvt.pico)
                0x0013b9b0                EC_GROUP_new_curve_GFp
                0x0013ba90                EC_GROUP_new_curve_GF2m
 *fill*         0x0013baf8        0x8 
 .text          0x0013bb00      0x3d8 libcrypto_pic.a(ecp_nist.pico)
                0x0013bb00                EC_GFp_nist_method
                0x0013bb20                ec_GFp_nist_group_copy
                0x0013bb50                ec_GFp_nist_group_set_curve
                0x0013bcf0                ec_GFp_nist_field_mul
                0x0013bdf0                ec_GFp_nist_field_sqr
 *fill*         0x0013bed8        0x8 
 .text          0x0013bee0      0x61f libcrypto_pic.a(ecp_mont.pico)
                0x0013bee0                EC_GFp_mont_method
                0x0013bf00                ec_GFp_mont_group_init
                0x0013bf40                ec_GFp_mont_group_finish
                0x0013bfa0                ec_GFp_mont_group_clear_finish
                0x0013c000                ec_GFp_mont_group_copy
                0x0013c0e0                ec_GFp_mont_group_set_curve
                0x0013c290                ec_GFp_mont_field_mul
                0x0013c310                ec_GFp_mont_field_sqr
                0x0013c390                ec_GFp_mont_field_encode
                0x0013c410                ec_GFp_mont_field_decode
                0x0013c490                ec_GFp_mont_field_set_to_one
 *fill*         0x0013c4ff        0x1 
 .text          0x0013c500     0x2b6e libcrypto_pic.a(ecp_smpl.pico)
                0x0013c500                EC_GFp_simple_method
                0x0013c520                ec_GFp_simple_group_init
                0x0013c570                ec_GFp_simple_group_finish
                0x0013c5b0                ec_GFp_simple_group_clear_finish
                0x0013c5f0                ec_GFp_simple_group_copy
                0x0013c680                ec_GFp_simple_group_set_curve
                0x0013c8b0                ec_GFp_simple_group_get_curve
                0x0013ca00                ec_GFp_simple_group_get_degree
                0x0013ca30                ec_GFp_simple_group_check_discriminant
                0x0013cc90                ec_GFp_simple_point_init
                0x0013cce0                ec_GFp_simple_point_finish
                0x0013cd20                ec_GFp_simple_point_clear_finish
                0x0013cd70                ec_GFp_simple_point_copy
                0x0013cdf0                ec_GFp_simple_point_set_to_infinity
                0x0013ce30                ec_GFp_simple_set_Jprojective_coordinates_GFp
                0x0013d010                ec_GFp_simple_get_Jprojective_coordinates_GFp
                0x0013d1a0                ec_GFp_simple_point_set_affine_coordinates
                0x0013d230                ec_GFp_simple_point_get_affine_coordinates
                0x0013d580                ec_GFp_simple_add
                0x0013dc20                ec_GFp_simple_dbl
                0x0013e1c0                ec_GFp_simple_invert
                0x0013e220                ec_GFp_simple_is_at_infinity
                0x0013e240                ec_GFp_simple_is_on_curve
                0x0013e620                ec_GFp_simple_cmp
                0x0013e990                ec_GFp_simple_make_affine
                0x0013ead0                ec_GFp_simple_points_make_affine
                0x0013efe0                ec_GFp_simple_field_mul
                0x0013f030                ec_GFp_simple_field_sqr
 *fill*         0x0013f06e        0x2 
 .text          0x0013f070      0xb1e libcrypto_pic.a(dsa_ossl.pico)
                0x0013f070                DSA_OpenSSL
 *fill*         0x0013fb8e        0x2 
 .text          0x0013fb90       0xbb libcrypto_pic.a(dsa_sign.pico)
                0x0013fb90                DSA_do_sign
                0x0013fba0                DSA_sign_setup
                0x0013fbb0                DSA_SIG_new
                0x0013fc00                DSA_SIG_free
 *fill*         0x0013fc4b        0x5 
 .text          0x0013fc50      0x221 libcrypto_pic.a(dh_check.pico)
                0x0013fc50                DH_check
                0x0013fdd0                DH_check_pub_key
 *fill*         0x0013fe71        0xf 
 .text          0x0013fe80     0x1919 libcrypto_pic.a(bn_nist.pico)
                0x0013fe80                BN_get0_nist_prime_192
                0x0013fea0                BN_get0_nist_prime_224
                0x0013fec0                BN_get0_nist_prime_256
                0x0013fee0                BN_get0_nist_prime_384
                0x0013ff00                BN_get0_nist_prime_521
                0x0013ff20                BN_nist_mod_192
                0x00140210                BN_nist_mod_224
                0x00140600                BN_nist_mod_256
                0x00140be0                BN_nist_mod_384
                0x001413b0                BN_nist_mod_521
 *fill*         0x00141799        0x7 
 .text          0x001417a0      0x891 libcrypto_pic.a(bn_exp2.pico)
                0x001417a0                BN_mod_exp2_mont
 *fill*         0x00142031        0xf 
 .text          0x00142040      0xd83 libcrypto_pic.a(bn_prime.pico)
                0x00142040                BN_GENCB_call
                0x001420c0                BN_generate_prime_ex
                0x00142850                BN_is_prime_fasttest_ex
                0x00142d80                BN_is_prime_ex
 *fill*         0x00142dc3        0xd 
 .text          0x00142dd0     0x1dee libcrypto_pic.a(bn_exp.pico)
                0x00142dd0                BN_exp
                0x00142f80                BN_mod_exp
                0x00143020                BN_mod_exp_mont_word
                0x001434f0                BN_mod_exp_mont
                0x00143af0                BN_mod_exp_recp
                0x00143f40                BN_mod_exp_mont_consttime
                0x001447c0                BN_mod_exp_simple
 *fill*         0x00144bbe        0x2 
 .text          0x00144bc0      0x615 libcrypto_pic.a(b_dump.pico)
                0x00144bc0                BIO_dump_cb
                0x00144c10                BIO_dump_indent_cb
                0x00145020                BIO_dump_fp
                0x001450b0                BIO_dump_indent_fp
                0x00145100                BIO_dump
                0x00145190                BIO_dump_indent
 *fill*         0x001451d5        0xb 
 .text          0x001451e0     0x1f15 libcrypto_pic.a(tasn_dec.pico)
                0x001451e0                ASN1_tag2bit
                0x00145210                ASN1_item_d2i
                0x00145290                ASN1_item_ex_d2i
                0x00145d20                ASN1_template_d2i
                0x00146740                asn1_ex_c2i
 *fill*         0x001470f5        0xb 
 .text          0x00147100      0xded libcrypto_pic.a(tasn_enc.pico)
                0x00147100                ASN1_item_ndef_i2d
                0x00147220                ASN1_item_i2d
                0x00147260                ASN1_item_ex_i2d
                0x00147cd0                ASN1_template_i2d
                0x00147d10                asn1_ex_i2c
 *fill*         0x00147eed        0x3 
 .text          0x00147ef0      0x5db libcrypto_pic.a(tasn_new.pico)
                0x00147ef0                ASN1_item_new
                0x00147f30                ASN1_item_ex_new
                0x00148280                ASN1_template_new
                0x001483d0                ASN1_primitive_new
 *fill*         0x001484cb        0x5 
 .text          0x001484d0      0x1d3 libcrypto_pic.a(a_type.pico)
                0x001484d0                ASN1_TYPE_get
                0x001484f0                ASN1_TYPE_set
                0x00148550                ASN1_TYPE_set1
                0x00148630                ASN1_TYPE_cmp
 *fill*         0x001486a3        0xd 
 .text          0x001486b0      0x522 libcrypto_pic.a(a_bitstr.pico)
                0x001486b0                ASN1_BIT_STRING_set
                0x001486d0                i2c_ASN1_BIT_STRING
                0x00148800                c2i_ASN1_BIT_STRING
                0x001489a0                ASN1_BIT_STRING_set_bit
                0x00148b30                ASN1_BIT_STRING_get_bit
                0x00148b80                ASN1_BIT_STRING_check
 *fill*         0x00148bd2        0xe 
 .text          0x00148be0     0x1577 libcrypto_pic.a(ec2_smpl.pico)
                0x00148be0                EC_GF2m_simple_method
                0x00148c00                ec_GF2m_simple_group_init
                0x00148c50                ec_GF2m_simple_group_finish
                0x00148c90                ec_GF2m_simple_group_clear_finish
                0x00148d00                ec_GF2m_simple_group_copy
                0x00148e70                ec_GF2m_simple_group_set_curve
                0x00149010                ec_GF2m_simple_group_get_curve
                0x00149090                ec_GF2m_simple_group_get_degree
                0x001490c0                ec_GF2m_simple_group_check_discriminant
                0x00149190                ec_GF2m_simple_point_init
                0x001491e0                ec_GF2m_simple_point_finish
                0x00149220                ec_GF2m_simple_point_clear_finish
                0x00149270                ec_GF2m_simple_point_copy
                0x001492f0                ec_GF2m_simple_point_set_to_infinity
                0x00149330                ec_GF2m_simple_point_set_affine_coordinates
                0x00149430                ec_GF2m_simple_point_get_affine_coordinates
                0x00149530                ec_GF2m_simple_add
                0x00149a70                ec_GF2m_simple_dbl
                0x00149ab0                ec_GF2m_simple_invert
                0x00149b30                ec_GF2m_simple_is_at_infinity
                0x00149b50                ec_GF2m_simple_is_on_curve
                0x00149d30                ec_GF2m_simple_cmp
                0x00149ef0                ec_GF2m_simple_make_affine
                0x0014a020                ec_GF2m_simple_points_make_affine
                0x0014a080                ec_GF2m_simple_field_mul
                0x0014a0d0                ec_GF2m_simple_field_sqr
                0x0014a110                ec_GF2m_simple_field_div
 *fill*         0x0014a157        0x9 
 .text          0x0014a160      0x386 libcrypto_pic.a(buffer.pico)
                0x0014a160                BUF_MEM_new
                0x0014a1e0                BUF_MEM_free
                0x0014a240                BUF_MEM_grow
                0x0014a360                BUF_MEM_grow_clean
                0x0014a490                BUF_reverse
 *fill*         0x0014a4e6        0xa 
 .text          0x0014a4f0      0x993 libcrypto_pic.a(bn_mont.pico)
                0x0014a4f0                BN_mod_mul_montgomery
                0x0014a840                BN_from_montgomery
                0x0014a8b0                BN_MONT_CTX_new
                0x0014a940                BN_MONT_CTX_init
                0x0014a9a0                BN_MONT_CTX_free
                0x0014aa00                BN_MONT_CTX_set
                0x0014ac40                BN_MONT_CTX_copy
                0x0014acd0                BN_MONT_CTX_set_locked
 *fill*         0x0014ae83        0xd 
 .text          0x0014ae90      0x5e8 libcrypto_pic.a(bn_recp.pico)
                0x0014ae90                BN_RECP_CTX_init
                0x0014aed0                BN_RECP_CTX_new
                0x0014af40                BN_RECP_CTX_free
                0x0014af90                BN_RECP_CTX_set
                0x0014b000                BN_mod_mul_reciprocal
                0x0014b0c0                BN_div_recp
                0x0014b3f0                BN_reciprocal
 *fill*         0x0014b478        0x8 
 .text          0x0014b480      0xea8 libcrypto_pic.a(bn_gcd.pico)
                0x0014b480                BN_gcd
                0x0014b710                BN_mod_inverse
 *fill*         0x0014c328        0x8 
 .text          0x0014c330      0x6fc libcrypto_pic.a(bn_mod.pico)
                0x0014c330                BN_nnmod
                0x0014c3b0                BN_mod_add
                0x0014c450                BN_mod_add_quick
                0x0014c4c0                BN_mod_sub
                0x0014c560                BN_mod_sub_quick
                0x0014c5c0                BN_mod_mul
                0x0014c6b0                BN_mod_sqr
                0x0014c710                BN_mod_lshift1
                0x0014c7a0                BN_mod_lshift1_quick
                0x0014c810                BN_mod_lshift
                0x0014c8e0                BN_mod_lshift_quick
 *fill*         0x0014ca2c        0x4 
 .text          0x0014ca30      0x6ce libcrypto_pic.a(bn_div.pico)
                0x0014ca30                BN_div
 *fill*         0x0014d0fe        0x2 
 .text          0x0014d100      0x458 libcrypto_pic.a(tasn_fre.pico)
                0x0014d100                ASN1_item_free
                0x0014d3a0                ASN1_item_ex_free
                0x0014d3d0                ASN1_template_free
                0x0014d470                ASN1_primitive_free
 *fill*         0x0014d558        0x8 
 .text          0x0014d560      0xb77 libcrypto_pic.a(a_object.pico)
                0x0014d560                i2d_ASN1_OBJECT
                0x0014d610                a2d_ASN1_OBJECT
                0x0014daf0                i2t_ASN1_OBJECT
                0x0014db30                i2a_ASN1_OBJECT
                0x0014dc50                d2i_ASN1_OBJECT
                0x0014dd10                c2i_ASN1_OBJECT
                0x0014df50                ASN1_OBJECT_new
                0x0014dff0                ASN1_OBJECT_free
                0x0014e080                ASN1_OBJECT_create
 *fill*         0x0014e0d7        0x9 
 .text          0x0014e0e0      0xd18 libcrypto_pic.a(ec2_mult.pico)
                0x0014e0e0                ec_GF2m_simple_mul
                0x0014edc0                ec_GF2m_precompute_mult
                0x0014ede0                ec_GF2m_have_precompute_mult
 *fill*         0x0014edf8        0x8 
 .text          0x0014ee00     0x1e21 libcrypto_pic.a(ec_lib.pico)
                0x0014ee00                EC_GROUP_new
                0x0014ef30                EC_GROUP_free
                0x0014eff0                EC_EX_DATA_free_all_data
                0x0014f040                EC_POINT_free
                0x0014f080                EC_GROUP_clear_free
                0x0014f180                EC_EX_DATA_clear_free_all_data
                0x0014f1d0                EC_POINT_clear_free
                0x0014f230                EC_GROUP_copy
                0x0014f5a0                EC_EX_DATA_set_data
                0x0014f680                EC_POINT_new
                0x0014f760                EC_POINT_copy
                0x0014f7f0                EC_GROUP_dup
                0x0014f850                EC_GROUP_method_of
                0x0014f860                EC_METHOD_get_field_type
                0x0014f870                EC_GROUP_set_generator
                0x0014f9b0                EC_GROUP_get0_generator
                0x0014f9c0                EC_GROUP_get_order
                0x0014fa10                EC_GROUP_get_cofactor
                0x0014fa60                EC_GROUP_set_curve_name
                0x0014fa70                EC_GROUP_get_curve_name
                0x0014fa80                EC_GROUP_set_asn1_flag
                0x0014fa90                EC_GROUP_get_asn1_flag
                0x0014faa0                EC_GROUP_set_point_conversion_form
                0x0014fab0                EC_GROUP_get_point_conversion_form
                0x0014fac0                EC_GROUP_set_seed
                0x0014fb50                EC_GROUP_get0_seed
                0x0014fb60                EC_GROUP_get_seed_len
                0x0014fb70                EC_GROUP_set_curve_GFp
                0x0014fbd0                EC_GROUP_get_curve_GFp
                0x0014fc30                EC_GROUP_set_curve_GF2m
                0x0014fc90                EC_GROUP_get_curve_GF2m
                0x0014fcf0                EC_GROUP_get_degree
                0x0014fd50                EC_GROUP_check_discriminant
                0x0014fdb0                EC_GROUP_cmp
                0x00150110                EC_POINT_cmp
                0x001501a0                EC_EX_DATA_get_data
                0x001501e0                EC_EX_DATA_free_data
                0x00150250                EC_EX_DATA_clear_free_data
                0x001502c0                EC_POINT_dup
                0x00150390                EC_POINT_method_of
                0x001503a0                EC_POINT_set_to_infinity
                0x00150420                EC_POINT_set_Jprojective_coordinates_GFp
                0x001504a0                EC_POINT_get_Jprojective_coordinates_GFp
                0x00150520                EC_POINT_set_affine_coordinates_GFp
                0x001505a0                EC_POINT_set_affine_coordinates_GF2m
                0x00150620                EC_POINT_get_affine_coordinates_GFp
                0x001506a0                EC_POINT_get_affine_coordinates_GF2m
                0x00150720                EC_POINT_add
                0x001507b0                EC_POINT_dbl
                0x00150840                EC_POINT_invert
                0x001508c0                EC_POINT_is_at_infinity
                0x00150940                EC_POINT_is_on_curve
                0x001509c0                EC_POINT_make_affine
                0x00150a40                EC_POINTs_make_affine
                0x00150ae0                EC_POINTs_mul
                0x00150b10                EC_POINT_mul
                0x00150bb0                EC_GROUP_precompute_mult
                0x00150bf0                EC_GROUP_have_precompute_mult
 *fill*         0x00150c21        0xf 
 .text          0x00150c30     0x2003 libcrypto_pic.a(bn_gf2m.pico)
                0x00150c30                BN_GF2m_add
                0x00150d00                BN_GF2m_mod_arr
                0x00150fc0                BN_GF2m_mod
                0x001510b0                BN_GF2m_poly2arr
                0x00151180                BN_GF2m_mod_mul_arr
                0x001513e0                BN_GF2m_mod_sqr_arr
                0x00151590                BN_GF2m_mod_mul
                0x00151720                BN_GF2m_mod_sqr
                0x001518b0                BN_GF2m_mod_inv
                0x00151ce0                BN_GF2m_mod_inv_arr
                0x00151d90                BN_GF2m_arr2poly
                0x00151e10                BN_GF2m_mod_div
                0x00151eb0                BN_GF2m_mod_div_arr
                0x00151fb0                BN_GF2m_mod_exp_arr
                0x001520f0                BN_GF2m_mod_exp
                0x00152280                BN_GF2m_mod_sqrt_arr
                0x00152330                BN_GF2m_mod_sqrt
                0x001524c0                BN_GF2m_mod_solve_quad_arr
                0x00152920                BN_GF2m_mod_solve_quad
 *fill*         0x00152c33        0xd 
 .text          0x00152c40      0x55f libcrypto_pic.a(bn_sqr.pico)
                0x00152c40                BN_sqr
                0x00152eb0                bn_sqr_normal
                0x00152ff0                bn_sqr_recursive
 *fill*         0x0015319f        0x1 
 .text          0x001531a0     0x1bff libcrypto_pic.a(bn_mul.pico)
                0x001531a0                bn_sub_part_words
                0x001533d0                bn_add_part_words
                0x001535c0                bn_mul_recursive
                0x00153b60                bn_mul_normal
                0x00153d30                bn_mul_part_recursive
                0x001542f0                bn_mul_low_recursive
                0x00154450                bn_mul_low_normal
                0x00154580                bn_mul_high
                0x00154a60                BN_mul
 *fill*         0x00154d9f        0x1 
 .text          0x00154da0      0x395 libcrypto_pic.a(bn_word.pico)
                0x00154da0                BN_mod_word
                0x00154e00                BN_div_word
                0x00154ee0                BN_add_word
                0x00154fc0                BN_sub_word
                0x001550a0                BN_mul_word
 *fill*         0x00155135        0xb 
 .text          0x00155140      0x4f7 libcrypto_pic.a(bn_shift.pico)
                0x00155140                BN_lshift1
                0x00155200                BN_rshift1
                0x001552d0                BN_lshift
                0x00155470                BN_rshift
 *fill*         0x00155637        0x9 
 .text          0x00155640      0x5ca libcrypto_pic.a(bn_rand.pico)
                0x00155640                BN_rand
                0x00155920                BN_pseudo_rand
                0x00155960                BN_bntest_rand
                0x001559a0                BN_rand_range
                0x00155be0                BN_pseudo_rand_range
 *fill*         0x00155c0a        0x6 
 .text          0x00155c10      0x810 libcrypto_pic.a(bn_ctx.pico)
                0x00155c10                BN_CTX_init
                0x00155dc0                BN_CTX_new
                0x00155e80                BN_CTX_free
                0x00156050                BN_CTX_start
                0x00156150                BN_CTX_end
                0x001561e0                BN_CTX_get
 .text          0x00156420      0x4cc libcrypto_pic.a(bn_add.pico)
                0x00156420                BN_add
                0x001564e0                BN_usub
                0x001566e0                BN_uadd
                0x001567f0                BN_sub
 *fill*         0x001568ec        0x4 
 .text          0x001568f0     0x110a libcrypto_pic.a(x86.pico)
                0x001568f0                bn_mul_add_words
                0x00156ab0                bn_mul_words
                0x00156be0                bn_sqr_words
                0x00156cd0                bn_div_words
                0x00156cf0                bn_add_words
                0x00156ea0                bn_sub_words
                0x00157050                bn_mul_comba8
                0x001574a0                bn_mul_comba4
                0x001575e0                bn_sqr_comba8
                0x00157910                bn_sqr_comba4
 *fill*         0x001579fa        0x6 
 .text          0x00157a00      0x3a9 libcrypto_pic.a(tasn_utl.pico)
                0x00157a00                asn1_get_choice_selector
                0x00157a20                asn1_set_choice_selector
                0x00157a40                asn1_do_lock
                0x00157ac0                asn1_enc_init
                0x00157b10                asn1_enc_free
                0x00157b80                asn1_enc_save
                0x00157c40                asn1_enc_restore
                0x00157cd0                asn1_get_field_ptr
                0x00157cf0                asn1_do_adb
 *fill*         0x00157da9        0x7 
 .text          0x00157db0      0x909 libcrypto_pic.a(a_int.pico)
                0x00157db0                ASN1_INTEGER_dup
                0x00157dd0                ASN1_INTEGER_cmp
                0x00157e20                i2c_ASN1_INTEGER
                0x00157fb0                c2i_ASN1_INTEGER
                0x00158200                d2i_ASN1_UINTEGER
                0x00158370                ASN1_INTEGER_set
                0x00158480                ASN1_INTEGER_get
                0x001584f0                BN_to_ASN1_INTEGER
                0x00158630                ASN1_INTEGER_to_BN
 *fill*         0x001586b9        0x7 
 .text          0x001586c0     0x124f libcrypto_pic.a(bn_lib.pico)
                0x001586c0                BN_set_params
                0x00158740                BN_get_params
                0x00158790                BN_value_one
                0x001587b0                BN_num_bits_word
                0x00158820                BN_num_bits
                0x001588a0                BN_clear_free
                0x00158920                BN_free
                0x00158980                BN_init
                0x001589b0                BN_new
                0x00158a40                bn_dup_expand
                0x00158cc0                BN_dup
                0x00158db0                bn_expand2
                0x00158e00                BN_copy
                0x00158f20                BN_swap
                0x00158fa0                BN_clear
                0x00158ff0                BN_get_word
                0x00159010                BN_set_word
                0x00159080                BN_bin2bn
                0x00159260                BN_bn2bin
                0x00159340                BN_ucmp
                0x00159390                BN_cmp
                0x00159420                BN_set_bit
                0x00159510                BN_clear_bit
                0x00159570                BN_is_bit_set
                0x001595a0                BN_mask_bits
                0x00159620                BN_set_negative
                0x00159650                bn_cmp_words
                0x001596b0                bn_cmp_part_words
                0x00159750                BN_consttime_swap
 *fill*         0x0015990f        0x1 
 .text          0x00159910      0xb2b libcrypto_pic.a(asn1_lib.pico)
                0x00159910                ASN1_check_infinite_end
                0x00159950                ASN1_const_check_infinite_end
                0x00159990                ASN1_get_object
                0x00159b90                ASN1_put_object
                0x00159cd0                ASN1_put_eoc
                0x00159cf0                ASN1_object_size
                0x00159d40                asn1_Finish
                0x00159da0                asn1_const_Finish
                0x00159e00                asn1_GetSequence
                0x00159eb0                ASN1_STRING_copy
                0x00159f10                ASN1_STRING_set
                0x0015a040                ASN1_STRING_dup
                0x0015a120                ASN1_STRING_new
                0x0015a1b0                ASN1_STRING_free
                0x0015a1f0                ASN1_STRING_set0
                0x0015a230                ASN1_STRING_type_new
                0x0015a2c0                ASN1_STRING_clear_free
                0x0015a320                ASN1_STRING_cmp
                0x0015a370                asn1_add_error
                0x0015a400                ASN1_STRING_length
                0x0015a410                ASN1_STRING_length_set
                0x0015a420                ASN1_STRING_type
                0x0015a430                ASN1_STRING_data
 *fill*         0x0015a43b        0x5 
 .text          0x0015a440     0x11d6 libcrypto_pic.a(b_print.pico)
                0x0015a440                BIO_printf
                0x0015a480                BIO_vprintf
                0x0015b180                BIO_snprintf
                0x0015b1f0                BIO_vsnprintf
 *fill*         0x0015b616        0xa 
 .text          0x0015b620      0xf91 libcrypto_pic.a(bio_lib.pico)
                0x0015b620                BIO_new
                0x0015b740                BIO_set
                0x0015b810                BIO_free
                0x0015b8e0                BIO_vfree
                0x0015b900                BIO_clear_flags
                0x0015b910                BIO_test_flags
                0x0015b920                BIO_set_flags
                0x0015b930                BIO_get_callback
                0x0015b940                BIO_set_callback
                0x0015b950                BIO_set_callback_arg
                0x0015b960                BIO_get_callback_arg
                0x0015b970                BIO_method_name
                0x0015b980                BIO_method_type
                0x0015b990                BIO_read
                0x0015bab0                BIO_write
                0x0015bbd0                BIO_puts
                0x0015bce0                BIO_gets
                0x0015be00                BIO_indent
                0x0015be60                BIO_int_ctrl
                0x0015beb0                BIO_ctrl
                0x0015bfb0                BIO_ptr_ctrl
                0x0015c000                BIO_callback_ctrl
                0x0015c100                BIO_ctrl_pending
                0x0015c140                BIO_ctrl_wpending
                0x0015c180                BIO_push
                0x0015c1e0                BIO_pop
                0x0015c250                BIO_get_retry_BIO
                0x0015c280                BIO_get_retry_reason
                0x0015c290                BIO_find_type
                0x0015c2f0                BIO_next
                0x0015c310                BIO_free_all
                0x0015c360                BIO_dup_chain
                0x0015c4a0                BIO_copy_next_retry
                0x0015c4c0                BIO_get_ex_new_index
                0x0015c510                BIO_set_ex_data
                0x0015c550                BIO_get_ex_data
                0x0015c580                BIO_number_read
                0x0015c5a0                BIO_number_written
 *fill*         0x0015c5b1        0xf 
 .text          0x0015c5c0     0x10d8 libcrypto_pic.a(ex_data.pico)
                0x0015c5c0                CRYPTO_get_ex_data_implementation
                0x0015c650                CRYPTO_set_ex_data_implementation
                0x0015c6e0                CRYPTO_ex_data_new_class
                0x0015c770                CRYPTO_cleanup_all_ex_data
                0x0015c800                CRYPTO_get_ex_new_index
                0x0015c890                CRYPTO_new_ex_data
                0x0015c920                CRYPTO_dup_ex_data
                0x0015c9b0                CRYPTO_free_ex_data
                0x0015ca40                CRYPTO_set_ex_data
                0x0015cb20                CRYPTO_get_ex_data
 *fill*         0x0015d698        0x8 
 .text          0x0015d6a0      0xd23 libcrypto_pic.a(cryptlib.pico)
                0x0015d6a0                CRYPTO_get_new_lockid
                0x0015d760                CRYPTO_num_locks
                0x0015d770                CRYPTO_get_new_dynlockid
                0x0015d9e0                CRYPTO_lock
                0x0015da80                CRYPTO_destroy_dynlockid
                0x0015dbe0                CRYPTO_get_dynlock_value
                0x0015dcd0                CRYPTO_get_dynlock_create_callback
                0x0015dcf0                CRYPTO_get_dynlock_lock_callback
                0x0015dd10                CRYPTO_get_dynlock_destroy_callback
                0x0015dd30                CRYPTO_set_dynlock_create_callback
                0x0015dd50                CRYPTO_set_dynlock_lock_callback
                0x0015dd70                CRYPTO_set_dynlock_destroy_callback
                0x0015dd90                CRYPTO_get_locking_callback
                0x0015ddb0                CRYPTO_get_add_lock_callback
                0x0015ddd0                CRYPTO_set_locking_callback
                0x0015de00                CRYPTO_set_add_lock_callback
                0x0015de20                CRYPTO_THREADID_set_numeric
                0x0015de40                CRYPTO_THREADID_set_pointer
                0x0015de60                CRYPTO_THREADID_set_callback
                0x0015de90                CRYPTO_THREADID_get_callback
                0x0015deb0                CRYPTO_THREADID_current
                0x0015df10                CRYPTO_THREADID_cmp
                0x0015df50                CRYPTO_THREADID_cpy
                0x0015df70                CRYPTO_THREADID_hash
                0x0015df80                CRYPTO_get_id_callback
                0x0015dfa0                CRYPTO_set_id_callback
                0x0015dfc0                CRYPTO_thread_id
                0x0015dff0                OpenSSLDie
                0x0015e030                CRYPTO_add_lock
                0x0015e1a0                CRYPTO_get_lock_name
                0x0015e210                OPENSSL_ia32cap_loc
                0x0015e230                OPENSSL_cpuid_setup
                0x0015e320                OPENSSL_showfatal
                0x0015e360                OPENSSL_isservice
                0x0015e370                OPENSSL_stderr
                0x0015e390                CRYPTO_memcmp
 *fill*         0x0015e3c3        0xd 
 .text          0x0015e3d0      0x329 libcrypto_pic.a(buf_str.pico)
                0x0015e3d0                BUF_strdup
                0x0015e480                BUF_strndup
                0x0015e520                BUF_strlcpy
                0x0015e5a0                BUF_memdup
                0x0015e640                BUF_strlcat
 *fill*         0x0015e6f9        0x7 
 .text          0x0015e700      0xbc0 libcrypto_pic.a(mem.pico)
                0x0015e700                CRYPTO_set_mem_functions
                0x0015e7f0                CRYPTO_set_mem_ex_functions
                0x0015e870                CRYPTO_set_locked_mem_functions
                0x0015e8c0                CRYPTO_set_locked_mem_ex_functions
                0x0015e910                CRYPTO_set_mem_debug_functions
                0x0015e970                CRYPTO_get_mem_functions
                0x0015e9e0                CRYPTO_get_mem_ex_functions
                0x0015ea40                CRYPTO_get_locked_mem_functions
                0x0015ea90                CRYPTO_get_locked_mem_ex_functions
                0x0015ead0                CRYPTO_get_mem_debug_functions
                0x0015eb30                CRYPTO_malloc_locked
                0x0015ec00                CRYPTO_free_locked
                0x0015ec60                CRYPTO_malloc
                0x0015ed30                CRYPTO_strdup
                0x0015ee10                CRYPTO_realloc
                0x0015ef70                CRYPTO_realloc_clean
                0x0015f110                CRYPTO_free
                0x0015f170                CRYPTO_remalloc
                0x0015f280                CRYPTO_set_mem_debug_options
                0x0015f2a0                CRYPTO_get_mem_debug_options
 .text          0x0015f2c0       0x22 libcrypto_pic.a(o_init.pico)
                0x0015f2c0                OPENSSL_init
 *fill*         0x0015f2e2        0x2 
 .text          0x0015f2e4        0x0 /usr/lib/crtendS.o
 .text          0x0015f2e4        0x0 /usr/lib/crtn.o
 *(.text.unlikely .text.*_unlikely)
 *(.text.exit .text.exit.*)
 *(.text.startup .text.startup.*)
 *(.text.hot .text.hot.*)
 *(.stub .text.* .gnu.linkonce.t.*)
 *(.gnu.warning)

.fini           0x0015f2f0        0xa
 *(SORT(.fini))
 .fini          0x0015f2f0        0x3 /usr/lib/crti.o
                0x0015f2f0                _fini
 .fini          0x0015f2f3        0x5 /usr/lib/crtbeginS.o
 .fini          0x0015f2f8        0x2 /usr/lib/crtn.o
                0x0015f2fa                PROVIDE (__etext, .)
                0x0015f2fa                PROVIDE (_etext, .)
                0x0015f2fa                PROVIDE (etext, .)

.rodata         0x0015f300    0x2e63c
 *(.rodata .rodata.* .gnu.linkonce.r.*)
 .rodata.str1.1
                0x0015f300       0x45 libcrypto_pic.a(rc5_enc_dummy.pico)
 .rodata.str1.1
                0x00000000       0x45 libcrypto_pic.a(rc5_skey_dummy.pico)
 .rodata.str1.1
                0x0015f345       0x41 libcrypto_pic.a(x509spki.pico)
 .rodata.str1.1
                0x0015f386       0x41 libcrypto_pic.a(x509_r2x.pico)
 .rodata.str1.1
                0x0015f3c7      0x198 libcrypto_pic.a(ts_conf.pico)
                                0x1c8 (size before relaxing)
 .rodata.str1.1
                0x0015f55f       0x5c libcrypto_pic.a(ts_verify_ctx.pico)
 .rodata.str1.1
                0x0015f5bb      0x166 libcrypto_pic.a(ts_rsp_verify.pico)
 .rodata.str1.1
                0x0015f721      0x1de libcrypto_pic.a(ts_rsp_sign.pico)
 .rodata.str1.1
                0x0015f8ff      0x2d7 libcrypto_pic.a(ts_rsp_print.pico)
                                0x2f8 (size before relaxing)
 .rodata.str1.1
                0x0015fbd6       0x43 libcrypto_pic.a(ts_rsp_utils.pico)
 .rodata.str1.1
                0x0015fc19       0x1a libcrypto_pic.a(ts_req_print.pico)
                                 0x5e (size before relaxing)
 .rodata.str1.1
                0x0015fc33       0x42 libcrypto_pic.a(str_meth.pico)
 .rodata.str1.1
                0x0015fc75       0x60 libcrypto_pic.a(str_mem.pico)
 *fill*         0x0015fcd5        0x3 
 .rodata        0x0015fcd8        0xc libcrypto_pic.a(str_mem.pico)
 .rodata        0x0015fce4       0xe4 libcrypto_pic.a(str_lib.pico)
                0x0015fd7c                STORE_param_sizes
                0x0015fd98                STORE_attr_sizes
 .rodata.str1.1
                0x0015fdc8       0x83 libcrypto_pic.a(str_lib.pico)
                                 0x8a (size before relaxing)
 .rodata.str1.1
                0x0015fe4b      0xa99 libcrypto_pic.a(str_err.pico)
                                0xab2 (size before relaxing)
 .rodata.str1.1
                0x001608e4       0x41 libcrypto_pic.a(srp_vfy.pico)
 .rodata.str1.1
                0x00160925       0x62 libcrypto_pic.a(srp_lib.pico)
                                 0x64 (size before relaxing)
 .rodata        0x00160987       0x2a libcrypto_pic.a(libc-sha256.pico)
                0x00160987                SHA256_version
 .rodata        0x001609b1       0x2a libcrypto_pic.a(libc-sha512.pico)
                0x001609b1                SHA512_version
 .rodata.str1.1
                0x001609db       0x3f libcrypto_pic.a(rsa_prn.pico)
 .rodata.str1.1
                0x00160a1a       0x49 libcrypto_pic.a(rsa_null.pico)
 .rodata.str1.1
                0x00160a63       0x3f libcrypto_pic.a(rsa_chk.pico)
 .rodata.str1.1
                0x00160aa2       0x19 libcrypto_pic.a(randfile.pico)
                                 0x1b (size before relaxing)
 .rodata.str1.1
                0x00160abb       0x68 libcrypto_pic.a(pqueue.pico)
 .rodata.str1.1
                0x00000000       0x68 libcrypto_pic.a(pk7_mime.pico)
                                  0x6 (size before relaxing)
 .rodata.str1.1
                0x00160b23       0x4e libcrypto_pic.a(pk7_smime.pico)
                                 0x5c (size before relaxing)
 .rodata.str1.1
                0x00160b71       0x43 libcrypto_pic.a(p12_npas.pico)
 .rodata        0x00160bb4       0x18 libcrypto_pic.a(p12_kiss.pico)
 .rodata.str1.1
                0x00160bcc       0x43 libcrypto_pic.a(p12_kiss.pico)
                                 0x44 (size before relaxing)
 .rodata.str1.1
                0x00160c0f       0x42 libcrypto_pic.a(p12_crt.pico)
 .rodata.str1.1
                0x00160c51       0x3e libcrypto_pic.a(pvkfmt.pico)
 .rodata.str1.1
                0x00160c8f       0x40 libcrypto_pic.a(pem_seal.pico)
 .rodata.str1.1
                0x00160ccf       0x40 libcrypto_pic.a(pem_sign.pico)
 .rodata.str1.1
                0x00160d0f       0x41 libcrypto_pic.a(ocsp_vfy.pico)
                                 0x4f (size before relaxing)
 .rodata.str1.1
                0x00160d50      0x30f libcrypto_pic.a(ocsp_prn.pico)
                                0x333 (size before relaxing)
 .rodata.str1.1
                0x0016105f       0x41 libcrypto_pic.a(ocsp_srv.pico)
 .rodata.str1.1
                0x001610a0       0x40 libcrypto_pic.a(ocsp_cl.pico)
 .rodata.str1.1
                0x001610e0       0x53 libcrypto_pic.a(ocsp_lib.pico)
                                 0x55 (size before relaxing)
 .rodata        0x00161133       0x52 libcrypto_pic.a(ocsp_ht.pico)
 .rodata.str1.1
                0x00161185       0x4f libcrypto_pic.a(ocsp_ht.pico)
                                 0x57 (size before relaxing)
 .rodata.str1.1
                0x001611d4       0x41 libcrypto_pic.a(ocsp_ext.pico)
 .rodata.str1.1
                0x00161215      0x227 libcrypto_pic.a(lh_stats.pico)
 .rodata.str1.1
                0x0016143c      0x139 libcrypto_pic.a(krb5_asn.pico)
                                0x16e (size before relaxing)
 *fill*         0x00161575        0x3 
 .rodata        0x00161578       0x34 libcrypto_pic.a(bio_ok.pico)
 .rodata.str1.1
                0x001615ac       0x7c libcrypto_pic.a(bio_ok.pico)
 .rodata.str1.1
                0x00161628       0x3e libcrypto_pic.a(p_open.pico)
 *fill*         0x00161666        0x2 
 .rodata        0x00161668        0x4 libcrypto_pic.a(tb_store.pico)
 .rodata.str1.1
                0x0016166c       0x76 libcrypto_pic.a(eng_openssl.pico)
                                 0x80 (size before relaxing)
 .rodata.str1.1
                0x001616e2      0x5c4 libcrypto_pic.a(eng_err.pico)
                                0x5f7 (size before relaxing)
 .rodata.str1.1
                0x00161ca6       0xf7 libcrypto_pic.a(ecs_err.pico)
 .rodata.str1.1
                0x00161d9d       0x66 libcrypto_pic.a(ech_err.pico)
                                 0x76 (size before relaxing)
 .rodata.str1.1
                0x00161e03       0x3f libcrypto_pic.a(ec_check.pico)
 .rodata.str1.1
                0x00161e42     0x1038 libcrypto_pic.a(ec_err.pico)
                               0x1094 (size before relaxing)
 .rodata.str1.1
                0x00162e7a       0x1b libcrypto_pic.a(dso_null.pico)
 .rodata.str1.1
                0x00162e95      0x45e libcrypto_pic.a(dso_err.pico)
                                0x471 (size before relaxing)
 .rodata.str1.1
                0x001632f3       0x3f libcrypto_pic.a(dsa_prn.pico)
 .rodata.str1.1
                0x00163332      0x191 libcrypto_pic.a(dsa_err.pico)
                                0x24b (size before relaxing)
 .rodata.str1.1
                0x001634c3       0x3d libcrypto_pic.a(dh_prn.pico)
 .rodata.str1.1
                0x00163500      0x11b libcrypto_pic.a(dh_err.pico)
                                0x1d4 (size before relaxing)
 *fill*         0x0016361b        0x1 
 .rodata        0x0016361c       0x38 libcrypto_pic.a(ede_cbcm_enc.pico)
 .rodata        0x00163654       0x40 libcrypto_pic.a(ofb_enc.pico)
 .rodata        0x00163694       0xc0 libcrypto_pic.a(fcrypt.pico)
 .rodata.str1.1
                0x00163754       0x40 libcrypto_pic.a(enc_writ.pico)
 .rodata.str1.1
                0x00163794       0x40 libcrypto_pic.a(enc_read.pico)
 .rodata        0x001637d4       0x44 libcrypto_pic.a(cbc_enc.pico)
 .rodata        0x00163818       0x1c libcrypto_pic.a(cbc_cksm.pico)
 .rodata.str1.1
                0x00163834       0x3a libcrypto_pic.a(o_fips.pico)
 .rodata.str1.1
                0x0016386e       0xe8 libcrypto_pic.a(cpt_err.pico)
 .rodata.str1.1
                0x00163956       0x4e libcrypto_pic.a(cversion.pico)
                                 0x5d (size before relaxing)
 .rodata.str1.1
                0x001639a4      0x228 libcrypto_pic.a(conf_err.pico)
                                0x26f (size before relaxing)
 .rodata.str1.1
                0x00163bcc        0x8 libcrypto_pic.a(c_zlib.pico)
 .rodata.str1.1
                0x00163bd4       0x17 libcrypto_pic.a(c_rle.pico)
 .rodata.str1.1
                0x00163beb       0x72 libcrypto_pic.a(comp_err.pico)
 .rodata.str1.1
                0x00163c5d       0x41 libcrypto_pic.a(comp_lib.pico)
 .rodata.str1.1
                0x00163c9e      0xc3e libcrypto_pic.a(cms_err.pico)
                                0xd0b (size before relaxing)
 .rodata.str1.1
                0x001648dc       0x41 libcrypto_pic.a(cms_smime.pico)
                                 0x5a (size before relaxing)
 .rodata.str1.1
                0x0016491d       0x4e libcrypto_pic.a(buf_err.pico)
 .rodata        0x0016496b      0xd20 libcrypto_pic.a(bn_const.pico)
 .rodata.str1.1
                0x0016568b       0x3d libcrypto_pic.a(bn_mpi.pico)
 .rodata.str1.1
                0x001656c8      0x3a0 libcrypto_pic.a(bn_err.pico)
                                0x3bf (size before relaxing)
 .rodata        0x00165a68       0xc4 libcrypto_pic.a(bss_dgram.pico)
 .rodata.str1.1
                0x00165b2c       0x67 libcrypto_pic.a(bss_dgram.pico)
 *fill*         0x00165b93        0x1 
 .rodata        0x00165b94       0x64 libcrypto_pic.a(bss_bio.pico)
 .rodata.str1.1
                0x00165bf8       0x48 libcrypto_pic.a(bss_bio.pico)
 .rodata.str1.1
                0x00165c40       0x52 libcrypto_pic.a(bss_log.pico)
                                 0x55 (size before relaxing)
 *fill*         0x00165c92        0x2 
 .rodata        0x00165c94      0x190 libcrypto_pic.a(bss_log.pico)
 .rodata.str1.1
                0x00165e24       0x5b libcrypto_pic.a(bf_nbio.pico)
 *fill*         0x00165e7f        0x1 
 .rodata        0x00165e80       0x48 libcrypto_pic.a(bss_acpt.pico)
 .rodata.str1.1
                0x00165ec8       0x4e libcrypto_pic.a(bss_acpt.pico)
 .rodata.str1.1
                0x00165f16        0xc libcrypto_pic.a(bf_null.pico)
 *fill*         0x00165f22        0x2 
 .rodata        0x00165f24       0x94 libcrypto_pic.a(bss_conn.pico)
 .rodata.str1.1
                0x00165fb8       0x55 libcrypto_pic.a(bss_conn.pico)
                                 0x76 (size before relaxing)
 *fill*         0x0016600d        0x3 
 .rodata        0x00166010       0x30 libcrypto_pic.a(bss_fd.pico)
 .rodata.str1.1
                0x00166040       0x10 libcrypto_pic.a(bss_fd.pico)
 .rodata.str1.1
                0x00166050      0x375 libcrypto_pic.a(bio_err.pico)
                                0x3cd (size before relaxing)
 *fill*         0x001663c5        0x3 
 .rodata        0x001663c8       0x2c libcrypto_pic.a(bio_cb.pico)
 .rodata.str1.1
                0x001663f4      0x114 libcrypto_pic.a(bio_cb.pico)
 .rodata.str1.1
                0x00166508        0xe libcrypto_pic.a(x_nx509.pico)
                                 0x1a (size before relaxing)
 .rodata.str1.1
                0x00166516       0x4d libcrypto_pic.a(asn_moid.pico)
 .rodata.str1.1
                0x00166563     0x1082 libcrypto_pic.a(asn1_err.pico)
                               0x1130 (size before relaxing)
 .rodata.str1.1
                0x001675e5       0x53 libcrypto_pic.a(f_enum.pico)
                                 0x56 (size before relaxing)
 .rodata        0x00167638       0x18 libcrypto_pic.a(n_pkey.pico)
 .rodata.str1.1
                0x00167650       0x9f libcrypto_pic.a(n_pkey.pico)
                                 0xbc (size before relaxing)
 .rodata.str1.1
                0x00000000       0x9f libcrypto_pic.a(t_bitst.pico)
                                  0xa (size before relaxing)
 .rodata.str1.1
                0x001676ef       0x92 libcrypto_pic.a(t_spki.pico)
                                 0x97 (size before relaxing)
 .rodata.str1.1
                0x00167781      0x135 libcrypto_pic.a(t_crl.pico)
                                0x138 (size before relaxing)
 .rodata.str1.1
                0x001678b6      0x14e libcrypto_pic.a(t_req.pico)
                                0x15d (size before relaxing)
 .rodata.str1.1
                0x00167a04       0x3f libcrypto_pic.a(i2d_pu.pico)
 .rodata.str1.1
                0x00167a43       0x3f libcrypto_pic.a(d2i_pu.pico)
 .rodata.str1.1
                0x00167a82       0xa4 libcrypto_pic.a(aes_ige.pico)
 .rodata.str1.1
                0x00167b26      0x9ec libcrypto_pic.a(v3err.pico)
                                0xa28 (size before relaxing)
 .rodata.str1.1
                0x00168512       0x73 libcrypto_pic.a(by_dir.pico)
                                 0x76 (size before relaxing)
 .rodata.str1.1
                0x00168585       0x55 libcrypto_pic.a(by_file.pico)
                                 0x57 (size before relaxing)
 *fill*         0x001685da        0x2 
 .rodata        0x001685dc       0xdc libcrypto_pic.a(x509_txt.pico)
 .rodata.str1.1
                0x001686b8      0x707 libcrypto_pic.a(x509_txt.pico)
                                0x72a (size before relaxing)
 .rodata.str1.1
                0x00168dbf      0x59a libcrypto_pic.a(x509_err.pico)
                                0x5b2 (size before relaxing)
 .rodata.str1.1
                0x00169359      0x16c libcrypto_pic.a(ui_err.pico)
 .rodata.str1.1
                0x001694c5       0x27 libcrypto_pic.a(ts_lib.pico)
                                 0x51 (size before relaxing)
 .rodata.str1.1
                0x001694ec       0x43 libcrypto_pic.a(ts_req_utils.pico)
 .rodata.str1.1
                0x0016952f      0x6c9 libcrypto_pic.a(ts_err.pico)
                                0x726 (size before relaxing)
 .rodata        0x00169bf8       0x29 libcrypto_pic.a(txt_db.pico)
                0x00169bf8                TXT_DB_version
 .rodata.str1.1
                0x00169c21       0xbb libcrypto_pic.a(txt_db.pico)
 .rodata.str1.1
                0x00169cdc      0x927 libcrypto_pic.a(rsa_err.pico)
                                0x9ba (size before relaxing)
 .rodata.str1.1
                0x0016a603       0xa7 libcrypto_pic.a(rand_err.pico)
 .rodata.str1.1
                0x0016a6aa      0x5b3 libcrypto_pic.a(pkcs7err.pico)
                                0x7be (size before relaxing)
 .rodata.str1.1
                0x0016ac5d      0x39e libcrypto_pic.a(pk12err.pico)
                                0x3da (size before relaxing)
 .rodata.str1.1
                0x0016affb       0x43 libcrypto_pic.a(p12_mutl.pico)
 .rodata.str1.1
                0x0016b03e       0x43 libcrypto_pic.a(p12_init.pico)
 .rodata.str1.1
                0x0016b081       0x25 libcrypto_pic.a(pem_xaux.pico)
 .rodata.str1.1
                0x0016b0a6      0x450 libcrypto_pic.a(pem_err.pico)
                                0x475 (size before relaxing)
 .rodata.str1.1
                0x0016b4f6       0xc2 libcrypto_pic.a(pem_info.pico)
                                 0xe2 (size before relaxing)
 .rodata.str1.1
                0x0016b5b8      0x345 libcrypto_pic.a(ocsp_err.pico)
                                0x3d9 (size before relaxing)
 .rodata.str1.1
                0x0016b8fd       0x66 libcrypto_pic.a(obj_err.pico)
                                 0x72 (size before relaxing)
 *fill*         0x0016b963        0x1 
 .rodata        0x0016b964      0x428 libcrypto_pic.a(md2_dgst.pico)
                0x0016b964                MD2_version
 .rodata.str1.1
                0x0016bd8c        0x9 libcrypto_pic.a(md2_dgst.pico)
 .rodata.str1.1
                0x0016bd95      0x974 libcrypto_pic.a(evp_err.pico)
                                0xb0e (size before relaxing)
 .rodata.str1.1
                0x0016c709       0x5e libcrypto_pic.a(evp_cnf.pico)
                                 0x64 (size before relaxing)
 .rodata.str1.1
                0x0016c767       0x3d libcrypto_pic.a(p_dec.pico)
 .rodata.str1.1
                0x0016c7a4       0x3d libcrypto_pic.a(p_enc.pico)
 .rodata.str1.1
                0x0016c7e1       0x9c libcrypto_pic.a(eng_cnf.pico)
                                 0xc3 (size before relaxing)
 .rodata.str1.1
                0x0016c87d       0x76 libcrypto_pic.a(eng_fat.pico)
                                 0x91 (size before relaxing)
 *fill*         0x0016c8f3        0x1 
 .rodata        0x0016c8f4       0x38 libcrypto_pic.a(pcbc_enc.pico)
 .rodata.str1.1
                0x0016c92c       0x3f libcrypto_pic.a(cms_ess.pico)
 .rodata.str1.1
                0x0016c96b       0x9f libcrypto_pic.a(b_sock.pico)
                                 0xbe (size before relaxing)
 .rodata.str1.1
                0x00000000       0x9f libcrypto_pic.a(bss_sock.pico)
                                  0x7 (size before relaxing)
 .rodata.str1.1
                0x0016ca0a       0x3f libcrypto_pic.a(x_info.pico)
 .rodata.str1.1
                0x0016ca49       0xe4 libcrypto_pic.a(ts_asn1.pico)
                                0x191 (size before relaxing)
 .rodata.str1.1
                0x00000000        0xc libcrypto_pic.a(pem_x509.pico)
 .rodata.str1.1
                0x0016cb2d       0x52 libcrypto_pic.a(pem_all.pico)
                                 0xbb (size before relaxing)
 .rodata.str1.1
                0x0016cb7f       0x5e libcrypto_pic.a(c_alld.pico)
                                 0x71 (size before relaxing)
 .rodata.str1.1
                0x0016cbdd      0x168 libcrypto_pic.a(c_allc.pico)
                                0x185 (size before relaxing)
 .rodata.str1.1
                0x0016cd45       0x3d libcrypto_pic.a(e_rc5.pico)
 .rodata.str1.1
                0x0016cd82       0x4d libcrypto_pic.a(e_rc2.pico)
 .rodata.str1.1
                0x0016cdcf       0x42 libcrypto_pic.a(e_camellia.pico)
 *fill*         0x0016ce11        0x3 
 .rodata        0x0016ce14       0x44 libcrypto_pic.a(e_aes.pico)
 .rodata.str1.1
                0x0016ce58       0x3d libcrypto_pic.a(e_aes.pico)
 .rodata.str1.1
                0x0016ce95       0x8b libcrypto_pic.a(gost_eng.pico)
                                 0xb4 (size before relaxing)
 .rodata.str1.16
                0x0016cf20       0xf0 libcrypto_pic.a(gost_eng.pico)
                                 0xeb (size before relaxing)
 .rodata        0x0016d010       0x50 libcrypto_pic.a(e_padlock.pico)
 .rodata.str1.1
                0x0016d060       0x38 libcrypto_pic.a(e_padlock.pico)
                                 0x3c (size before relaxing)
 .rodata.str1.1
                0x0016d098      0x308 libcrypto_pic.a(e_ubsec.pico)
                                0x347 (size before relaxing)
 .rodata        0x0016d3a0      0x29c libcrypto_pic.a(e_sureware.pico)
 .rodata.str1.1
                0x0016d63c      0x366 libcrypto_pic.a(e_sureware.pico)
                                0x3df (size before relaxing)
 .rodata.str1.1
                0x0016d9a2      0x132 libcrypto_pic.a(e_nuron.pico)
                                0x18b (size before relaxing)
 .rodata.str1.1
                0x0016dad4      0x1fa libcrypto_pic.a(e_cswift.pico)
                                0x285 (size before relaxing)
 *fill*         0x0016dcce        0x2 
 .rodata        0x0016dcd0       0x28 libcrypto_pic.a(e_chil.pico)
 .rodata.str1.1
                0x0016dcf8      0x3e7 libcrypto_pic.a(e_chil.pico)
                                0x4a7 (size before relaxing)
 .rodata.str1.1
                0x0016e0df      0x16e libcrypto_pic.a(e_atalla.pico)
                                0x1fb (size before relaxing)
 .rodata.str1.1
                0x0016e24d      0x23f libcrypto_pic.a(e_aep.pico)
                                0x2c5 (size before relaxing)
 .rodata.str1.1
                0x0016e48c      0x1b3 libcrypto_pic.a(e_4758cca.pico)
                                0x26e (size before relaxing)
 .rodata.str1.1
                0x0016e63f       0x1b libcrypto_pic.a(eng_rdrand.pico)
 *fill*         0x0016e65a        0x2 
 .rodata        0x0016e65c       0x1c libcrypto_pic.a(eng_dyn.pico)
 .rodata.str1.1
                0x0016e678      0x227 libcrypto_pic.a(eng_dyn.pico)
                                0x248 (size before relaxing)
 .rodata.str1.1
                0x0016e89f       0x43 libcrypto_pic.a(eng_pkey.pico)
 *fill*         0x0016e8e2        0x2 
 .rodata        0x0016e8e4       0x80 libcrypto_pic.a(cfb64ede.pico)
 .rodata        0x0016e964       0x44 libcrypto_pic.a(xcbc_enc.pico)
 .rodata        0x0016e9a8       0x4f libcrypto_pic.a(ecb_enc.pico)
                0x0016e9a8                OSSL_libdes_version
                0x0016e9d1                OSSL_DES_version
 .rodata.str1.1
                0x0016e9f7       0x1b libcrypto_pic.a(ecb_enc.pico)
                                 0x23 (size before relaxing)
 *fill*         0x0016ea12        0x2 
 .rodata        0x0016ea14       0x80 libcrypto_pic.a(cfb_enc.pico)
 .rodata        0x0016ea94       0x27 libcrypto_pic.a(c_ecb.pico)
                0x0016ea94                CAST_version
 *fill*         0x0016eabb        0x1 
 .rodata        0x0016eabc       0x44 libcrypto_pic.a(c_enc.pico)
 .rodata        0x0016eb00       0x2b libcrypto_pic.a(bf_ecb.pico)
                0x0016eb00                BF_version
 .rodata.str1.1
                0x0016eb2b        0xe libcrypto_pic.a(bf_ecb.pico)
 *fill*         0x0016eb39        0x3 
 .rodata        0x0016eb3c     0x1048 libcrypto_pic.a(bf_skey.pico)
 .rodata.str1.1
                0x0016fb84       0x3f libcrypto_pic.a(x_pkey.pico)
 .rodata.str1.1
                0x0016fbc3       0x17 libcrypto_pic.a(nsseq.pico)
                                 0x22 (size before relaxing)
 .rodata        0x0016fbda       0x26 libcrypto_pic.a(rc5_ecb.pico)
                0x0016fbda                RC5_version
 .rodata        0x0016fc00     0x1000 libcrypto_pic.a(seed.pico)
 .rodata        0x00170c00       0x27 libcrypto_pic.a(i_ecb.pico)
                0x00170c00                IDEA_version
 .rodata.str1.1
                0x00170c27        0xa libcrypto_pic.a(i_ecb.pico)
 .rodata        0x00170c31       0x26 libcrypto_pic.a(sha_dgst.pico)
                0x00170c31                SHA_version
 .rodata        0x00170c57       0x2d libcrypto_pic.a(rmd_dgst.pico)
                0x00170c57                RMD160_version
 .rodata        0x00170c84      0x100 libcrypto_pic.a(rc2_skey.pico)
 .rodata        0x00170d84       0x26 libcrypto_pic.a(rc2_ecb.pico)
                0x00170d84                RC2_version
 .rodata.str1.1
                0x00170daa       0x83 libcrypto_pic.a(pem_pkey.pico)
                                 0x9a (size before relaxing)
 .rodata.str1.1
                0x00170e2d       0x3f libcrypto_pic.a(pem_pk8.pico)
                                 0x61 (size before relaxing)
 .rodata        0x00170e6c       0x26 libcrypto_pic.a(md4_dgst.pico)
                0x00170e6c                MD4_version
 .rodata.str1.1
                0x00170e92       0x40 libcrypto_pic.a(gcm128.pico)
 *fill*         0x00170ed2        0x2 
 .rodata        0x00170ed4       0x48 libcrypto_pic.a(gost_pmeth.pico)
 .rodata.str1.1
                0x00170f1c       0x4d libcrypto_pic.a(gost_pmeth.pico)
                                 0x5a (size before relaxing)
 .rodata.str1.1
                0x00170f69       0xc0 libcrypto_pic.a(gost94_keyx.pico)
 .rodata.str1.1
                0x00171029       0x49 libcrypto_pic.a(gost2001_keyx.pico)
                                 0xc2 (size before relaxing)
 *fill*         0x00171072        0x2 
 .rodata        0x00171074      0x980 libcrypto_pic.a(set_key.pico)
 .rodata        0x001719f4     0x2000 libcrypto_pic.a(c_skey.pico)
                0x001719f4                CAST_S_table0
                0x00171df4                CAST_S_table1
                0x001721f4                CAST_S_table2
                0x001725f4                CAST_S_table3
                0x001729f4                CAST_S_table4
                0x00172df4                CAST_S_table5
                0x001731f4                CAST_S_table6
                0x001735f4                CAST_S_table7
 .rodata        0x001739f4     0x1050 libcrypto_pic.a(wp_block.pico)
 .rodata        0x00174a44       0x44 libcrypto_pic.a(i_cbc.pico)
 .rodata        0x00174a88       0x44 libcrypto_pic.a(rc2_cbc.pico)
 .rodata        0x00174acc       0x2b libcrypto_pic.a(cmll_misc.pico)
                0x00174acc                CAMELLIA_version
 *fill*         0x00174af7        0x1 
 .rodata        0x00174af8     0x1000 libcrypto_pic.a(camellia.pico)
 .rodata.str1.1
                0x00175af8       0x46 libcrypto_pic.a(gost_crypt.pico)
 *fill*         0x00175b3e        0x2 
 .rodata        0x00175b40       0x1c libcrypto_pic.a(gost_ameth.pico)
 .rodata.str1.1
                0x00175b5c       0x9f libcrypto_pic.a(gost_ameth.pico)
                                 0xa1 (size before relaxing)
 .rodata        0x00175bfb       0x20 libcrypto_pic.a(gost89.pico)
                0x00175bfb                CryptoProKeyMeshingKey
 .rodata.str1.1
                0x00175c1b       0x4f libcrypto_pic.a(gost2001.pico)
 .rodata.str1.1
                0x00175c6a       0x45 libcrypto_pic.a(gost_sign.pico)
 .rodata.str1.1
                0x00175caf     0x18b0 libcrypto_pic.a(gost_params.pico)
                               0x18b8 (size before relaxing)
 .rodata.str1.1
                0x0017755f       0x35 libcrypto_pic.a(gost_ctl.pico)
 .rodata.str1.1
                0x00177594       0xf3 libcrypto_pic.a(gost_asn1.pico)
                                 0xfd (size before relaxing)
 .rodata.str1.1
                0x00177687      0x628 libcrypto_pic.a(e_gost_err.pico)
                                0x65d (size before relaxing)
 .rodata.str1.1
                0x00177caf       0x76 libcrypto_pic.a(v3_utl.pico)
                                 0xa2 (size before relaxing)
 .rodata.str1.1
                0x00177d25       0x7e libcrypto_pic.a(v3_sxnet.pico)
                                 0x95 (size before relaxing)
 .rodata.str1.1
                0x00177da3       0x42 libcrypto_pic.a(v3_skey.pico)
                                 0x47 (size before relaxing)
 *fill*         0x00177de5        0x3 
 .rodata        0x00177de8       0x60 libcrypto_pic.a(v3_purp.pico)
 .rodata.str1.1
                0x00177e48       0xfb libcrypto_pic.a(v3_purp.pico)
                                0x120 (size before relaxing)
 .rodata.str1.1
                0x00177f43       0x32 libcrypto_pic.a(v3_prn.pico)
                                 0x5a (size before relaxing)
 .rodata.str1.1
                0x00177f75       0x31 libcrypto_pic.a(v3_pku.pico)
                                 0x46 (size before relaxing)
 .rodata.str1.1
                0x00177fa6       0xa8 libcrypto_pic.a(v3_pci.pico)
                                 0xd5 (size before relaxing)
 .rodata.str1.1
                0x0017804e       0x59 libcrypto_pic.a(v3_pcia.pico)
                                 0x60 (size before relaxing)
 .rodata.str1.1
                0x001780a7       0x73 libcrypto_pic.a(v3_ocsp.pico)
                                 0x83 (size before relaxing)
 .rodata.str1.1
                0x0017811a      0x2ac libcrypto_pic.a(ocsp_asn.pico)
                                0x2d4 (size before relaxing)
 .rodata.str1.1
                0x001783c6       0x41 libcrypto_pic.a(f_string.pico)
                                 0x57 (size before relaxing)
 *fill*         0x00178407        0x1 
 .rodata        0x00178408       0x18 libcrypto_pic.a(v3_ncons.pico)
 .rodata.str1.1
                0x00178420       0xdd libcrypto_pic.a(v3_ncons.pico)
                                0x109 (size before relaxing)
 .rodata.str1.1
                0x001784fd       0x41 libcrypto_pic.a(v3_lib.pico)
 .rodata.str1.1
                0x0017853e       0x6b libcrypto_pic.a(v3_info.pico)
                                 0x93 (size before relaxing)
 .rodata.str1.1
                0x001785a9       0x41 libcrypto_pic.a(v3_ia5.pico)
 .rodata.str1.1
                0x001785ea       0x43 libcrypto_pic.a(v3_extku.pico)
                                 0x6e (size before relaxing)
 .rodata.str1.1
                0x0017862d       0xcf libcrypto_pic.a(v3_enum.pico)
                                0x13a (size before relaxing)
 .rodata.str1.1
                0x001786fc      0x1c3 libcrypto_pic.a(v3_bitst.pico)
                                0x1ef (size before relaxing)
 .rodata.str1.1
                0x001788bf       0x43 libcrypto_pic.a(v3_bcons.pico)
                                 0x7b (size before relaxing)
 .rodata.str1.1
                0x00178902       0x49 libcrypto_pic.a(v3_akey.pico)
                                 0x63 (size before relaxing)
 *fill*         0x0017894b        0x1 
 .rodata        0x0017894c       0x6c libcrypto_pic.a(v3_genn.pico)
 .rodata.str1.1
                0x001789b8       0xbd libcrypto_pic.a(v3_genn.pico)
                                 0xeb (size before relaxing)
 .rodata.str1.1
                0x00178a75      0x1b5 libcrypto_pic.a(v3_crld.pico)
                                0x32c (size before relaxing)
 *fill*         0x00178c2a        0x2 
 .rodata        0x00178c2c       0x6c libcrypto_pic.a(v3_alt.pico)
 .rodata.str1.1
                0x00178c98      0x117 libcrypto_pic.a(v3_alt.pico)
                                0x194 (size before relaxing)
 .rodata.str1.1
                0x00178daf      0x1b9 libcrypto_pic.a(v3_cpols.pico)
                                0x1f3 (size before relaxing)
 .rodata.str1.1
                0x00178f68       0x61 libcrypto_pic.a(v3_conf.pico)
                                 0x77 (size before relaxing)
 *fill*         0x00178fc9        0x3 
 .rodata        0x00178fcc       0x10 libcrypto_pic.a(x509_req.pico)
 .rodata.str1.1
                0x00178fdc       0x41 libcrypto_pic.a(x509_req.pico)
 *fill*         0x0017901d        0x3 
 .rodata        0x00179020       0x98 libcrypto_pic.a(asn1_gen.pico)
 .rodata.str1.1
                0x001790b8      0x149 libcrypto_pic.a(asn1_gen.pico)
                                0x1f4 (size before relaxing)
 .rodata.str1.1
                0x00179201       0xa3 libcrypto_pic.a(conf_mod.pico)
                                 0xb3 (size before relaxing)
 .rodata.str1.1
                0x001792a4       0x66 libcrypto_pic.a(x509_def.pico)
 *fill*         0x0017930a        0x2 
 .rodata        0x0017930c       0x20 libcrypto_pic.a(pcy_tree.pico)
 .rodata.str1.1
                0x0017932c       0x43 libcrypto_pic.a(pcy_tree.pico)
 .rodata.str1.1
                0x0017936f       0x43 libcrypto_pic.a(pcy_node.pico)
 .rodata.str1.1
                0x001793b2       0x79 libcrypto_pic.a(v3_pmaps.pico)
                                 0xa1 (size before relaxing)
 .rodata.str1.1
                0x0017942b       0x3f libcrypto_pic.a(i2d_pr.pico)
 .rodata.str1.1
                0x0017946a       0x3f libcrypto_pic.a(d2i_pr.pico)
 .rodata.str1.1
                0x001794a9       0x3e libcrypto_pic.a(x_spki.pico)
                                 0x48 (size before relaxing)
 .rodata.str1.1
                0x001794e7       0x32 libcrypto_pic.a(x_req.pico)
                                 0x54 (size before relaxing)
 *fill*         0x00179519        0x3 
 .rodata        0x0017951c       0x18 libcrypto_pic.a(x_req.pico)
 .rodata.str1.1
                0x00179534       0x41 libcrypto_pic.a(a_digest.pico)
 .rodata.str1.1
                0x00179575       0x3f libcrypto_pic.a(a_sign.pico)
 .rodata.str1.1
                0x001795b4       0x46 libcrypto_pic.a(evp_pkey.pico)
 .rodata.str1.1
                0x001795fa       0x40 libcrypto_pic.a(x509_lu.pico)
 .rodata.str1.1
                0x0017963a       0x41 libcrypto_pic.a(x509name.pico)
                                 0x47 (size before relaxing)
 .rodata        0x0017967b       0x28 libcrypto_pic.a(x509_vfy.pico)
                0x0017967b                X509_version
 .rodata.str1.1
                0x001796a3       0x5b libcrypto_pic.a(x509_vfy.pico)
                                 0x63 (size before relaxing)
 .rodata.str1.1
                0x001796fe       0x5d libcrypto_pic.a(x509_vpm.pico)
                                 0x70 (size before relaxing)
 .rodata.str1.1
                0x0017975b       0x8e libcrypto_pic.a(x509_trs.pico)
                                 0xa4 (size before relaxing)
 .rodata.str1.1
                0x001797e9       0x41 libcrypto_pic.a(x509_cmp.pico)
 .rodata.str1.1
                0x0017982a       0x88 libcrypto_pic.a(ui_openssl.pico)
                                 0x8c (size before relaxing)
 .rodata        0x001798b2       0x28 libcrypto_pic.a(stack.pico)
                0x001798b2                STACK_version
 .rodata.str1.1
                0x001798da       0x3f libcrypto_pic.a(stack.pico)
 .rodata.str1.1
                0x00179919       0x40 libcrypto_pic.a(rsa_crpt.pico)
 .rodata.str1.1
                0x00179959       0x3f libcrypto_pic.a(rsa_pss.pico)
 .rodata        0x00179998        0x8 libcrypto_pic.a(rsa_pss.pico)
 .rodata        0x001799a0       0x5c libcrypto_pic.a(rsa_pmeth.pico)
 .rodata.str1.1
                0x001799fc       0xa4 libcrypto_pic.a(rsa_pmeth.pico)
                                 0xa9 (size before relaxing)
 .rodata.str1.1
                0x00179aa0       0x40 libcrypto_pic.a(rsa_saos.pico)
 .rodata.str1.1
                0x00179ae0       0x3f libcrypto_pic.a(rsa_gen.pico)
 *fill*         0x00179b1f        0x1 
 .rodata        0x00179b20       0x1c libcrypto_pic.a(rsa_ameth.pico)
 .rodata.str1.1
                0x00179b3c      0x177 libcrypto_pic.a(rsa_ameth.pico)
                                0x1a7 (size before relaxing)
 .rodata.str1.1
                0x00179cb3       0x47 libcrypto_pic.a(rsa_asn1.pico)
                                 0x6b (size before relaxing)
 .rodata.str1.1
                0x00179cfa       0x3e libcrypto_pic.a(f_int.pico)
                                 0x57 (size before relaxing)
 .rodata.str1.1
                0x00179d38       0x40 libcrypto_pic.a(rsa_oaep.pico)
 .rodata.str1.1
                0x00179d78       0x3f libcrypto_pic.a(rsa_ssl.pico)
 .rodata.str1.1
                0x00179db7       0x3f libcrypto_pic.a(rsa_pk1.pico)
 .rodata.str1.1
                0x00179df6       0x75 libcrypto_pic.a(rsa_sign.pico)
 .rodata        0x00179e6b       0x26 libcrypto_pic.a(rsa_lib.pico)
                0x00179e6b                RSA_version
 .rodata.str1.1
                0x00179e91       0x3f libcrypto_pic.a(rsa_lib.pico)
 .rodata        0x00179ed0       0x20 libcrypto_pic.a(rsa_eay.pico)
 .rodata.str1.1
                0x00179ef0       0x57 libcrypto_pic.a(rsa_eay.pico)
 *fill*         0x00179f47        0x1 
 .rodata        0x00179f48        0x4 libcrypto_pic.a(tb_rsa.pico)
 .rodata.str1.1
                0x00179f4c       0x3f libcrypto_pic.a(bn_blind.pico)
 .rodata.str1.1
                0x00179f8b       0x40 libcrypto_pic.a(rsa_x931.pico)
 .rodata.str1.1
                0x00179fcb       0x40 libcrypto_pic.a(rsa_none.pico)
 .rodata.str1.1
                0x0017a00b       0x61 libcrypto_pic.a(rand_unix.pico)
 .rodata.cst4   0x0017a06c        0x4 libcrypto_pic.a(md_rand.pico)
                                  0xc (size before relaxing)
 .rodata        0x0017a070       0x27 libcrypto_pic.a(md_rand.pico)
                0x0017a070                RAND_version
 .rodata.str1.1
                0x0017a097       0x9f libcrypto_pic.a(md_rand.pico)
 *fill*         0x0017a136        0x2 
 .rodata        0x0017a138        0x4 libcrypto_pic.a(tb_rand.pico)
 .rodata.str1.1
                0x0017a13c       0x42 libcrypto_pic.a(pk7_attr.pico)
 *fill*         0x0017a17e        0x2 
 .rodata        0x0017a180       0x28 libcrypto_pic.a(pk7_doit.pico)
 .rodata.str1.1
                0x0017a1a8       0x42 libcrypto_pic.a(pk7_doit.pico)
 *fill*         0x0017a1ea        0x2 
 .rodata        0x0017a1ec       0x28 libcrypto_pic.a(pk7_lib.pico)
 .rodata.str1.1
                0x0017a214       0x41 libcrypto_pic.a(pk7_lib.pico)
 *fill*         0x0017a255        0x3 
 .rodata        0x0017a258       0x10 libcrypto_pic.a(pk7_asn1.pico)
 .rodata.str1.1
                0x0017a268      0x19d libcrypto_pic.a(pk7_asn1.pico)
                                0x1fb (size before relaxing)
 .rodata.str1.1
                0x0017a405       0x42 libcrypto_pic.a(p12_p8e.pico)
 .rodata.str1.1
                0x0017a447       0x42 libcrypto_pic.a(p12_utl.pico)
 .rodata.str1.1
                0x0017a489       0x42 libcrypto_pic.a(p12_add.pico)
 .rodata.str1.1
                0x0017a4cb       0x43 libcrypto_pic.a(p12_decr.pico)
 .rodata.str1.1
                0x0017a50e       0xd4 libcrypto_pic.a(p12_asn.pico)
                                 0xef (size before relaxing)
 .rodata.str1.1
                0x0017a5e2        0x9 libcrypto_pic.a(x_sig.pico)
                                 0x16 (size before relaxing)
 .rodata.str1.1
                0x0017a5eb       0x42 libcrypto_pic.a(p12_key.pico)
 .rodata.str1.1
                0x0017a62d       0x43 libcrypto_pic.a(p12_crpt.pico)
 .rodata.str1.1
                0x0017a670       0x3f libcrypto_pic.a(pem_oth.pico)
 .rodata        0x0017a6af       0x26 libcrypto_pic.a(pem_lib.pico)
                0x0017a6af                PEM_version
 .rodata.str1.1
                0x0017a6d5      0x12e libcrypto_pic.a(pem_lib.pico)
                                0x223 (size before relaxing)
 .rodata.str1.1
                0x0017a803       0x73 libcrypto_pic.a(evp_key.pico)
 .rodata.str1.1
                0x0017a876       0x61 libcrypto_pic.a(ui_lib.pico)
                                 0x70 (size before relaxing)
 .rodata        0x0017a8d7       0x26 libcrypto_pic.a(md5_dgst.pico)
                0x0017a8d7                MD5_version
 .rodata.str1.1
                0x0017a8fd       0x43 libcrypto_pic.a(obj_lib.pico)
 .rodata        0x0017a940     0x4162 libcrypto_pic.a(obj_dat.pico)
 .rodata.str1.1
                0x0017eaa2     0x4b25 libcrypto_pic.a(obj_dat.pico)
                               0x4ddd (size before relaxing)
 .rodata        0x001835c7       0x28 libcrypto_pic.a(lhash.pico)
                0x001835c7                lh_version
 .rodata.str1.1
                0x001835ef       0x3f libcrypto_pic.a(lhash.pico)
 .rodata.str1.1
                0x0018362e       0x41 libcrypto_pic.a(hm_pmeth.pico)
                                 0x4c (size before relaxing)
 .rodata.str1.1
                0x0018366f       0x55 libcrypto_pic.a(hm_ameth.pico)
                                 0x5a (size before relaxing)
 .rodata.str1.1
                0x001836c4       0x58 libcrypto_pic.a(hmac.pico)
 .rodata.str1.1
                0x0018371c       0x40 libcrypto_pic.a(pmeth_gn.pico)
 .rodata.str1.1
                0x0018375c       0x40 libcrypto_pic.a(m_sigver.pico)
 .rodata.str1.1
                0x0018379c       0x40 libcrypto_pic.a(pmeth_fn.pico)
 .rodata.str1.1
                0x001837dc       0x41 libcrypto_pic.a(pmeth_lib.pico)
                                 0x48 (size before relaxing)
 .rodata.str1.1
                0x0018381d       0x51 libcrypto_pic.a(ec_pmeth.pico)
 *fill*         0x0018386e        0x2 
 .rodata        0x00183870       0x2c libcrypto_pic.a(dsa_pmeth.pico)
 .rodata.str1.1
                0x0018389c       0x77 libcrypto_pic.a(dsa_pmeth.pico)
 .rodata.str1.1
                0x00183913       0x6b libcrypto_pic.a(dh_pmeth.pico)
 .rodata.str1.1
                0x0018397e       0x3d libcrypto_pic.a(dh_gen.pico)
 .rodata.str1.1
                0x00000000       0x12 libcrypto_pic.a(cm_pmeth.pico)
 .rodata        0x001839bb       0x27 libcrypto_pic.a(ech_lib.pico)
                0x001839bb                ECDH_version
 .rodata.str1.1
                0x001839e2       0x40 libcrypto_pic.a(ech_lib.pico)
 *fill*         0x00183a22        0x2 
 .rodata        0x00183a24        0x4 libcrypto_pic.a(tb_ecdh.pico)
 .rodata.str1.1
                0x00183a28       0x55 libcrypto_pic.a(ech_ossl.pico)
 .rodata.str1.1
                0x00183a7d       0x55 libcrypto_pic.a(p5_crpt2.pico)
 .rodata.str1.1
                0x00183ad2       0x97 libcrypto_pic.a(p5_crpt.pico)
 .rodata.str1.1
                0x00183b69       0x48 libcrypto_pic.a(p5_pbe.pico)
                                 0x52 (size before relaxing)
 .rodata.str1.1
                0x00183bb1       0x3f libcrypto_pic.a(evp_pbe.pico)
                                 0x4a (size before relaxing)
 .rodata        0x00183bf0       0x34 libcrypto_pic.a(bio_enc.pico)
 .rodata.str1.1
                0x00183c24       0x3f libcrypto_pic.a(bio_enc.pico)
                                 0x46 (size before relaxing)
 .rodata.str1.1
                0x00000000       0x3f libcrypto_pic.a(bio_md.pico)
                                  0xf (size before relaxing)
 .rodata.str1.1
                0x00183c63       0x5c libcrypto_pic.a(p_lib.pico)
                                 0x7e (size before relaxing)
 .rodata.str1.1
                0x00183cbf       0x40 libcrypto_pic.a(p_verify.pico)
 .rodata.str1.1
                0x00183cff       0x3e libcrypto_pic.a(p_sign.pico)
 *fill*         0x00183d3d        0x3 
 .rodata        0x00183d40       0x3e libcrypto_pic.a(evp_enc.pico)
                0x00183d58                EVP_version
 .rodata.str1.1
                0x00183d7e      0x11b libcrypto_pic.a(evp_enc.pico)
 .rodata.str1.1
                0x00183e99       0x44 libcrypto_pic.a(tb_cipher.pico)
 .rodata.str1.1
                0x00183edd       0x66 libcrypto_pic.a(digest.pico)
 .rodata.str1.1
                0x00183f43       0x44 libcrypto_pic.a(tb_digest.pico)
 .rodata.str1.1
                0x00183f87      0x4bb libcrypto_pic.a(err.pico)
                                0x4ec (size before relaxing)
 .rodata.str1.1
                0x00184442       0x44 libcrypto_pic.a(tb_pkmeth.pico)
 *fill*         0x00184486        0x2 
 .rodata        0x00184488        0x4 libcrypto_pic.a(tb_ecdsa.pico)
 .rodata        0x0018448c        0x4 libcrypto_pic.a(tb_dh.pico)
 .rodata        0x00184490        0x4 libcrypto_pic.a(tb_dsa.pico)
 .rodata.str1.1
                0x00184494       0x44 libcrypto_pic.a(tb_asnmth.pico)
 .rodata.str1.1
                0x001844d8       0x44 libcrypto_pic.a(eng_table.pico)
 .rodata.str1.1
                0x0018451c       0x68 libcrypto_pic.a(eng_list.pico)
                                 0x96 (size before relaxing)
 .rodata        0x00184584       0x1c libcrypto_pic.a(eng_ctrl.pico)
 .rodata.str1.1
                0x001845a0       0x43 libcrypto_pic.a(eng_ctrl.pico)
                                 0x47 (size before relaxing)
 .rodata.str1.1
                0x001845e3       0x57 libcrypto_pic.a(ecs_ossl.pico)
 .rodata.str1.1
                0x0018463a        0xa libcrypto_pic.a(ecs_asn1.pico)
                                  0xe (size before relaxing)
 .rodata.str1.1
                0x00184644       0x3e libcrypto_pic.a(ecp_oct.pico)
 .rodata.str1.1
                0x00184682       0x3e libcrypto_pic.a(bn_sqrt.pico)
 .rodata        0x001846c0       0x20 libcrypto_pic.a(bn_kron.pico)
 .rodata.str1.1
                0x001846e0       0x3e libcrypto_pic.a(ec2_oct.pico)
 .rodata.str1.1
                0x0018471e       0x7f libcrypto_pic.a(ec_ameth.pico)
                                 0x99 (size before relaxing)
 .rodata        0x0018479d       0x28 libcrypto_pic.a(ecs_lib.pico)
                0x0018479d                ECDSA_version
 .rodata.str1.1
                0x001847c5       0x41 libcrypto_pic.a(ecs_lib.pico)
 .rodata.str1.1
                0x00184806       0xe9 libcrypto_pic.a(eck_prn.pico)
                                 0xf8 (size before relaxing)
 .rodata.str1.1
                0x001848ef       0x3f libcrypto_pic.a(ec_print.pico)
                                 0x50 (size before relaxing)
 .rodata.str1.1
                0x0018492e      0x146 libcrypto_pic.a(ec_asn1.pico)
                                0x189 (size before relaxing)
 .rodata.str1.1
                0x00184a74       0x4e libcrypto_pic.a(bn_print.pico)
                                 0x55 (size before relaxing)
 .rodata        0x00184ac2       0x11 libcrypto_pic.a(bn_print.pico)
 .rodata.str1.1
                0x00184ad3       0x3d libcrypto_pic.a(ec_oct.pico)
 .rodata.str1.1
                0x00184b10       0x3e libcrypto_pic.a(ec_mult.pico)
 .rodata.str1.1
                0x00184b4e       0x98 libcrypto_pic.a(dso_dlfcn.pico)
                                 0xa5 (size before relaxing)
 .rodata.str1.1
                0x00184be6       0x3f libcrypto_pic.a(dso_lib.pico)
 .rodata.str1.1
                0x00184c25       0x72 libcrypto_pic.a(dsa_ameth.pico)
                                 0xb8 (size before relaxing)
 .rodata.str1.1
                0x00184c97       0x51 libcrypto_pic.a(dsa_asn1.pico)
                                 0x6f (size before relaxing)
 .rodata        0x00184ce8       0x10 libcrypto_pic.a(mem_dbg.pico)
 .rodata.str1.1
                0x00184cf8       0xd1 libcrypto_pic.a(mem_dbg.pico)
                                 0xd4 (size before relaxing)
 .rodata        0x00184dc9       0x2b libcrypto_pic.a(conf_def.pico)
                0x00184dc9                CONF_def_version
 .rodata.str1.1
                0x00184df4       0x71 libcrypto_pic.a(conf_def.pico)
                                 0x80 (size before relaxing)
 .rodata        0x00184e65       0x27 libcrypto_pic.a(conf_lib.pico)
                0x00184e65                CONF_version
 .rodata.str1.1
                0x00184e8c       0x48 libcrypto_pic.a(conf_lib.pico)
                                 0x52 (size before relaxing)
 .rodata.str1.1
                0x00184ed4       0x50 libcrypto_pic.a(conf_api.pico)
                                 0x58 (size before relaxing)
 .rodata.str1.1
                0x00184f24       0x40 libcrypto_pic.a(cms_pwri.pico)
 .rodata.str1.1
                0x00184f64       0x5f libcrypto_pic.a(p5_pbev2.pico)
                                 0x82 (size before relaxing)
 .rodata.str1.1
                0x00184fc3       0x41 libcrypto_pic.a(asn_pack.pico)
 .rodata.str1.1
                0x00185004       0x3e libcrypto_pic.a(a_set.pico)
 .rodata.str1.1
                0x00185042       0x3f libcrypto_pic.a(cms_enc.pico)
 .rodata.str1.1
                0x00185081       0x3f libcrypto_pic.a(cms_env.pico)
 .rodata        0x001850c0        0x8 libcrypto_pic.a(aes_wrap.pico)
 .rodata        0x001850c8       0x26 libcrypto_pic.a(aes_misc.pico)
                0x001850c8                AES_version
 .rodata.str1.1
                0x001850ee        0xd libcrypto_pic.a(aes_misc.pico)
 .rodata.str1.1
                0x001850fb       0x3e libcrypto_pic.a(cms_dd.pico)
 .rodata.str1.1
                0x00185139       0x3e libcrypto_pic.a(cms_sd.pico)
 .rodata.str1.1
                0x00185177       0x41 libcrypto_pic.a(x509_att.pico)
                                 0x47 (size before relaxing)
 .rodata.str1.1
                0x001851b8       0x5d libcrypto_pic.a(a_strnid.pico)
                                 0x65 (size before relaxing)
 *fill*         0x00185215        0x3 
 .rodata        0x00185218      0x17c libcrypto_pic.a(a_strnid.pico)
 .rodata.str1.1
                0x00185394       0x3e libcrypto_pic.a(cms_io.pico)
                                 0x42 (size before relaxing)
 *fill*         0x001853d2        0x2 
 .rodata        0x001853d4       0x18 libcrypto_pic.a(asn_mime.pico)
 .rodata.str1.1
                0x001853ec      0x365 libcrypto_pic.a(asn_mime.pico)
                                0x3a1 (size before relaxing)
 .rodata.str1.1
                0x00185751       0x41 libcrypto_pic.a(a_i2d_fp.pico)
 .rodata.str1.1
                0x00185792       0x41 libcrypto_pic.a(a_d2i_fp.pico)
 *fill*         0x001857d3        0x1 
 .rodata        0x001857d4       0x34 libcrypto_pic.a(bio_b64.pico)
 .rodata.str1.1
                0x00185808      0x11f libcrypto_pic.a(bio_b64.pico)
 .rodata.str1.1
                0x00185927       0xc8 libcrypto_pic.a(encode.pico)
 .rodata        0x001859ef       0x80 libcrypto_pic.a(encode.pico)
 *fill*         0x00185a6f        0x1 
 .rodata        0x00185a70       0x34 libcrypto_pic.a(bf_buff.pico)
 .rodata.str1.1
                0x00185aa4       0x3f libcrypto_pic.a(bf_buff.pico)
                                 0x46 (size before relaxing)
 .rodata.str1.1
                0x00185ae3       0x41 libcrypto_pic.a(bio_ndef.pico)
 .rodata        0x00185b24       0x2c libcrypto_pic.a(bio_asn1.pico)
 .rodata.str1.1
                0x00185b50       0x62 libcrypto_pic.a(bio_asn1.pico)
 *fill*         0x00185bb2        0x2 
 .rodata        0x00185bb4       0x10 libcrypto_pic.a(cms_asn1.pico)
 .rodata.str1.1
                0x00185bc4      0x66b libcrypto_pic.a(cms_asn1.pico)
                                0x721 (size before relaxing)
 *fill*         0x0018622f        0x1 
 .rodata        0x00186230       0xd0 libcrypto_pic.a(cms_lib.pico)
 .rodata.str1.1
                0x00186300       0x3f libcrypto_pic.a(cms_lib.pico)
 .rodata.str1.1
                0x00000000        0x5 libcrypto_pic.a(bss_null.pico)
 *fill*         0x0018633f        0x1 
 .rodata        0x00186340       0x30 libcrypto_pic.a(bss_null.pico)
 .rodata        0x00186370       0x30 libcrypto_pic.a(bss_mem.pico)
 .rodata.str1.1
                0x001863a0       0x4d libcrypto_pic.a(bss_mem.pico)
 *fill*         0x001863ed        0x3 
 .rodata        0x001863f0       0x70 libcrypto_pic.a(tasn_prn.pico)
 .rodata.str1.1
                0x00186460       0xd4 libcrypto_pic.a(tasn_prn.pico)
                                0x112 (size before relaxing)
 .rodata.str1.1
                0x00186534       0x7c libcrypto_pic.a(x_crl.pico)
                                 0xcc (size before relaxing)
 .rodata.str1.1
                0x001865b0       0x41 libcrypto_pic.a(a_verify.pico)
 .rodata.str1.1
                0x001865f1       0x3f libcrypto_pic.a(a_enum.pico)
 .rodata.str1.1
                0x00186630       0x43 libcrypto_pic.a(o_names.pico)
 .rodata.str1.1
                0x00186673      0x11c libcrypto_pic.a(tasn_typ.pico)
                                0x1a5 (size before relaxing)
 .rodata.str1.1
                0x0018678f      0x1d1 libcrypto_pic.a(t_x509.pico)
                                0x277 (size before relaxing)
 .rodata        0x00186960      0x168 libcrypto_pic.a(obj_xref.pico)
 .rodata.str1.1
                0x00186ac8       0x44 libcrypto_pic.a(obj_xref.pico)
 .rodata.str1.1
                0x00186b0c       0x11 libcrypto_pic.a(err_prn.pico)
                                 0x15 (size before relaxing)
 .rodata.str1.1
                0x00186b1d       0x42 libcrypto_pic.a(ameth_lib.pico)
 .rodata.str1.1
                0x00186b5f       0x77 libcrypto_pic.a(t_x509a.pico)
                                 0x7f (size before relaxing)
 .rodata        0x00186bd6       0x27 libcrypto_pic.a(sha1dgst.pico)
                0x00186bd6                SHA1_version
 .rodata.str1.1
                0x00186bfd       0xe8 libcrypto_pic.a(dh_ameth.pico)
                                 0xf9 (size before relaxing)
 .rodata.str1.1
                0x00000000       0xe8 libcrypto_pic.a(dh_asn1.pico)
                                  0xe (size before relaxing)
 .rodata.str1.1
                0x00186ce5       0x14 libcrypto_pic.a(cm_ameth.pico)
                                 0x19 (size before relaxing)
 .rodata.str1.1
                0x00186cf9       0x3d libcrypto_pic.a(cmac.pico)
 .rodata.str1.1
                0x00186d36       0x1c libcrypto_pic.a(p8_pkey.pico)
                                 0x34 (size before relaxing)
 .rodata.str1.1
                0x00186d52       0x1a libcrypto_pic.a(t_pkey.pico)
                                 0x39 (size before relaxing)
 .rodata.str1.1
                0x00186d6c       0x45 libcrypto_pic.a(x_long.pico)
                                 0x4f (size before relaxing)
 .rodata.str1.1
                0x00186db1        0x7 libcrypto_pic.a(x_bignum.pico)
 .rodata.str1.1
                0x00186db8       0x26 libcrypto_pic.a(x_attrib.pico)
                                 0x2d (size before relaxing)
 .rodata.str1.1
                0x00186dde       0x34 libcrypto_pic.a(x_x509a.pico)
                                 0x4c (size before relaxing)
 *fill*         0x00186e12        0x2 
 .rodata        0x00186e14       0x18 libcrypto_pic.a(x_x509.pico)
 .rodata.str1.1
                0x00186e2c       0x1f libcrypto_pic.a(x_x509.pico)
                                 0x7c (size before relaxing)
 .rodata.str1.1
                0x00186e4b       0x79 libcrypto_pic.a(x_name.pico)
                                 0x95 (size before relaxing)
 .rodata.str1.1
                0x00186ec4       0x4d libcrypto_pic.a(x_pubkey.pico)
                                 0x5e (size before relaxing)
 .rodata.str1.1
                0x00186f11        0x9 libcrypto_pic.a(x_val.pico)
                                 0x1c (size before relaxing)
 .rodata.str1.1
                0x00186f1a       0x17 libcrypto_pic.a(x_algor.pico)
                                 0x36 (size before relaxing)
 *fill*         0x00186f31        0x3 
 .rodata        0x00186f34       0xb3 libcrypto_pic.a(a_strex.pico)
 .rodata.str1.1
                0x00186fe7       0x66 libcrypto_pic.a(a_strex.pico)
                                 0x8b (size before relaxing)
 *fill*         0x0018704d        0x3 
 .rodata        0x00187050       0x28 libcrypto_pic.a(a_mbstr.pico)
 .rodata.str1.1
                0x00187078       0x5e libcrypto_pic.a(a_mbstr.pico)
                                 0x62 (size before relaxing)
 .rodata.str1.1
                0x001870d6       0x45 libcrypto_pic.a(a_time.pico)
                                 0x4f (size before relaxing)
 *fill*         0x0018711b        0x1 
 .rodata        0x0018711c       0x48 libcrypto_pic.a(a_gentm.pico)
 .rodata.str1.1
                0x00187164       0x5a libcrypto_pic.a(a_gentm.pico)
 *fill*         0x001871be        0x2 
 .rodata        0x001871c0       0x40 libcrypto_pic.a(a_utctm.pico)
 .rodata.str1.1
                0x00187200       0x5a libcrypto_pic.a(a_utctm.pico)
 .rodata.str1.1
                0x0018725a      0x366 libcrypto_pic.a(v3_asid.pico)
                                0x3a4 (size before relaxing)
 .rodata.str1.1
                0x00000000      0x366 libcrypto_pic.a(v3_akeya.pico)
                                 0x24 (size before relaxing)
 .rodata        0x001875c0       0x35 libcrypto_pic.a(v3_addr.pico)
 .rodata.str1.1
                0x001875f5      0x224 libcrypto_pic.a(v3_addr.pico)
                                0x2f0 (size before relaxing)
 .rodata.str1.1
                0x00187819       0x44 libcrypto_pic.a(pcy_cache.pico)
 .rodata.str1.1
                0x0018785d       0x40 libcrypto_pic.a(x509_v3.pico)
 .rodata.str1.1
                0x0018789d       0x4e libcrypto_pic.a(x509_obj.pico)
                                 0x5f (size before relaxing)
 *fill*         0x001878eb        0x1 
 .rodata        0x001878ec       0x28 libcrypto_pic.a(evp_lib.pico)
 .rodata.str1.1
                0x00187914       0x65 libcrypto_pic.a(evp_lib.pico)
 .rodata.str1.1
                0x00187979       0x3d libcrypto_pic.a(ec_key.pico)
 .rodata        0x001879b6       0x26 libcrypto_pic.a(dsa_lib.pico)
                0x001879b6                DSA_version
 .rodata.str1.1
                0x001879dc       0x3f libcrypto_pic.a(dsa_lib.pico)
 .rodata        0x00187a1b       0x31 libcrypto_pic.a(dh_lib.pico)
                0x00187a1b                DH_version
 .rodata.str1.1
                0x00187a4c       0x3d libcrypto_pic.a(dh_lib.pico)
 .rodata.str1.1
                0x00187a89       0x4f libcrypto_pic.a(dh_key.pico)
 .rodata        0x00187ad8       0x30 libcrypto_pic.a(bss_file.pico)
 .rodata.str1.1
                0x00187b08       0x62 libcrypto_pic.a(bss_file.pico)
                                 0x68 (size before relaxing)
 .rodata.str1.1
                0x00187b6a       0x41 libcrypto_pic.a(evp_asn1.pico)
 .rodata.str1.1
                0x00187bab       0x40 libcrypto_pic.a(a_bytes.pico)
 *fill*         0x00187beb        0x1 
 .rodata        0x00187bec       0x7e libcrypto_pic.a(asn1_par.pico)
 .rodata.str1.1
                0x00187c6a      0x173 libcrypto_pic.a(asn1_par.pico)
                                0x244 (size before relaxing)
 .rodata.str1.1
                0x00187ddd       0x1f libcrypto_pic.a(x_exten.pico)
                                 0x3f (size before relaxing)
 .rodata.str1.1
                0x00187dfc       0x3f libcrypto_pic.a(a_bool.pico)
 .rodata.str1.1
                0x00187e3b       0x3e libcrypto_pic.a(a_dup.pico)
 .rodata.str1.1
                0x00187e79       0x9d libcrypto_pic.a(v3_pcons.pico)
                                 0xc8 (size before relaxing)
 .rodata.str1.1
                0x00187f16       0x43 libcrypto_pic.a(pcy_data.pico)
 .rodata.str1.1
                0x00187f59       0x43 libcrypto_pic.a(eng_init.pico)
 .rodata.str1.1
                0x00187f9c       0x42 libcrypto_pic.a(eng_lib.pico)
 .rodata.str1.1
                0x00187fde      0x6cc libcrypto_pic.a(ec_curve.pico)
                                0x7b1 (size before relaxing)
 *fill*         0x001886aa        0x2 
 .rodata        0x001886ac     0x2fc0 libcrypto_pic.a(ec_curve.pico)
 .rodata.str1.1
                0x0018b66c       0x3f libcrypto_pic.a(ecp_nist.pico)
 .rodata.str1.1
                0x0018b6ab       0x3f libcrypto_pic.a(ecp_mont.pico)
 .rodata.str1.1
                0x0018b6ea       0x3f libcrypto_pic.a(ecp_smpl.pico)
 .rodata.str1.1
                0x0018b729       0x40 libcrypto_pic.a(dsa_ossl.pico)
                                 0x53 (size before relaxing)
 .rodata.str1.1
                0x0018b769       0x40 libcrypto_pic.a(dsa_sign.pico)
 *fill*         0x0018b7a9        0x3 
 .rodata        0x0018b7ac      0x3e0 libcrypto_pic.a(bn_nist.pico)
 .rodata.str1.1
                0x0018bb8c       0x3e libcrypto_pic.a(bn_exp2.pico)
 .rodata        0x0018bbca     0x1000 libcrypto_pic.a(bn_prime.pico)
 .rodata.str1.1
                0x0018cbca       0x3d libcrypto_pic.a(bn_exp.pico)
 .rodata.str1.1
                0x0018cc07       0x20 libcrypto_pic.a(b_dump.pico)
                                 0x33 (size before relaxing)
 *fill*         0x0018cc27        0x1 
 .rodata        0x0018cc28       0xc4 libcrypto_pic.a(tasn_dec.pico)
 .rodata.str1.1
                0x0018ccec       0x50 libcrypto_pic.a(tasn_dec.pico)
                                 0x56 (size before relaxing)
 .rodata        0x0018cd3c       0x44 libcrypto_pic.a(tasn_enc.pico)
 .rodata.str1.1
                0x0018cd80       0x41 libcrypto_pic.a(tasn_enc.pico)
 *fill*         0x0018cdc1        0x3 
 .rodata        0x0018cdc4       0x38 libcrypto_pic.a(tasn_new.pico)
 .rodata.str1.1
                0x0018cdfc       0x41 libcrypto_pic.a(tasn_new.pico)
 .rodata.str1.1
                0x0018ce3d       0x41 libcrypto_pic.a(a_bitstr.pico)
 .rodata.str1.1
                0x0018ce7e       0x3f libcrypto_pic.a(ec2_smpl.pico)
 .rodata.str1.1
                0x0018cebd       0x41 libcrypto_pic.a(buffer.pico)
 .rodata.str1.1
                0x0018cefe       0x3e libcrypto_pic.a(bn_mont.pico)
 .rodata.str1.1
                0x0018cf3c       0x3e libcrypto_pic.a(bn_recp.pico)
 .rodata.str1.1
                0x0018cf7a       0x3d libcrypto_pic.a(bn_gcd.pico)
 .rodata.str1.1
                0x0018cfb7       0x3d libcrypto_pic.a(bn_mod.pico)
 .rodata.str1.1
                0x0018cff4       0x3d libcrypto_pic.a(bn_div.pico)
 *fill*         0x0018d031        0x3 
 .rodata        0x0018d034       0x1c libcrypto_pic.a(tasn_fre.pico)
 .rodata.str1.1
                0x0018d050       0x4b libcrypto_pic.a(a_object.pico)
                                 0x50 (size before relaxing)
 .rodata.str1.1
                0x0018d09b       0x3f libcrypto_pic.a(ec2_mult.pico)
 .rodata        0x0018d0da       0x25 libcrypto_pic.a(ec_lib.pico)
                0x0018d0da                EC_version
 .rodata.str1.1
                0x0018d0ff       0x3d libcrypto_pic.a(ec_lib.pico)
 .rodata.str1.1
                0x0018d13c       0x3e libcrypto_pic.a(bn_gf2m.pico)
 *fill*         0x0018d17a        0x2 
 .rodata        0x0018d17c       0x40 libcrypto_pic.a(bn_gf2m.pico)
 .rodata        0x0018d1bc       0x6c libcrypto_pic.a(bn_mul.pico)
 .rodata.str1.1
                0x0018d228       0x3f libcrypto_pic.a(bn_shift.pico)
 .rodata.str1.1
                0x0018d267       0x3e libcrypto_pic.a(bn_rand.pico)
 .rodata.str1.1
                0x0018d2a5       0x3d libcrypto_pic.a(bn_ctx.pico)
 .rodata.str1.1
                0x0018d2e2       0x3d libcrypto_pic.a(bn_add.pico)
 .rodata.str1.1
                0x0018d31f       0x41 libcrypto_pic.a(tasn_utl.pico)
 .rodata.str1.1
                0x0018d360       0x3e libcrypto_pic.a(a_int.pico)
 *fill*         0x0018d39e        0x2 
 .rodata        0x0018d3a0      0x16c libcrypto_pic.a(bn_lib.pico)
                0x0018d3d8                BN_version
 .rodata.str1.1
                0x0018d50c       0x3d libcrypto_pic.a(bn_lib.pico)
 .rodata        0x0018d549       0x28 libcrypto_pic.a(asn1_lib.pico)
                0x0018d549                ASN1_version
 .rodata.str1.1
                0x0018d571       0x53 libcrypto_pic.a(asn1_lib.pico)
                                 0x5a (size before relaxing)
 .rodata.cst4   0x0018d5c4        0x8 libcrypto_pic.a(b_print.pico)
 .rodata        0x0018d5cc       0xa4 libcrypto_pic.a(b_print.pico)
 .rodata.str1.1
                0x0018d670       0x5f libcrypto_pic.a(b_print.pico)
                                 0x81 (size before relaxing)
 .rodata.str1.1
                0x0018d6cf       0x3f libcrypto_pic.a(bio_lib.pico)
                                 0x41 (size before relaxing)
 .rodata.str1.1
                0x0018d70e       0x3b libcrypto_pic.a(ex_data.pico)
 .rodata.str1.1
                0x0018d749      0x17a libcrypto_pic.a(cryptlib.pico)
                                0x1e3 (size before relaxing)
 .rodata.str1.1
                0x0018d8c3       0x42 libcrypto_pic.a(buf_str.pico)
 .rodata.str1.1
                0x0018d905       0x37 libcrypto_pic.a(mem.pico)

.rodata1
 *(.rodata1)

.eh_frame_hdr   0x0018d93c     0x9aac
 *(.eh_frame_hdr)
 .eh_frame_hdr  0x0018d93c     0x9aac libcrypto_pic.a(rc5_enc_dummy.pico)

.eh_frame       0x001973e8    0x24914
 *(.eh_frame)
 .eh_frame      0x001973e8       0x3c /usr/lib/crti.o
                                 0x40 (size before relaxing)
 .eh_frame      0x00197424        0x0 /usr/lib/crtbeginS.o
 .eh_frame      0x00197424       0x6c libcrypto_pic.a(rc5_enc_dummy.pico)
 .eh_frame      0x00197490       0x1c libcrypto_pic.a(rc5_skey_dummy.pico)
                                 0x34 (size before relaxing)
 .eh_frame      0x001974ac       0x20 libcrypto_pic.a(mdc2_one.pico)
                                 0x38 (size before relaxing)
 .eh_frame      0x001974cc       0x20 libcrypto_pic.a(x509type.pico)
                                 0x38 (size before relaxing)
 .eh_frame      0x001974ec       0xdc libcrypto_pic.a(x509cset.pico)
                                 0xf4 (size before relaxing)
 .eh_frame      0x001975c8       0x78 libcrypto_pic.a(x509spki.pico)
                                 0x90 (size before relaxing)
 .eh_frame      0x00197640       0x20 libcrypto_pic.a(x509_r2x.pico)
                                 0x38 (size before relaxing)
 .eh_frame      0x00197660       0x40 libcrypto_pic.a(x509_d2.pico)
                                 0x58 (size before relaxing)
 .eh_frame      0x001976a0      0x240 libcrypto_pic.a(ts_conf.pico)
                                0x258 (size before relaxing)
 .eh_frame      0x001978e0       0x9c libcrypto_pic.a(ts_verify_ctx.pico)
                                 0xb4 (size before relaxing)
 .eh_frame      0x0019797c       0xe0 libcrypto_pic.a(ts_rsp_verify.pico)
                                 0xf8 (size before relaxing)
 .eh_frame      0x00197a5c      0x2e0 libcrypto_pic.a(ts_rsp_sign.pico)
                                0x2f8 (size before relaxing)
 .eh_frame      0x00197d3c       0x60 libcrypto_pic.a(ts_rsp_print.pico)
                                 0x78 (size before relaxing)
 .eh_frame      0x00197d9c      0x47c libcrypto_pic.a(ts_rsp_utils.pico)
                                0x494 (size before relaxing)
 .eh_frame      0x00198218       0x20 libcrypto_pic.a(ts_req_print.pico)
                                 0x38 (size before relaxing)
 .eh_frame      0x00198238      0x388 libcrypto_pic.a(str_meth.pico)
                                0x3a0 (size before relaxing)
 .eh_frame      0x001985c0      0x1b8 libcrypto_pic.a(str_mem.pico)
                                0x1d0 (size before relaxing)
 .eh_frame      0x00198778      0x994 libcrypto_pic.a(str_lib.pico)
                                0x9ac (size before relaxing)
 .eh_frame      0x0019910c       0x1c libcrypto_pic.a(str_err.pico)
                                 0x34 (size before relaxing)
 .eh_frame      0x00199128      0x160 libcrypto_pic.a(srp_vfy.pico)
                                0x178 (size before relaxing)
 .eh_frame      0x00199288      0x15c libcrypto_pic.a(srp_lib.pico)
                                0x174 (size before relaxing)
 .eh_frame      0x001993e4       0x40 libcrypto_pic.a(libc-sha256.pico)
                                 0x58 (size before relaxing)
 .eh_frame      0x00199424       0x40 libcrypto_pic.a(libc-sha512.pico)
                                 0x58 (size before relaxing)
 .eh_frame      0x00199464       0x20 libcrypto_pic.a(sha1_one.pico)
                                 0x38 (size before relaxing)
 .eh_frame      0x00199484       0x20 libcrypto_pic.a(sha_one.pico)
                                 0x38 (size before relaxing)
 .eh_frame      0x001994a4       0x40 libcrypto_pic.a(rsa_prn.pico)
                                 0x58 (size before relaxing)
 .eh_frame      0x001994e4       0x20 libcrypto_pic.a(rsa_depr.pico)
                                 0x38 (size before relaxing)
 .eh_frame      0x00199504       0xc4 libcrypto_pic.a(rsa_null.pico)
                                 0xdc (size before relaxing)
 .eh_frame      0x001995c8       0x20 libcrypto_pic.a(rsa_chk.pico)
                                 0x38 (size before relaxing)
 .eh_frame      0x001995e8       0x20 libcrypto_pic.a(rmd_one.pico)
                                 0x38 (size before relaxing)
 .eh_frame      0x00199608       0x60 libcrypto_pic.a(randfile.pico)
                                 0x78 (size before relaxing)
 .eh_frame      0x00199668      0x160 libcrypto_pic.a(pqueue.pico)
                                0x178 (size before relaxing)
 .eh_frame      0x001997c8       0x7c libcrypto_pic.a(pk7_mime.pico)
                                 0x94 (size before relaxing)
 .eh_frame      0x00199844       0xe0 libcrypto_pic.a(pk7_smime.pico)
                                 0xf8 (size before relaxing)
 .eh_frame      0x00199924       0x20 libcrypto_pic.a(p12_npas.pico)
                                 0x38 (size before relaxing)
 .eh_frame      0x00199944       0x40 libcrypto_pic.a(p12_kiss.pico)
                                 0x58 (size before relaxing)
 .eh_frame      0x00199984       0xa0 libcrypto_pic.a(p12_crt.pico)
                                 0xb8 (size before relaxing)
 .eh_frame      0x00199a24       0xc8 libcrypto_pic.a(p12_attr.pico)
                                 0xe0 (size before relaxing)
 .eh_frame      0x00199aec      0x1d0 libcrypto_pic.a(pvkfmt.pico)
                                0x1e8 (size before relaxing)
 .eh_frame      0x00199cbc       0x60 libcrypto_pic.a(pem_seal.pico)
                                 0x78 (size before relaxing)
 .eh_frame      0x00199d1c       0x58 libcrypto_pic.a(pem_sign.pico)
                                 0x70 (size before relaxing)
 .eh_frame      0x00199d74       0x80 libcrypto_pic.a(ocsp_vfy.pico)
                                 0x98 (size before relaxing)
 .eh_frame      0x00199df4       0xb4 libcrypto_pic.a(ocsp_prn.pico)
                                 0xcc (size before relaxing)
 .eh_frame      0x00199ea8      0x10c libcrypto_pic.a(ocsp_srv.pico)
                                0x124 (size before relaxing)
 .eh_frame      0x00199fb4      0x174 libcrypto_pic.a(ocsp_cl.pico)
                                0x18c (size before relaxing)
 .eh_frame      0x0019a128       0xbc libcrypto_pic.a(ocsp_lib.pico)
                                 0xd4 (size before relaxing)
 .eh_frame      0x0019a1e4       0xc0 libcrypto_pic.a(ocsp_ht.pico)
                                 0xd8 (size before relaxing)
 .eh_frame      0x0019a2a4      0x528 libcrypto_pic.a(ocsp_ext.pico)
                                0x540 (size before relaxing)
 .eh_frame      0x0019a7cc       0x20 libcrypto_pic.a(md5_one.pico)
                                 0x38 (size before relaxing)
 .eh_frame      0x0019a7ec       0x20 libcrypto_pic.a(md4_one.pico)
                                 0x38 (size before relaxing)
 .eh_frame      0x0019a80c       0x20 libcrypto_pic.a(md2_one.pico)
                                 0x38 (size before relaxing)
 .eh_frame      0x0019a82c       0x20 libcrypto_pic.a(cmll_ctr.pico)
                                 0x38 (size before relaxing)
 .eh_frame      0x0019a84c      0x100 libcrypto_pic.a(cts128.pico)
                                0x118 (size before relaxing)
 .eh_frame      0x0019a94c       0xc0 libcrypto_pic.a(lh_stats.pico)
                                 0xd8 (size before relaxing)
 .eh_frame      0x0019aa0c      0x4fc libcrypto_pic.a(krb5_asn.pico)
                                0x514 (size before relaxing)
 .eh_frame      0x0019af08       0xf8 libcrypto_pic.a(bio_ok.pico)
                                0x110 (size before relaxing)
 .eh_frame      0x0019b000       0x54 libcrypto_pic.a(e_null.pico)
                                 0x6c (size before relaxing)
 .eh_frame      0x0019b054       0x40 libcrypto_pic.a(p_seal.pico)
                                 0x58 (size before relaxing)
 .eh_frame      0x0019b094       0x40 libcrypto_pic.a(p_open.pico)
                                 0x58 (size before relaxing)
 .eh_frame      0x0019b0d4       0x70 libcrypto_pic.a(m_md2.pico)
                                 0x88 (size before relaxing)
 .eh_frame      0x0019b144       0x70 libcrypto_pic.a(m_null.pico)
                                 0x88 (size before relaxing)
 .eh_frame      0x0019b1b4       0x1c libcrypto_pic.a(evp_acnf.pico)
                                 0x34 (size before relaxing)
 .eh_frame      0x0019b1d0       0x1c libcrypto_pic.a(err_all.pico)
                                 0x34 (size before relaxing)
 .eh_frame      0x0019b1ec       0xac libcrypto_pic.a(tb_store.pico)
                                 0xc4 (size before relaxing)
 .eh_frame      0x0019b298       0x1c libcrypto_pic.a(eng_cryptodev.pico)
                                 0x34 (size before relaxing)
 .eh_frame      0x0019b2b4      0x10c libcrypto_pic.a(eng_openssl.pico)
                                0x124 (size before relaxing)
 .eh_frame      0x0019b3c0       0x1c libcrypto_pic.a(eng_err.pico)
                                 0x34 (size before relaxing)
 .eh_frame      0x0019b3dc       0x1c libcrypto_pic.a(ecs_err.pico)
                                 0x34 (size before relaxing)
 .eh_frame      0x0019b3f8       0x1c libcrypto_pic.a(ech_err.pico)
                                 0x34 (size before relaxing)
 .eh_frame      0x0019b414       0x20 libcrypto_pic.a(ec_check.pico)
                                 0x38 (size before relaxing)
 .eh_frame      0x0019b434       0x1c libcrypto_pic.a(ec_err.pico)
                                 0x34 (size before relaxing)
 .eh_frame      0x0019b450       0x1c libcrypto_pic.a(dso_vms.pico)
                                 0x34 (size before relaxing)
 .eh_frame      0x0019b46c       0x1c libcrypto_pic.a(dso_win32.pico)
                                 0x34 (size before relaxing)
 .eh_frame      0x0019b488       0x1c libcrypto_pic.a(dso_null.pico)
                                 0x34 (size before relaxing)
 .eh_frame      0x0019b4a4       0x1c libcrypto_pic.a(dso_err.pico)
                                 0x34 (size before relaxing)
 .eh_frame      0x0019b4c0       0x1c libcrypto_pic.a(dso_dl.pico)
                                 0x34 (size before relaxing)
 .eh_frame      0x0019b4dc       0x80 libcrypto_pic.a(dsa_prn.pico)
                                 0x98 (size before relaxing)
 .eh_frame      0x0019b55c       0x20 libcrypto_pic.a(dsa_depr.pico)
                                 0x38 (size before relaxing)
 .eh_frame      0x0019b57c       0x1c libcrypto_pic.a(dsa_err.pico)
                                 0x34 (size before relaxing)
 .eh_frame      0x0019b598       0x20 libcrypto_pic.a(dh_prn.pico)
                                 0x38 (size before relaxing)
 .eh_frame      0x0019b5b8       0x20 libcrypto_pic.a(dh_depr.pico)
                                 0x38 (size before relaxing)
 .eh_frame      0x0019b5d8       0x1c libcrypto_pic.a(dh_err.pico)
                                 0x34 (size before relaxing)
 .eh_frame      0x0019b5f4       0x40 libcrypto_pic.a(read2pwd.pico)
                                 0x58 (size before relaxing)
 .eh_frame      0x0019b634       0x20 libcrypto_pic.a(ede_cbcm_enc.pico)
                                 0x38 (size before relaxing)
 .eh_frame      0x0019b654       0x40 libcrypto_pic.a(str2key.pico)
                                 0x58 (size before relaxing)
 .eh_frame      0x0019b694       0x20 libcrypto_pic.a(rpc_enc.pico)
                                 0x38 (size before relaxing)
 .eh_frame      0x0019b6b4       0x20 libcrypto_pic.a(rand_key.pico)
                                 0x38 (size before relaxing)
 .eh_frame      0x0019b6d4       0x20 libcrypto_pic.a(qud_cksm.pico)
                                 0x38 (size before relaxing)
 .eh_frame      0x0019b6f4       0x20 libcrypto_pic.a(ofb_enc.pico)
                                 0x38 (size before relaxing)
 .eh_frame      0x0019b714       0x3c libcrypto_pic.a(fcrypt.pico)
                                 0x54 (size before relaxing)
 .eh_frame      0x0019b750       0x20 libcrypto_pic.a(enc_writ.pico)
                                 0x38 (size before relaxing)
 .eh_frame      0x0019b770       0x20 libcrypto_pic.a(enc_read.pico)
                                 0x38 (size before relaxing)
 .eh_frame      0x0019b790       0x20 libcrypto_pic.a(cbc_enc.pico)
                                 0x38 (size before relaxing)
 .eh_frame      0x0019b7b0       0x20 libcrypto_pic.a(cbc_cksm.pico)
                                 0x38 (size before relaxing)
 .eh_frame      0x0019b7d0       0x38 libcrypto_pic.a(o_fips.pico)
                                 0x50 (size before relaxing)
 .eh_frame      0x0019b808       0x40 libcrypto_pic.a(o_dir.pico)
                                 0x58 (size before relaxing)
 .eh_frame      0x0019b848       0x58 libcrypto_pic.a(o_str.pico)
                                 0x70 (size before relaxing)
 .eh_frame      0x0019b8a0       0x20 libcrypto_pic.a(uid.pico)
                                 0x38 (size before relaxing)
 .eh_frame      0x0019b8c0       0x1c libcrypto_pic.a(cpt_err.pico)
                                 0x34 (size before relaxing)
 .eh_frame      0x0019b8dc       0x38 libcrypto_pic.a(cversion.pico)
                                 0x50 (size before relaxing)
 .eh_frame      0x0019b914       0x3c libcrypto_pic.a(conf_sap.pico)
                                 0x54 (size before relaxing)
 .eh_frame      0x0019b950       0x1c libcrypto_pic.a(conf_mall.pico)
                                 0x34 (size before relaxing)
 .eh_frame      0x0019b96c       0x1c libcrypto_pic.a(conf_err.pico)
                                 0x34 (size before relaxing)
 .eh_frame      0x0019b988       0x38 libcrypto_pic.a(c_zlib.pico)
                                 0x50 (size before relaxing)
 .eh_frame      0x0019b9c0       0x5c libcrypto_pic.a(c_rle.pico)
                                 0x74 (size before relaxing)
 .eh_frame      0x0019ba1c       0x1c libcrypto_pic.a(comp_err.pico)
                                 0x34 (size before relaxing)
 .eh_frame      0x0019ba38       0x7c libcrypto_pic.a(comp_lib.pico)
                                 0x94 (size before relaxing)
 .eh_frame      0x0019bab4       0x1c libcrypto_pic.a(cms_err.pico)
                                 0x34 (size before relaxing)
 .eh_frame      0x0019bad0      0x258 libcrypto_pic.a(cms_smime.pico)
                                0x270 (size before relaxing)
 .eh_frame      0x0019bd28       0x1c libcrypto_pic.a(buf_err.pico)
                                 0x34 (size before relaxing)
 .eh_frame      0x0019bd44       0x80 libcrypto_pic.a(bn_x931p.pico)
                                 0x98 (size before relaxing)
 .eh_frame      0x0019bdc4       0xe0 libcrypto_pic.a(bn_const.pico)
                                 0xf8 (size before relaxing)
 .eh_frame      0x0019bea4       0x60 libcrypto_pic.a(bn_depr.pico)
                                 0x78 (size before relaxing)
 .eh_frame      0x0019bf04       0x40 libcrypto_pic.a(bn_mpi.pico)
                                 0x58 (size before relaxing)
 .eh_frame      0x0019bf44       0x1c libcrypto_pic.a(bn_err.pico)
                                 0x34 (size before relaxing)
 .eh_frame      0x0019bf60      0x118 libcrypto_pic.a(bss_dgram.pico)
                                0x130 (size before relaxing)
 .eh_frame      0x0019c078      0x1e4 libcrypto_pic.a(bss_bio.pico)
                                0x1fc (size before relaxing)
 .eh_frame      0x0019c25c       0xb4 libcrypto_pic.a(bss_log.pico)
                                 0xcc (size before relaxing)
 .eh_frame      0x0019c310      0x10c libcrypto_pic.a(bf_nbio.pico)
                                0x124 (size before relaxing)
 .eh_frame      0x0019c41c      0x11c libcrypto_pic.a(bss_acpt.pico)
                                0x134 (size before relaxing)
 .eh_frame      0x0019c538      0x108 libcrypto_pic.a(bf_null.pico)
                                0x120 (size before relaxing)
 .eh_frame      0x0019c640      0x174 libcrypto_pic.a(bss_conn.pico)
                                0x18c (size before relaxing)
 .eh_frame      0x0019c7b4      0x150 libcrypto_pic.a(bss_fd.pico)
                                0x168 (size before relaxing)
 .eh_frame      0x0019c904       0x1c libcrypto_pic.a(bio_err.pico)
                                 0x34 (size before relaxing)
 .eh_frame      0x0019c920       0x20 libcrypto_pic.a(bio_cb.pico)
                                 0x38 (size before relaxing)
 .eh_frame      0x0019c940       0x74 libcrypto_pic.a(x_nx509.pico)
                                 0x8c (size before relaxing)
 .eh_frame      0x0019c9b4       0x58 libcrypto_pic.a(asn_moid.pico)
                                 0x70 (size before relaxing)
 .eh_frame      0x0019ca0c       0x1c libcrypto_pic.a(asn1_err.pico)
                                 0x34 (size before relaxing)
 .eh_frame      0x0019ca28       0x40 libcrypto_pic.a(f_enum.pico)
                                 0x58 (size before relaxing)
 .eh_frame      0x0019ca68      0x164 libcrypto_pic.a(n_pkey.pico)
                                0x17c (size before relaxing)
 .eh_frame      0x0019cbcc       0x60 libcrypto_pic.a(t_bitst.pico)
                                 0x78 (size before relaxing)
 .eh_frame      0x0019cc2c       0x20 libcrypto_pic.a(t_spki.pico)
                                 0x38 (size before relaxing)
 .eh_frame      0x0019cc4c       0x40 libcrypto_pic.a(t_crl.pico)
                                 0x58 (size before relaxing)
 .eh_frame      0x0019cc8c       0x5c libcrypto_pic.a(t_req.pico)
                                 0x74 (size before relaxing)
 .eh_frame      0x0019cce8       0x1c libcrypto_pic.a(i2d_pu.pico)
                                 0x34 (size before relaxing)
 .eh_frame      0x0019cd04       0x20 libcrypto_pic.a(d2i_pu.pico)
                                 0x38 (size before relaxing)
 .eh_frame      0x0019cd24       0x1c libcrypto_pic.a(aes_ecb.pico)
                                 0x34 (size before relaxing)
 .eh_frame      0x0019cd40       0x40 libcrypto_pic.a(aes_ige.pico)
                                 0x58 (size before relaxing)
 .eh_frame      0x0019cd80       0x20 libcrypto_pic.a(aes_ctr.pico)
                                 0x38 (size before relaxing)
 .eh_frame      0x0019cda0       0x20 libcrypto_pic.a(aes_ofb.pico)
                                 0x38 (size before relaxing)
 .eh_frame      0x0019cdc0       0x60 libcrypto_pic.a(aes_cfb.pico)
                                 0x78 (size before relaxing)
 .eh_frame      0x0019ce20       0x1c libcrypto_pic.a(v3err.pico)
                                 0x34 (size before relaxing)
 .eh_frame      0x0019ce3c      0x114 libcrypto_pic.a(by_dir.pico)
                                0x12c (size before relaxing)
 .eh_frame      0x0019cf50       0x9c libcrypto_pic.a(by_file.pico)
                                 0xb4 (size before relaxing)
 .eh_frame      0x0019cfec       0x20 libcrypto_pic.a(x509_txt.pico)
                                 0x38 (size before relaxing)
 .eh_frame      0x0019d00c       0x1c libcrypto_pic.a(x509_err.pico)
                                 0x34 (size before relaxing)
 .eh_frame      0x0019d028       0xd4 libcrypto_pic.a(x509_set.pico)
                                 0xec (size before relaxing)
 .eh_frame      0x0019d0fc       0x40 libcrypto_pic.a(ui_util.pico)
                                 0x58 (size before relaxing)
 .eh_frame      0x0019d13c       0x1c libcrypto_pic.a(ui_err.pico)
                                 0x34 (size before relaxing)
 .eh_frame      0x0019d158       0xa0 libcrypto_pic.a(ts_lib.pico)
                                 0xb8 (size before relaxing)
 .eh_frame      0x0019d1f8      0x2b8 libcrypto_pic.a(ts_req_utils.pico)
                                0x2d0 (size before relaxing)
 .eh_frame      0x0019d4b0       0x1c libcrypto_pic.a(ts_err.pico)
                                 0x34 (size before relaxing)
 .eh_frame      0x0019d4cc       0xc0 libcrypto_pic.a(txt_db.pico)
                                 0xd8 (size before relaxing)
 .eh_frame      0x0019d58c       0x1c libcrypto_pic.a(rsa_err.pico)
                                 0x34 (size before relaxing)
 .eh_frame      0x0019d5a8       0x1c libcrypto_pic.a(rand_err.pico)
                                 0x34 (size before relaxing)
 .eh_frame      0x0019d5c4       0x1c libcrypto_pic.a(pkcs7err.pico)
                                 0x34 (size before relaxing)
 .eh_frame      0x0019d5e0       0x1c libcrypto_pic.a(pk12err.pico)
                                 0x34 (size before relaxing)
 .eh_frame      0x0019d5fc       0x80 libcrypto_pic.a(p12_mutl.pico)
                                 0x98 (size before relaxing)
 .eh_frame      0x0019d67c       0x20 libcrypto_pic.a(p12_init.pico)
                                 0x38 (size before relaxing)
 .eh_frame      0x0019d69c       0xf0 libcrypto_pic.a(pem_xaux.pico)
                                0x108 (size before relaxing)
 .eh_frame      0x0019d78c       0x1c libcrypto_pic.a(pem_err.pico)
                                 0x34 (size before relaxing)
 .eh_frame      0x0019d7a8       0x60 libcrypto_pic.a(pem_info.pico)
                                 0x78 (size before relaxing)
 .eh_frame      0x0019d808       0x1c libcrypto_pic.a(ocsp_err.pico)
                                 0x34 (size before relaxing)
 .eh_frame      0x0019d824       0x1c libcrypto_pic.a(obj_err.pico)
                                 0x34 (size before relaxing)
 .eh_frame      0x0019d840       0x98 libcrypto_pic.a(md2_dgst.pico)
                                 0xb0 (size before relaxing)
 .eh_frame      0x0019d8d8       0x1c libcrypto_pic.a(c_all.pico)
                                 0x34 (size before relaxing)
 .eh_frame      0x0019d8f4       0x1c libcrypto_pic.a(evp_err.pico)
                                 0x34 (size before relaxing)
 .eh_frame      0x0019d910       0x3c libcrypto_pic.a(evp_cnf.pico)
                                 0x54 (size before relaxing)
 .eh_frame      0x0019d94c       0x20 libcrypto_pic.a(p_dec.pico)
                                 0x38 (size before relaxing)
 .eh_frame      0x0019d96c       0x20 libcrypto_pic.a(p_enc.pico)
                                 0x38 (size before relaxing)
 .eh_frame      0x0019d98c       0x58 libcrypto_pic.a(eng_cnf.pico)
                                 0x70 (size before relaxing)
 .eh_frame      0x0019d9e4       0x1c libcrypto_pic.a(eng_all.pico)
                                 0x34 (size before relaxing)
 .eh_frame      0x0019da00       0xa0 libcrypto_pic.a(eng_fat.pico)
                                 0xb8 (size before relaxing)
 .eh_frame      0x0019daa0       0x20 libcrypto_pic.a(pcbc_enc.pico)
                                 0x38 (size before relaxing)
 .eh_frame      0x0019dac0      0x154 libcrypto_pic.a(cms_ess.pico)
                                0x16c (size before relaxing)
 .eh_frame      0x0019dc14      0x14c libcrypto_pic.a(b_sock.pico)
                                0x164 (size before relaxing)
 .eh_frame      0x0019dd60      0x130 libcrypto_pic.a(bss_sock.pico)
                                0x148 (size before relaxing)
 .eh_frame      0x0019de90       0x40 libcrypto_pic.a(x_info.pico)
                                 0x58 (size before relaxing)
 .eh_frame      0x0019ded0      0x710 libcrypto_pic.a(ts_asn1.pico)
                                0x728 (size before relaxing)
 .eh_frame      0x0019e5e0       0x78 libcrypto_pic.a(pem_x509.pico)
                                 0x90 (size before relaxing)
 .eh_frame      0x0019e658      0x758 libcrypto_pic.a(pem_all.pico)
                                0x770 (size before relaxing)
 .eh_frame      0x0019edb0       0x20 libcrypto_pic.a(c_alld.pico)
                                 0x38 (size before relaxing)
 .eh_frame      0x0019edd0       0x20 libcrypto_pic.a(c_allc.pico)
                                 0x38 (size before relaxing)
 .eh_frame      0x0019edf0       0x70 libcrypto_pic.a(m_ripemd.pico)
                                 0x88 (size before relaxing)
 .eh_frame      0x0019ee60       0x70 libcrypto_pic.a(m_mdc2.pico)
                                 0x88 (size before relaxing)
 .eh_frame      0x0019eed0       0x70 libcrypto_pic.a(m_dss1.pico)
                                 0x88 (size before relaxing)
 .eh_frame      0x0019ef40       0x70 libcrypto_pic.a(m_dss.pico)
                                 0x88 (size before relaxing)
 .eh_frame      0x0019efb0       0x70 libcrypto_pic.a(m_sha.pico)
                                 0x88 (size before relaxing)
 .eh_frame      0x0019f020       0x70 libcrypto_pic.a(m_md4.pico)
                                 0x88 (size before relaxing)
 .eh_frame      0x0019f090      0x12c libcrypto_pic.a(e_rc5.pico)
                                0x144 (size before relaxing)
 .eh_frame      0x0019f1bc      0x110 libcrypto_pic.a(e_cast.pico)
                                0x128 (size before relaxing)
 .eh_frame      0x0019f2cc      0x1a8 libcrypto_pic.a(e_rc2.pico)
                                0x1c0 (size before relaxing)
 .eh_frame      0x0019f474       0x5c libcrypto_pic.a(e_xcbc_d.pico)
                                 0x74 (size before relaxing)
 .eh_frame      0x0019f4d0      0x454 libcrypto_pic.a(e_camellia.pico)
                                0x46c (size before relaxing)
 .eh_frame      0x0019f924      0x628 libcrypto_pic.a(e_aes.pico)
                                0x640 (size before relaxing)
 .eh_frame      0x0019ff4c       0x78 libcrypto_pic.a(e_rc4.pico)
                                 0x90 (size before relaxing)
 .eh_frame      0x0019ffc4      0x270 libcrypto_pic.a(e_des3.pico)
                                0x288 (size before relaxing)
 .eh_frame      0x001a0234      0x110 libcrypto_pic.a(e_idea.pico)
                                0x128 (size before relaxing)
 .eh_frame      0x001a0344      0x110 libcrypto_pic.a(e_bf.pico)
                                0x128 (size before relaxing)
 .eh_frame      0x001a0454      0x1a4 libcrypto_pic.a(e_des.pico)
                                0x1bc (size before relaxing)
 .eh_frame      0x001a05f8       0xe4 libcrypto_pic.a(gost_eng.pico)
                                 0xfc (size before relaxing)
 .eh_frame      0x001a06dc      0x10c libcrypto_pic.a(e_seed.pico)
                                0x124 (size before relaxing)
 .eh_frame      0x001a07e8       0xd4 libcrypto_pic.a(e_padlock.pico)
                                 0xec (size before relaxing)
 .eh_frame      0x001a08bc      0x198 libcrypto_pic.a(e_ubsec.pico)
                                0x1b0 (size before relaxing)
 .eh_frame      0x001a0a54      0x278 libcrypto_pic.a(e_sureware.pico)
                                0x290 (size before relaxing)
 .eh_frame      0x001a0ccc      0x130 libcrypto_pic.a(e_nuron.pico)
                                0x148 (size before relaxing)
 .eh_frame      0x001a0dfc      0x194 libcrypto_pic.a(e_cswift.pico)
                                0x1ac (size before relaxing)
 .eh_frame      0x001a0f90      0x28c libcrypto_pic.a(e_chil.pico)
                                0x2a4 (size before relaxing)
 .eh_frame      0x001a121c      0x158 libcrypto_pic.a(e_atalla.pico)
                                0x170 (size before relaxing)
 .eh_frame      0x001a1374      0x1d8 libcrypto_pic.a(e_aep.pico)
                                0x1f0 (size before relaxing)
 .eh_frame      0x001a154c      0x1ac libcrypto_pic.a(e_4758cca.pico)
                                0x1c4 (size before relaxing)
 .eh_frame      0x001a16f8       0x1c libcrypto_pic.a(eng_rsax.pico)
                                 0x34 (size before relaxing)
 .eh_frame      0x001a1714       0x78 libcrypto_pic.a(eng_rdrand.pico)
                                 0x90 (size before relaxing)
 .eh_frame      0x001a178c       0xb4 libcrypto_pic.a(eng_dyn.pico)
                                 0xcc (size before relaxing)
 .eh_frame      0x001a1840      0x108 libcrypto_pic.a(eng_pkey.pico)
                                0x120 (size before relaxing)
 .eh_frame      0x001a1948       0x20 libcrypto_pic.a(ofb64ede.pico)
                                 0x38 (size before relaxing)
 .eh_frame      0x001a1968       0x40 libcrypto_pic.a(cfb64ede.pico)
                                 0x58 (size before relaxing)
 .eh_frame      0x001a19a8       0x20 libcrypto_pic.a(xcbc_enc.pico)
                                 0x38 (size before relaxing)
 .eh_frame      0x001a19c8       0x20 libcrypto_pic.a(ofb64enc.pico)
                                 0x38 (size before relaxing)
 .eh_frame      0x001a19e8       0x3c libcrypto_pic.a(ecb_enc.pico)
                                 0x54 (size before relaxing)
 .eh_frame      0x001a1a24       0x20 libcrypto_pic.a(ecb3_enc.pico)
                                 0x38 (size before relaxing)
 .eh_frame      0x001a1a44       0x20 libcrypto_pic.a(cfb_enc.pico)
                                 0x38 (size before relaxing)
 .eh_frame      0x001a1a64       0x20 libcrypto_pic.a(cfb64enc.pico)
                                 0x38 (size before relaxing)
 .eh_frame      0x001a1a84       0x20 libcrypto_pic.a(c_ofb64.pico)
                                 0x38 (size before relaxing)
 .eh_frame      0x001a1aa4       0x20 libcrypto_pic.a(c_cfb64.pico)
                                 0x38 (size before relaxing)
 .eh_frame      0x001a1ac4       0x20 libcrypto_pic.a(c_ecb.pico)
                                 0x38 (size before relaxing)
 .eh_frame      0x001a1ae4       0x60 libcrypto_pic.a(c_enc.pico)
                                 0x78 (size before relaxing)
 .eh_frame      0x001a1b44       0x20 libcrypto_pic.a(bf_ofb64.pico)
                                 0x38 (size before relaxing)
 .eh_frame      0x001a1b64       0x20 libcrypto_pic.a(bf_cfb64.pico)
                                 0x38 (size before relaxing)
 .eh_frame      0x001a1b84       0x3c libcrypto_pic.a(bf_ecb.pico)
                                 0x54 (size before relaxing)
 .eh_frame      0x001a1bc0       0x20 libcrypto_pic.a(bf_skey.pico)
                                 0x38 (size before relaxing)
 .eh_frame      0x001a1be0       0x7c libcrypto_pic.a(x_pkey.pico)
                                 0x94 (size before relaxing)
 .eh_frame      0x001a1c5c       0x94 libcrypto_pic.a(nsseq.pico)
                                 0xac (size before relaxing)
 .eh_frame      0x001a1cf0       0x20 libcrypto_pic.a(rc5ofb64.pico)
                                 0x38 (size before relaxing)
 .eh_frame      0x001a1d10       0x20 libcrypto_pic.a(rc5cfb64.pico)
                                 0x38 (size before relaxing)
 .eh_frame      0x001a1d30       0x20 libcrypto_pic.a(rc5_ecb.pico)
                                 0x38 (size before relaxing)
 .eh_frame      0x001a1d50       0x20 libcrypto_pic.a(seed_ofb.pico)
                                 0x38 (size before relaxing)
 .eh_frame      0x001a1d70       0x20 libcrypto_pic.a(seed_cfb.pico)
                                 0x38 (size before relaxing)
 .eh_frame      0x001a1d90       0x20 libcrypto_pic.a(seed_cbc.pico)
                                 0x38 (size before relaxing)
 .eh_frame      0x001a1db0       0x1c libcrypto_pic.a(seed_ecb.pico)
                                 0x34 (size before relaxing)
 .eh_frame      0x001a1dcc       0x60 libcrypto_pic.a(seed.pico)
                                 0x78 (size before relaxing)
 .eh_frame      0x001a1e2c       0x7c libcrypto_pic.a(mdc2dgst.pico)
                                 0x94 (size before relaxing)
 .eh_frame      0x001a1ea8       0x40 libcrypto_pic.a(i_skey.pico)
                                 0x58 (size before relaxing)
 .eh_frame      0x001a1ee8       0x3c libcrypto_pic.a(i_ecb.pico)
                                 0x54 (size before relaxing)
 .eh_frame      0x001a1f24       0x20 libcrypto_pic.a(i_ofb64.pico)
                                 0x38 (size before relaxing)
 .eh_frame      0x001a1f44       0x20 libcrypto_pic.a(i_cfb64.pico)
                                 0x38 (size before relaxing)
 .eh_frame      0x001a1f64       0x98 libcrypto_pic.a(sha_dgst.pico)
                                 0xb0 (size before relaxing)
 .eh_frame      0x001a1ffc       0x98 libcrypto_pic.a(rmd_dgst.pico)
                                 0xb0 (size before relaxing)
 .eh_frame      0x001a2094       0x20 libcrypto_pic.a(rc2ofb64.pico)
                                 0x38 (size before relaxing)
 .eh_frame      0x001a20b4       0x20 libcrypto_pic.a(rc2cfb64.pico)
                                 0x38 (size before relaxing)
 .eh_frame      0x001a20d4       0x20 libcrypto_pic.a(rc2_skey.pico)
                                 0x38 (size before relaxing)
 .eh_frame      0x001a20f4       0x20 libcrypto_pic.a(rc2_ecb.pico)
                                 0x38 (size before relaxing)
 .eh_frame      0x001a2114       0xc0 libcrypto_pic.a(pem_pkey.pico)
                                 0xd8 (size before relaxing)
 .eh_frame      0x001a21d4      0x250 libcrypto_pic.a(pem_pk8.pico)
                                0x268 (size before relaxing)
 .eh_frame      0x001a2424       0x98 libcrypto_pic.a(md4_dgst.pico)
                                 0xb0 (size before relaxing)
 .eh_frame      0x001a24bc       0x1c libcrypto_pic.a(cmll_utl.pico)
                                 0x34 (size before relaxing)
 .eh_frame      0x001a24d8       0x20 libcrypto_pic.a(cmll_ofb.pico)
                                 0x38 (size before relaxing)
 .eh_frame      0x001a24f8       0x60 libcrypto_pic.a(cmll_cfb.pico)
                                 0x78 (size before relaxing)
 .eh_frame      0x001a2558       0x1c libcrypto_pic.a(cmll_ecb.pico)
                                 0x34 (size before relaxing)
 .eh_frame      0x001a2574       0x20 libcrypto_pic.a(cmll_cbc.pico)
                                 0x38 (size before relaxing)
 .eh_frame      0x001a2594       0x20 libcrypto_pic.a(xts128.pico)
                                 0x38 (size before relaxing)
 .eh_frame      0x001a25b4      0x100 libcrypto_pic.a(ccm128.pico)
                                0x118 (size before relaxing)
 .eh_frame      0x001a26b4      0x15c libcrypto_pic.a(gcm128.pico)
                                0x174 (size before relaxing)
 .eh_frame      0x001a2810       0x20 libcrypto_pic.a(ofb128.pico)
                                 0x38 (size before relaxing)
 .eh_frame      0x001a2830       0x60 libcrypto_pic.a(cfb128.pico)
                                 0x78 (size before relaxing)
 .eh_frame      0x001a2890       0x40 libcrypto_pic.a(ctr128.pico)
                                 0x58 (size before relaxing)
 .eh_frame      0x001a28d0       0x40 libcrypto_pic.a(cbc128.pico)
                                 0x58 (size before relaxing)
 .eh_frame      0x001a2910       0x7c libcrypto_pic.a(e_rc4_hmac_md5.pico)
                                 0x94 (size before relaxing)
 .eh_frame      0x001a298c       0x38 libcrypto_pic.a(e_aes_cbc_hmac_sha1.pico)
                                 0x50 (size before relaxing)
 .eh_frame      0x001a29c4       0x70 libcrypto_pic.a(m_wp.pico)
                                 0x88 (size before relaxing)
 .eh_frame      0x001a2a34       0x70 libcrypto_pic.a(m_ecdsa.pico)
                                 0x88 (size before relaxing)
 .eh_frame      0x001a2aa4      0x328 libcrypto_pic.a(gost_pmeth.pico)
                                0x340 (size before relaxing)
 .eh_frame      0x001a2dcc       0x94 libcrypto_pic.a(gost_md.pico)
                                 0xac (size before relaxing)
 .eh_frame      0x001a2e60       0x80 libcrypto_pic.a(gost94_keyx.pico)
                                 0x98 (size before relaxing)
 .eh_frame      0x001a2ee0       0x80 libcrypto_pic.a(gost2001_keyx.pico)
                                 0x98 (size before relaxing)
 .eh_frame      0x001a2f60       0xd8 libcrypto_pic.a(set_key.pico)
                                 0xf0 (size before relaxing)
 .eh_frame      0x001a3038       0x20 libcrypto_pic.a(c_skey.pico)
                                 0x38 (size before relaxing)
 .eh_frame      0x001a3058       0x9c libcrypto_pic.a(wp_dgst.pico)
                                 0xb4 (size before relaxing)
 .eh_frame      0x001a30f4       0x20 libcrypto_pic.a(wp_block.pico)
                                 0x38 (size before relaxing)
 .eh_frame      0x001a3114       0x40 libcrypto_pic.a(i_cbc.pico)
                                 0x58 (size before relaxing)
 .eh_frame      0x001a3154       0x1c libcrypto_pic.a(rc4_utl.pico)
                                 0x34 (size before relaxing)
 .eh_frame      0x001a3170       0x60 libcrypto_pic.a(rc2_cbc.pico)
                                 0x78 (size before relaxing)
 .eh_frame      0x001a31d0       0x60 libcrypto_pic.a(cmll_misc.pico)
                                 0x78 (size before relaxing)
 .eh_frame      0x001a3230       0xa0 libcrypto_pic.a(camellia.pico)
                                 0xb8 (size before relaxing)
 .eh_frame      0x001a32d0       0x60 libcrypto_pic.a(gost_keywrap.pico)
                                 0x78 (size before relaxing)
 .eh_frame      0x001a3330       0xd4 libcrypto_pic.a(gosthash.pico)
                                 0xec (size before relaxing)
 .eh_frame      0x001a3404      0x1ec libcrypto_pic.a(gost_crypt.pico)
                                0x204 (size before relaxing)
 .eh_frame      0x001a35f0      0x490 libcrypto_pic.a(gost_ameth.pico)
                                0x4a8 (size before relaxing)
 .eh_frame      0x001a3a80      0x1f8 libcrypto_pic.a(gost89.pico)
                                0x210 (size before relaxing)
 .eh_frame      0x001a3c78       0xa0 libcrypto_pic.a(gost2001.pico)
                                 0xb8 (size before relaxing)
 .eh_frame      0x001a3d18      0x140 libcrypto_pic.a(gost_sign.pico)
                                0x158 (size before relaxing)
 .eh_frame      0x001a3e58       0x78 libcrypto_pic.a(gost_ctl.pico)
                                 0x90 (size before relaxing)
 .eh_frame      0x001a3ed0      0x2b8 libcrypto_pic.a(gost_asn1.pico)
                                0x2d0 (size before relaxing)
 .eh_frame      0x001a4188       0x58 libcrypto_pic.a(e_gost_err.pico)
                                 0x70 (size before relaxing)
 .eh_frame      0x001a41e0      0x368 libcrypto_pic.a(v3_utl.pico)
                                0x380 (size before relaxing)
 .eh_frame      0x001a4548      0x1e8 libcrypto_pic.a(v3_sxnet.pico)
                                0x200 (size before relaxing)
 .eh_frame      0x001a4730       0x5c libcrypto_pic.a(v3_skey.pico)
                                 0x74 (size before relaxing)
 .eh_frame      0x001a478c      0x374 libcrypto_pic.a(v3_purp.pico)
                                0x38c (size before relaxing)
 .eh_frame      0x001a4b00       0x80 libcrypto_pic.a(v3_prn.pico)
                                 0x98 (size before relaxing)
 .eh_frame      0x001a4b80       0x94 libcrypto_pic.a(v3_pku.pico)
                                 0xac (size before relaxing)
 .eh_frame      0x001a4c14       0x60 libcrypto_pic.a(v3_pci.pico)
                                 0x78 (size before relaxing)
 .eh_frame      0x001a4c74       0xe8 libcrypto_pic.a(v3_pcia.pico)
                                0x100 (size before relaxing)
 .eh_frame      0x001a4d5c      0x150 libcrypto_pic.a(v3_ocsp.pico)
                                0x168 (size before relaxing)
 .eh_frame      0x001a4eac      0x6cc libcrypto_pic.a(ocsp_asn.pico)
                                0x6e4 (size before relaxing)
 .eh_frame      0x001a5578       0x40 libcrypto_pic.a(f_string.pico)
                                 0x58 (size before relaxing)
 .eh_frame      0x001a55b8      0x130 libcrypto_pic.a(v3_ncons.pico)
                                0x148 (size before relaxing)
 .eh_frame      0x001a56e8      0x188 libcrypto_pic.a(v3_lib.pico)
                                0x1a0 (size before relaxing)
 .eh_frame      0x001a5870       0x1c libcrypto_pic.a(v3_int.pico)
                                 0x34 (size before relaxing)
 .eh_frame      0x001a588c      0x144 libcrypto_pic.a(v3_info.pico)
                                0x15c (size before relaxing)
 .eh_frame      0x001a59d0       0x40 libcrypto_pic.a(v3_ia5.pico)
                                 0x58 (size before relaxing)
 .eh_frame      0x001a5a10       0xb4 libcrypto_pic.a(v3_extku.pico)
                                 0xcc (size before relaxing)
 .eh_frame      0x001a5ac4       0x20 libcrypto_pic.a(v3_enum.pico)
                                 0x38 (size before relaxing)
 .eh_frame      0x001a5ae4       0x40 libcrypto_pic.a(v3_bitst.pico)
                                 0x58 (size before relaxing)
 .eh_frame      0x001a5b24       0xb4 libcrypto_pic.a(v3_bcons.pico)
                                 0xcc (size before relaxing)
 .eh_frame      0x001a5bd8       0x40 libcrypto_pic.a(v3_akey.pico)
                                 0x58 (size before relaxing)
 .eh_frame      0x001a5c18      0x2a0 libcrypto_pic.a(v3_genn.pico)
                                0x2b8 (size before relaxing)
 .eh_frame      0x001a5eb8      0x34c libcrypto_pic.a(v3_crld.pico)
                                0x364 (size before relaxing)
 .eh_frame      0x001a6204      0x13c libcrypto_pic.a(v3_alt.pico)
                                0x154 (size before relaxing)
 .eh_frame      0x001a6340      0x2c4 libcrypto_pic.a(v3_cpols.pico)
                                0x2dc (size before relaxing)
 .eh_frame      0x001a6604      0x31c libcrypto_pic.a(v3_conf.pico)
                                0x334 (size before relaxing)
 .eh_frame      0x001a6920      0x214 libcrypto_pic.a(x509_req.pico)
                                0x22c (size before relaxing)
 .eh_frame      0x001a6b34       0xc0 libcrypto_pic.a(asn1_gen.pico)
                                 0xd8 (size before relaxing)
 .eh_frame      0x001a6bf4       0x54 libcrypto_pic.a(x509rset.pico)
                                 0x6c (size before relaxing)
 .eh_frame      0x001a6c48      0x214 libcrypto_pic.a(conf_mod.pico)
                                0x22c (size before relaxing)
 .eh_frame      0x001a6e5c       0xa8 libcrypto_pic.a(x509_def.pico)
                                 0xc0 (size before relaxing)
 .eh_frame      0x001a6f04       0x5c libcrypto_pic.a(pcy_tree.pico)
                                 0x74 (size before relaxing)
 .eh_frame      0x001a6f60       0xd4 libcrypto_pic.a(pcy_node.pico)
                                 0xec (size before relaxing)
 .eh_frame      0x001a7034      0x100 libcrypto_pic.a(pcy_lib.pico)
                                0x118 (size before relaxing)
 .eh_frame      0x001a7134       0x20 libcrypto_pic.a(pcy_map.pico)
                                 0x38 (size before relaxing)
 .eh_frame      0x001a7154       0x78 libcrypto_pic.a(v3_pmaps.pico)
                                 0x90 (size before relaxing)
 .eh_frame      0x001a71cc      0x8d0 libcrypto_pic.a(x_all.pico)
                                0x8e8 (size before relaxing)
 .eh_frame      0x001a7a9c       0x20 libcrypto_pic.a(i2d_pr.pico)
                                 0x38 (size before relaxing)
 .eh_frame      0x001a7abc       0x40 libcrypto_pic.a(d2i_pr.pico)
                                 0x58 (size before relaxing)
 .eh_frame      0x001a7afc       0xe8 libcrypto_pic.a(x_spki.pico)
                                0x100 (size before relaxing)
 .eh_frame      0x001a7be4      0x124 libcrypto_pic.a(x_req.pico)
                                0x13c (size before relaxing)
 .eh_frame      0x001a7d08       0x40 libcrypto_pic.a(a_digest.pico)
                                 0x58 (size before relaxing)
 .eh_frame      0x001a7d48       0x60 libcrypto_pic.a(a_sign.pico)
                                 0x78 (size before relaxing)
 .eh_frame      0x001a7da8      0x180 libcrypto_pic.a(evp_pkey.pico)
                                0x198 (size before relaxing)
 .eh_frame      0x001a7f28      0x3b8 libcrypto_pic.a(x509_lu.pico)
                                0x3d0 (size before relaxing)
 .eh_frame      0x001a82e0      0x234 libcrypto_pic.a(x509name.pico)
                                0x24c (size before relaxing)
 .eh_frame      0x001a8514       0x40 libcrypto_pic.a(a_print.pico)
                                 0x58 (size before relaxing)
 .eh_frame      0x001a8554      0x5ac libcrypto_pic.a(x509_vfy.pico)
                                0x5c4 (size before relaxing)
 .eh_frame      0x001a8b00      0x24c libcrypto_pic.a(x509_vpm.pico)
                                0x264 (size before relaxing)
 .eh_frame      0x001a8d4c      0x1f8 libcrypto_pic.a(x509_trs.pico)
                                0x210 (size before relaxing)
 .eh_frame      0x001a8f44      0x294 libcrypto_pic.a(x509_cmp.pico)
                                0x2ac (size before relaxing)
 .eh_frame      0x001a91d8       0xd4 libcrypto_pic.a(ui_openssl.pico)
                                 0xec (size before relaxing)
 .eh_frame      0x001a92ac      0x280 libcrypto_pic.a(stack.pico)
                                0x298 (size before relaxing)
 .eh_frame      0x001a952c      0x108 libcrypto_pic.a(rsa_crpt.pico)
                                0x120 (size before relaxing)
 .eh_frame      0x001a9634       0x80 libcrypto_pic.a(rsa_pss.pico)
                                 0x98 (size before relaxing)
 .eh_frame      0x001a96b4      0x15c libcrypto_pic.a(rsa_pmeth.pico)
                                0x174 (size before relaxing)
 .eh_frame      0x001a9810       0x40 libcrypto_pic.a(rsa_saos.pico)
                                 0x58 (size before relaxing)
 .eh_frame      0x001a9850       0x20 libcrypto_pic.a(rsa_gen.pico)
                                 0x38 (size before relaxing)
 .eh_frame      0x001a9870      0x224 libcrypto_pic.a(rsa_ameth.pico)
                                0x23c (size before relaxing)
 .eh_frame      0x001a9a94      0x144 libcrypto_pic.a(rsa_asn1.pico)
                                0x15c (size before relaxing)
 .eh_frame      0x001a9bd8       0x40 libcrypto_pic.a(f_int.pico)
                                 0x58 (size before relaxing)
 .eh_frame      0x001a9c18       0x60 libcrypto_pic.a(rsa_oaep.pico)
                                 0x78 (size before relaxing)
 .eh_frame      0x001a9c78       0x40 libcrypto_pic.a(rsa_ssl.pico)
                                 0x58 (size before relaxing)
 .eh_frame      0x001a9cb8       0x80 libcrypto_pic.a(rsa_pk1.pico)
                                 0x98 (size before relaxing)
 .eh_frame      0x001a9d38       0x60 libcrypto_pic.a(rsa_sign.pico)
                                 0x78 (size before relaxing)
 .eh_frame      0x001a9d98      0x164 libcrypto_pic.a(rsa_lib.pico)
                                0x17c (size before relaxing)
 .eh_frame      0x001a9efc      0x118 libcrypto_pic.a(rsa_eay.pico)
                                0x130 (size before relaxing)
 .eh_frame      0x001aa014       0xe4 libcrypto_pic.a(tb_rsa.pico)
                                 0xfc (size before relaxing)
 .eh_frame      0x001aa0f8      0x18c libcrypto_pic.a(bn_blind.pico)
                                0x1a4 (size before relaxing)
 .eh_frame      0x001aa284       0x5c libcrypto_pic.a(rsa_x931.pico)
                                 0x74 (size before relaxing)
 .eh_frame      0x001aa2e0       0x3c libcrypto_pic.a(rsa_none.pico)
                                 0x54 (size before relaxing)
 .eh_frame      0x001aa31c       0x20 libcrypto_pic.a(rand_unix.pico)
                                 0x38 (size before relaxing)
 .eh_frame      0x001aa33c       0x60 libcrypto_pic.a(rand_egd.pico)
                                 0x78 (size before relaxing)
 .eh_frame      0x001aa39c      0x120 libcrypto_pic.a(rand_lib.pico)
                                0x138 (size before relaxing)
 .eh_frame      0x001aa4bc       0xec libcrypto_pic.a(md_rand.pico)
                                0x104 (size before relaxing)
 .eh_frame      0x001aa5a8       0xe4 libcrypto_pic.a(tb_rand.pico)
                                 0xfc (size before relaxing)
 .eh_frame      0x001aa68c       0xb8 libcrypto_pic.a(pk7_attr.pico)
                                 0xd0 (size before relaxing)
 .eh_frame      0x001aa744      0x254 libcrypto_pic.a(pk7_doit.pico)
                                0x26c (size before relaxing)
 .eh_frame      0x001aa998      0x278 libcrypto_pic.a(pk7_lib.pico)
                                0x290 (size before relaxing)
 .eh_frame      0x001aac10      0x538 libcrypto_pic.a(pk7_asn1.pico)
                                0x550 (size before relaxing)
 .eh_frame      0x001ab148       0x20 libcrypto_pic.a(p12_p8e.pico)
                                 0x38 (size before relaxing)
 .eh_frame      0x001ab168       0x20 libcrypto_pic.a(p12_p8d.pico)
                                 0x38 (size before relaxing)
 .eh_frame      0x001ab188      0x128 libcrypto_pic.a(p12_utl.pico)
                                0x140 (size before relaxing)
 .eh_frame      0x001ab2b0      0x138 libcrypto_pic.a(p12_add.pico)
                                0x150 (size before relaxing)
 .eh_frame      0x001ab3e8       0x60 libcrypto_pic.a(p12_decr.pico)
                                 0x78 (size before relaxing)
 .eh_frame      0x001ab448      0x1d0 libcrypto_pic.a(p12_asn.pico)
                                0x1e8 (size before relaxing)
 .eh_frame      0x001ab618       0x74 libcrypto_pic.a(x_sig.pico)
                                 0x8c (size before relaxing)
 .eh_frame      0x001ab68c       0x40 libcrypto_pic.a(p12_key.pico)
                                 0x58 (size before relaxing)
 .eh_frame      0x001ab6cc       0x3c libcrypto_pic.a(p12_crpt.pico)
                                 0x54 (size before relaxing)
 .eh_frame      0x001ab708       0x20 libcrypto_pic.a(pem_oth.pico)
                                 0x38 (size before relaxing)
 .eh_frame      0x001ab728      0x1c0 libcrypto_pic.a(pem_lib.pico)
                                0x1d8 (size before relaxing)
 .eh_frame      0x001ab8e8       0x70 libcrypto_pic.a(m_md5.pico)
                                 0x88 (size before relaxing)
 .eh_frame      0x001ab958       0x98 libcrypto_pic.a(evp_key.pico)
                                 0xb0 (size before relaxing)
 .eh_frame      0x001ab9f0      0x60c libcrypto_pic.a(ui_lib.pico)
                                0x624 (size before relaxing)
 .eh_frame      0x001abffc       0x98 libcrypto_pic.a(md5_dgst.pico)
                                 0xb0 (size before relaxing)
 .eh_frame      0x001ac094       0x40 libcrypto_pic.a(obj_lib.pico)
                                 0x58 (size before relaxing)
 .eh_frame      0x001ac0d4      0x2a8 libcrypto_pic.a(obj_dat.pico)
                                0x2c0 (size before relaxing)
 .eh_frame      0x001ac37c      0x11c libcrypto_pic.a(lhash.pico)
                                0x134 (size before relaxing)
 .eh_frame      0x001ac498      0x11c libcrypto_pic.a(hm_pmeth.pico)
                                0x134 (size before relaxing)
 .eh_frame      0x001ac5b4       0x98 libcrypto_pic.a(hm_ameth.pico)
                                 0xb0 (size before relaxing)
 .eh_frame      0x001ac64c      0x11c libcrypto_pic.a(hmac.pico)
                                0x134 (size before relaxing)
 .eh_frame      0x001ac768      0x130 libcrypto_pic.a(pmeth_gn.pico)
                                0x148 (size before relaxing)
 .eh_frame      0x001ac898       0xa0 libcrypto_pic.a(m_sigver.pico)
                                 0xb8 (size before relaxing)
 .eh_frame      0x001ac938      0x19c libcrypto_pic.a(pmeth_fn.pico)
                                0x1b4 (size before relaxing)
 .eh_frame      0x001acad4      0x42c libcrypto_pic.a(pmeth_lib.pico)
                                0x444 (size before relaxing)
 .eh_frame      0x001acf00      0x13c libcrypto_pic.a(ec_pmeth.pico)
                                0x154 (size before relaxing)
 .eh_frame      0x001ad03c      0x118 libcrypto_pic.a(dsa_pmeth.pico)
                                0x130 (size before relaxing)
 .eh_frame      0x001ad154       0x20 libcrypto_pic.a(dsa_key.pico)
                                 0x38 (size before relaxing)
 .eh_frame      0x001ad174       0x40 libcrypto_pic.a(dsa_gen.pico)
                                 0x58 (size before relaxing)
 .eh_frame      0x001ad1b4       0xf0 libcrypto_pic.a(dh_pmeth.pico)
                                0x108 (size before relaxing)
 .eh_frame      0x001ad2a4       0x20 libcrypto_pic.a(dh_gen.pico)
                                 0x38 (size before relaxing)
 .eh_frame      0x001ad2c4      0x114 libcrypto_pic.a(cm_pmeth.pico)
                                0x12c (size before relaxing)
 .eh_frame      0x001ad3d8       0x3c libcrypto_pic.a(ecs_vrf.pico)
                                 0x54 (size before relaxing)
 .eh_frame      0x001ad414       0x1c libcrypto_pic.a(ech_key.pico)
                                 0x34 (size before relaxing)
 .eh_frame      0x001ad430      0x12c libcrypto_pic.a(ech_lib.pico)
                                0x144 (size before relaxing)
 .eh_frame      0x001ad55c       0xe4 libcrypto_pic.a(tb_ecdh.pico)
                                 0xfc (size before relaxing)
 .eh_frame      0x001ad640       0x3c libcrypto_pic.a(ech_ossl.pico)
                                 0x54 (size before relaxing)
 .eh_frame      0x001ad67c       0x80 libcrypto_pic.a(p5_crpt2.pico)
                                 0x98 (size before relaxing)
 .eh_frame      0x001ad6fc       0x3c libcrypto_pic.a(p5_crpt.pico)
                                 0x54 (size before relaxing)
 .eh_frame      0x001ad738       0xb4 libcrypto_pic.a(p5_pbe.pico)
                                 0xcc (size before relaxing)
 .eh_frame      0x001ad7ec       0xf0 libcrypto_pic.a(evp_pbe.pico)
                                0x108 (size before relaxing)
 .eh_frame      0x001ad8dc       0xf8 libcrypto_pic.a(bio_enc.pico)
                                0x110 (size before relaxing)
 .eh_frame      0x001ad9d4       0xf0 libcrypto_pic.a(bio_md.pico)
                                0x108 (size before relaxing)
 .eh_frame      0x001adac4      0x378 libcrypto_pic.a(p_lib.pico)
                                0x390 (size before relaxing)
 .eh_frame      0x001ade3c       0x20 libcrypto_pic.a(p_verify.pico)
                                 0x38 (size before relaxing)
 .eh_frame      0x001ade5c       0x20 libcrypto_pic.a(p_sign.pico)
                                 0x38 (size before relaxing)
 .eh_frame      0x001ade7c      0x2e0 libcrypto_pic.a(evp_enc.pico)
                                0x2f8 (size before relaxing)
 .eh_frame      0x001ae15c      0x108 libcrypto_pic.a(tb_cipher.pico)
                                0x120 (size before relaxing)
 .eh_frame      0x001ae264      0x168 libcrypto_pic.a(digest.pico)
                                0x180 (size before relaxing)
 .eh_frame      0x001ae3cc      0x108 libcrypto_pic.a(tb_digest.pico)
                                0x120 (size before relaxing)
 .eh_frame      0x001ae4d4      0x624 libcrypto_pic.a(err.pico)
                                0x63c (size before relaxing)
 .eh_frame      0x001aeaf8      0x128 libcrypto_pic.a(tb_pkmeth.pico)
                                0x140 (size before relaxing)
 .eh_frame      0x001aec20       0xe4 libcrypto_pic.a(tb_ecdsa.pico)
                                 0xfc (size before relaxing)
 .eh_frame      0x001aed04       0xe4 libcrypto_pic.a(tb_dh.pico)
                                 0xfc (size before relaxing)
 .eh_frame      0x001aede8       0xe4 libcrypto_pic.a(tb_dsa.pico)
                                 0xfc (size before relaxing)
 .eh_frame      0x001aeecc      0x188 libcrypto_pic.a(tb_asnmth.pico)
                                0x1a0 (size before relaxing)
 .eh_frame      0x001af054      0x16c libcrypto_pic.a(eng_table.pico)
                                0x184 (size before relaxing)
 .eh_frame      0x001af1c0      0x118 libcrypto_pic.a(eng_list.pico)
                                0x130 (size before relaxing)
 .eh_frame      0x001af2d8       0x7c libcrypto_pic.a(eng_ctrl.pico)
                                 0x94 (size before relaxing)
 .eh_frame      0x001af354       0x98 libcrypto_pic.a(ecs_sign.pico)
                                 0xb0 (size before relaxing)
 .eh_frame      0x001af3ec       0x7c libcrypto_pic.a(ecs_ossl.pico)
                                 0x94 (size before relaxing)
 .eh_frame      0x001af468       0x74 libcrypto_pic.a(ecs_asn1.pico)
                                 0x8c (size before relaxing)
 .eh_frame      0x001af4dc       0x60 libcrypto_pic.a(ecp_oct.pico)
                                 0x78 (size before relaxing)
 .eh_frame      0x001af53c       0x20 libcrypto_pic.a(bn_sqrt.pico)
                                 0x38 (size before relaxing)
 .eh_frame      0x001af55c       0x20 libcrypto_pic.a(bn_kron.pico)
                                 0x38 (size before relaxing)
 .eh_frame      0x001af57c       0x60 libcrypto_pic.a(ec2_oct.pico)
                                 0x78 (size before relaxing)
 .eh_frame      0x001af5dc      0x298 libcrypto_pic.a(ec_ameth.pico)
                                0x2b0 (size before relaxing)
 .eh_frame      0x001af874      0x14c libcrypto_pic.a(ecs_lib.pico)
                                0x164 (size before relaxing)
 .eh_frame      0x001af9c0       0xc0 libcrypto_pic.a(eck_prn.pico)
                                 0xd8 (size before relaxing)
 .eh_frame      0x001afa80       0x80 libcrypto_pic.a(ec_print.pico)
                                 0x98 (size before relaxing)
 .eh_frame      0x001afb00      0x32c libcrypto_pic.a(ec_asn1.pico)
                                0x344 (size before relaxing)
 .eh_frame      0x001afe2c       0xfc libcrypto_pic.a(bn_print.pico)
                                0x114 (size before relaxing)
 .eh_frame      0x001aff28       0x70 libcrypto_pic.a(ec_oct.pico)
                                 0x88 (size before relaxing)
 .eh_frame      0x001aff98       0xdc libcrypto_pic.a(ec_mult.pico)
                                 0xf4 (size before relaxing)
 .eh_frame      0x001b0074       0x1c libcrypto_pic.a(dso_openssl.pico)
                                 0x34 (size before relaxing)
 .eh_frame      0x001b0090      0x11c libcrypto_pic.a(dso_dlfcn.pico)
                                0x134 (size before relaxing)
 .eh_frame      0x001b01ac      0x264 libcrypto_pic.a(dso_lib.pico)
                                0x27c (size before relaxing)
 .eh_frame      0x001b0410      0x270 libcrypto_pic.a(dsa_ameth.pico)
                                0x288 (size before relaxing)
 .eh_frame      0x001b0680      0x18c libcrypto_pic.a(dsa_asn1.pico)
                                0x1a4 (size before relaxing)
 .eh_frame      0x001b080c       0x1c libcrypto_pic.a(dsa_vrf.pico)
                                 0x34 (size before relaxing)
 .eh_frame      0x001b0828      0x288 libcrypto_pic.a(mem_dbg.pico)
                                0x2a0 (size before relaxing)
 .eh_frame      0x001b0ab0      0x1a0 libcrypto_pic.a(conf_def.pico)
                                0x1b8 (size before relaxing)
 .eh_frame      0x001b0c50      0x2a0 libcrypto_pic.a(conf_lib.pico)
                                0x2b8 (size before relaxing)
 .eh_frame      0x001b0ef0      0x154 libcrypto_pic.a(conf_api.pico)
                                0x16c (size before relaxing)
 .eh_frame      0x001b1044       0x60 libcrypto_pic.a(cms_pwri.pico)
                                 0x78 (size before relaxing)
 .eh_frame      0x001b10a4      0x148 libcrypto_pic.a(p5_pbev2.pico)
                                0x160 (size before relaxing)
 .eh_frame      0x001b11ec       0xc0 libcrypto_pic.a(asn_pack.pico)
                                 0xd8 (size before relaxing)
 .eh_frame      0x001b12ac       0x60 libcrypto_pic.a(a_set.pico)
                                 0x78 (size before relaxing)
 .eh_frame      0x001b130c       0x7c libcrypto_pic.a(cms_enc.pico)
                                 0x94 (size before relaxing)
 .eh_frame      0x001b1388      0x1cc libcrypto_pic.a(cms_env.pico)
                                0x1e4 (size before relaxing)
 .eh_frame      0x001b1554       0x40 libcrypto_pic.a(aes_wrap.pico)
                                 0x58 (size before relaxing)
 .eh_frame      0x001b1594       0x54 libcrypto_pic.a(aes_misc.pico)
                                 0x6c (size before relaxing)
 .eh_frame      0x001b15e8       0x5c libcrypto_pic.a(cms_dd.pico)
                                 0x74 (size before relaxing)
 .eh_frame      0x001b1644      0x28c libcrypto_pic.a(cms_sd.pico)
                                0x2a4 (size before relaxing)
 .eh_frame      0x001b18d0      0x250 libcrypto_pic.a(cms_att.pico)
                                0x268 (size before relaxing)
 .eh_frame      0x001b1b20      0x254 libcrypto_pic.a(x509_att.pico)
                                0x26c (size before relaxing)
 .eh_frame      0x001b1d74      0x128 libcrypto_pic.a(a_strnid.pico)
                                0x140 (size before relaxing)
 .eh_frame      0x001b1e9c      0x168 libcrypto_pic.a(cms_io.pico)
                                0x180 (size before relaxing)
 .eh_frame      0x001b2004      0x1d8 libcrypto_pic.a(asn_mime.pico)
                                0x1f0 (size before relaxing)
 .eh_frame      0x001b21dc       0x80 libcrypto_pic.a(a_i2d_fp.pico)
                                 0x98 (size before relaxing)
 .eh_frame      0x001b225c       0xa0 libcrypto_pic.a(a_d2i_fp.pico)
                                 0xb8 (size before relaxing)
 .eh_frame      0x001b22fc       0xf4 libcrypto_pic.a(bio_b64.pico)
                                0x10c (size before relaxing)
 .eh_frame      0x001b23f0       0xf8 libcrypto_pic.a(encode.pico)
                                0x110 (size before relaxing)
 .eh_frame      0x001b24e8      0x118 libcrypto_pic.a(bf_buff.pico)
                                0x130 (size before relaxing)
 .eh_frame      0x001b2600       0xa0 libcrypto_pic.a(bio_ndef.pico)
                                 0xb8 (size before relaxing)
 .eh_frame      0x001b26a0      0x1a8 libcrypto_pic.a(bio_asn1.pico)
                                0x1c0 (size before relaxing)
 .eh_frame      0x001b2848       0x60 libcrypto_pic.a(cms_asn1.pico)
                                 0x78 (size before relaxing)
 .eh_frame      0x001b28a8      0x328 libcrypto_pic.a(cms_lib.pico)
                                0x340 (size before relaxing)
 .eh_frame      0x001b2bd0       0xe0 libcrypto_pic.a(bss_null.pico)
                                 0xf8 (size before relaxing)
 .eh_frame      0x001b2cb0      0x118 libcrypto_pic.a(bss_mem.pico)
                                0x130 (size before relaxing)
 .eh_frame      0x001b2dc8      0x1d4 libcrypto_pic.a(tasn_prn.pico)
                                0x1ec (size before relaxing)
 .eh_frame      0x001b2f9c      0x31c libcrypto_pic.a(x_crl.pico)
                                0x334 (size before relaxing)
 .eh_frame      0x001b32b8       0x40 libcrypto_pic.a(a_verify.pico)
                                 0x58 (size before relaxing)
 .eh_frame      0x001b32f8       0x80 libcrypto_pic.a(a_enum.pico)
                                 0x98 (size before relaxing)
 .eh_frame      0x001b3378      0x144 libcrypto_pic.a(names.pico)
                                0x15c (size before relaxing)
 .eh_frame      0x001b34bc      0x1c4 libcrypto_pic.a(o_names.pico)
                                0x1dc (size before relaxing)
 .eh_frame      0x001b3680      0x914 libcrypto_pic.a(tasn_typ.pico)
                                0x92c (size before relaxing)
 .eh_frame      0x001b3f94      0x174 libcrypto_pic.a(t_x509.pico)
                                0x18c (size before relaxing)
 .eh_frame      0x001b4108      0x10c libcrypto_pic.a(obj_xref.pico)
                                0x124 (size before relaxing)
 .eh_frame      0x001b4214      0x230 libcrypto_pic.a(m_sha1.pico)
                                0x248 (size before relaxing)
 .eh_frame      0x001b4444       0x94 libcrypto_pic.a(err_prn.pico)
                                 0xac (size before relaxing)
 .eh_frame      0x001b44d8      0x20c libcrypto_pic.a(ameth_lib.pico)
                                0x224 (size before relaxing)
 .eh_frame      0x001b46e4       0x20 libcrypto_pic.a(t_x509a.pico)
                                 0x38 (size before relaxing)
 .eh_frame      0x001b4704       0x98 libcrypto_pic.a(sha1dgst.pico)
                                 0xb0 (size before relaxing)
 .eh_frame      0x001b479c      0x218 libcrypto_pic.a(dh_ameth.pico)
                                0x230 (size before relaxing)
 .eh_frame      0x001b49b4       0x78 libcrypto_pic.a(dh_asn1.pico)
                                 0x90 (size before relaxing)
 .eh_frame      0x001b4a2c       0x38 libcrypto_pic.a(cm_ameth.pico)
                                 0x50 (size before relaxing)
 .eh_frame      0x001b4a64      0x118 libcrypto_pic.a(cmac.pico)
                                0x130 (size before relaxing)
 .eh_frame      0x001b4b7c       0xd0 libcrypto_pic.a(p8_pkey.pico)
                                 0xe8 (size before relaxing)
 .eh_frame      0x001b4c4c       0x20 libcrypto_pic.a(t_pkey.pico)
                                 0x38 (size before relaxing)
 .eh_frame      0x001b4c6c       0x94 libcrypto_pic.a(x_long.pico)
                                 0xac (size before relaxing)
 .eh_frame      0x001b4d00       0x80 libcrypto_pic.a(x_bignum.pico)
                                 0x98 (size before relaxing)
 .eh_frame      0x001b4d80       0xb0 libcrypto_pic.a(x_attrib.pico)
                                 0xc8 (size before relaxing)
 .eh_frame      0x001b4e30      0x1e0 libcrypto_pic.a(x_x509a.pico)
                                0x1f8 (size before relaxing)
 .eh_frame      0x001b5010      0x1bc libcrypto_pic.a(x_x509.pico)
                                0x1d4 (size before relaxing)
 .eh_frame      0x001b51cc      0x238 libcrypto_pic.a(x_name.pico)
                                0x250 (size before relaxing)
 .eh_frame      0x001b5404      0x210 libcrypto_pic.a(x_pubkey.pico)
                                0x228 (size before relaxing)
 .eh_frame      0x001b5614       0x74 libcrypto_pic.a(x_val.pico)
                                 0x8c (size before relaxing)
 .eh_frame      0x001b5688      0x148 libcrypto_pic.a(x_algor.pico)
                                0x160 (size before relaxing)
 .eh_frame      0x001b57d0      0x158 libcrypto_pic.a(a_strex.pico)
                                0x170 (size before relaxing)
 .eh_frame      0x001b5928      0x114 libcrypto_pic.a(a_mbstr.pico)
                                0x12c (size before relaxing)
 .eh_frame      0x001b5a3c       0x40 libcrypto_pic.a(a_utf8.pico)
                                 0x58 (size before relaxing)
 .eh_frame      0x001b5a7c      0x10c libcrypto_pic.a(a_time.pico)
                                0x124 (size before relaxing)
 .eh_frame      0x001b5b88       0x7c libcrypto_pic.a(a_gentm.pico)
                                 0x94 (size before relaxing)
 .eh_frame      0x001b5c04       0x9c libcrypto_pic.a(a_utctm.pico)
                                 0xb4 (size before relaxing)
 .eh_frame      0x001b5ca0      0x3c8 libcrypto_pic.a(v3_asid.pico)
                                0x3e0 (size before relaxing)
 .eh_frame      0x001b6068       0x74 libcrypto_pic.a(v3_akeya.pico)
                                 0x8c (size before relaxing)
 .eh_frame      0x001b60dc      0x500 libcrypto_pic.a(v3_addr.pico)
                                0x518 (size before relaxing)
 .eh_frame      0x001b65dc       0x7c libcrypto_pic.a(pcy_cache.pico)
                                 0x94 (size before relaxing)
 .eh_frame      0x001b6658      0x30c libcrypto_pic.a(x509_ext.pico)
                                0x324 (size before relaxing)
 .eh_frame      0x001b6964      0x1c8 libcrypto_pic.a(x509_v3.pico)
                                0x1e0 (size before relaxing)
 .eh_frame      0x001b6b2c       0x20 libcrypto_pic.a(x509_obj.pico)
                                 0x38 (size before relaxing)
 .eh_frame      0x001b6b4c      0x378 libcrypto_pic.a(evp_lib.pico)
                                0x390 (size before relaxing)
 .eh_frame      0x001b6ec4      0x30c libcrypto_pic.a(ec_key.pico)
                                0x324 (size before relaxing)
 .eh_frame      0x001b71d0      0x164 libcrypto_pic.a(dsa_lib.pico)
                                0x17c (size before relaxing)
 .eh_frame      0x001b7334      0x144 libcrypto_pic.a(dh_lib.pico)
                                0x15c (size before relaxing)
 .eh_frame      0x001b7478       0xec libcrypto_pic.a(dh_key.pico)
                                0x104 (size before relaxing)
 .eh_frame      0x001b7564       0x40 libcrypto_pic.a(o_time.pico)
                                 0x58 (size before relaxing)
 .eh_frame      0x001b75a4      0x138 libcrypto_pic.a(bss_file.pico)
                                0x150 (size before relaxing)
 .eh_frame      0x001b76dc       0x80 libcrypto_pic.a(evp_asn1.pico)
                                 0x98 (size before relaxing)
 .eh_frame      0x001b775c       0x60 libcrypto_pic.a(a_bytes.pico)
                                 0x78 (size before relaxing)
 .eh_frame      0x001b77bc       0x7c libcrypto_pic.a(asn1_par.pico)
                                 0x94 (size before relaxing)
 .eh_frame      0x001b7838       0xcc libcrypto_pic.a(x_exten.pico)
                                 0xe4 (size before relaxing)
 .eh_frame      0x001b7904       0x40 libcrypto_pic.a(a_bool.pico)
                                 0x58 (size before relaxing)
 .eh_frame      0x001b7944       0x40 libcrypto_pic.a(a_dup.pico)
                                 0x58 (size before relaxing)
 .eh_frame      0x001b7984       0x54 libcrypto_pic.a(a_octet.pico)
                                 0x6c (size before relaxing)
 .eh_frame      0x001b79d8       0x78 libcrypto_pic.a(v3_pcons.pico)
                                 0x90 (size before relaxing)
 .eh_frame      0x001b7a50       0x40 libcrypto_pic.a(pcy_data.pico)
                                 0x58 (size before relaxing)
 .eh_frame      0x001b7a90       0x80 libcrypto_pic.a(eng_init.pico)
                                 0x98 (size before relaxing)
 .eh_frame      0x001b7b10      0x31c libcrypto_pic.a(eng_lib.pico)
                                0x334 (size before relaxing)
 .eh_frame      0x001b7e2c       0x3c libcrypto_pic.a(ec_curve.pico)
                                 0x54 (size before relaxing)
 .eh_frame      0x001b7e68       0x40 libcrypto_pic.a(ec_cvt.pico)
                                 0x58 (size before relaxing)
 .eh_frame      0x001b7ea8       0x98 libcrypto_pic.a(ecp_nist.pico)
                                 0xb0 (size before relaxing)
 .eh_frame      0x001b7f40      0x158 libcrypto_pic.a(ecp_mont.pico)
                                0x170 (size before relaxing)
 .eh_frame      0x001b8098      0x370 libcrypto_pic.a(ecp_smpl.pico)
                                0x388 (size before relaxing)
 .eh_frame      0x001b8408       0xb4 libcrypto_pic.a(dsa_ossl.pico)
                                 0xcc (size before relaxing)
 .eh_frame      0x001b84bc       0x74 libcrypto_pic.a(dsa_sign.pico)
                                 0x8c (size before relaxing)
 .eh_frame      0x001b8530       0x40 libcrypto_pic.a(dh_check.pico)
                                 0x58 (size before relaxing)
 .eh_frame      0x001b8570      0x12c libcrypto_pic.a(bn_nist.pico)
                                0x144 (size before relaxing)
 .eh_frame      0x001b869c       0x20 libcrypto_pic.a(bn_exp2.pico)
                                 0x38 (size before relaxing)
 .eh_frame      0x001b86bc       0x80 libcrypto_pic.a(bn_prime.pico)
                                 0x98 (size before relaxing)
 .eh_frame      0x001b873c       0xe0 libcrypto_pic.a(bn_exp.pico)
                                 0xf8 (size before relaxing)
 .eh_frame      0x001b881c       0xf0 libcrypto_pic.a(b_dump.pico)
                                0x108 (size before relaxing)
 .eh_frame      0x001b890c      0x13c libcrypto_pic.a(tasn_dec.pico)
                                0x154 (size before relaxing)
 .eh_frame      0x001b8a48      0x114 libcrypto_pic.a(tasn_enc.pico)
                                0x12c (size before relaxing)
 .eh_frame      0x001b8b5c       0xb8 libcrypto_pic.a(tasn_new.pico)
                                 0xd0 (size before relaxing)
 .eh_frame      0x001b8c14       0x7c libcrypto_pic.a(a_type.pico)
                                 0x94 (size before relaxing)
 .eh_frame      0x001b8c90       0xbc libcrypto_pic.a(a_bitstr.pico)
                                 0xd4 (size before relaxing)
 .eh_frame      0x001b8d4c      0x350 libcrypto_pic.a(ec2_smpl.pico)
                                0x368 (size before relaxing)
 .eh_frame      0x001b909c       0xa0 libcrypto_pic.a(buffer.pico)
                                 0xb8 (size before relaxing)
 .eh_frame      0x001b913c      0x120 libcrypto_pic.a(bn_mont.pico)
                                0x138 (size before relaxing)
 .eh_frame      0x001b925c       0xe0 libcrypto_pic.a(bn_recp.pico)
                                 0xf8 (size before relaxing)
 .eh_frame      0x001b933c       0x40 libcrypto_pic.a(bn_gcd.pico)
                                 0x58 (size before relaxing)
 .eh_frame      0x001b937c      0x160 libcrypto_pic.a(bn_mod.pico)
                                0x178 (size before relaxing)
 .eh_frame      0x001b94dc       0x20 libcrypto_pic.a(bn_div.pico)
                                 0x38 (size before relaxing)
 .eh_frame      0x001b94fc       0x98 libcrypto_pic.a(tasn_fre.pico)
                                 0xb0 (size before relaxing)
 .eh_frame      0x001b9594      0x11c libcrypto_pic.a(a_object.pico)
                                0x134 (size before relaxing)
 .eh_frame      0x001b96b0       0x78 libcrypto_pic.a(ec2_mult.pico)
                                 0x90 (size before relaxing)
 .eh_frame      0x001b9728      0x6b0 libcrypto_pic.a(ec_lib.pico)
                                0x6c8 (size before relaxing)
 .eh_frame      0x001b9dd8      0x280 libcrypto_pic.a(bn_gf2m.pico)
                                0x298 (size before relaxing)
 .eh_frame      0x001ba058       0x60 libcrypto_pic.a(bn_sqr.pico)
                                 0x78 (size before relaxing)
 .eh_frame      0x001ba0b8      0x120 libcrypto_pic.a(bn_mul.pico)
                                0x138 (size before relaxing)
 .eh_frame      0x001ba1d8       0xa0 libcrypto_pic.a(bn_word.pico)
                                 0xb8 (size before relaxing)
 .eh_frame      0x001ba278       0x80 libcrypto_pic.a(bn_shift.pico)
                                 0x98 (size before relaxing)
 .eh_frame      0x001ba2f8       0xd8 libcrypto_pic.a(bn_rand.pico)
                                 0xf0 (size before relaxing)
 .eh_frame      0x001ba3d0       0xc0 libcrypto_pic.a(bn_ctx.pico)
                                 0xd8 (size before relaxing)
 .eh_frame      0x001ba490       0x80 libcrypto_pic.a(bn_add.pico)
                                 0x98 (size before relaxing)
 .eh_frame      0x001ba510      0x110 libcrypto_pic.a(tasn_utl.pico)
                                0x128 (size before relaxing)
 .eh_frame      0x001ba620      0x11c libcrypto_pic.a(a_int.pico)
                                0x134 (size before relaxing)
 .eh_frame      0x001ba73c      0x39c libcrypto_pic.a(bn_lib.pico)
                                0x3b4 (size before relaxing)
 .eh_frame      0x001baad8      0x2b4 libcrypto_pic.a(asn1_lib.pico)
                                0x2cc (size before relaxing)
 .eh_frame      0x001bad8c       0xdc libcrypto_pic.a(b_print.pico)
                                 0xf4 (size before relaxing)
 .eh_frame      0x001bae68      0x470 libcrypto_pic.a(bio_lib.pico)
                                0x488 (size before relaxing)
 .eh_frame      0x001bb2d8      0x290 libcrypto_pic.a(ex_data.pico)
                                0x2a8 (size before relaxing)
 .eh_frame      0x001bb568      0x41c libcrypto_pic.a(cryptlib.pico)
                                0x434 (size before relaxing)
 .eh_frame      0x001bb984       0xa0 libcrypto_pic.a(buf_str.pico)
                                 0xb8 (size before relaxing)
 .eh_frame      0x001bba24      0x2b8 libcrypto_pic.a(mem.pico)
                                0x2d0 (size before relaxing)
 .eh_frame      0x001bbcdc       0x1c libcrypto_pic.a(o_init.pico)
                                 0x34 (size before relaxing)
 .eh_frame      0x001bbcf8        0x4 /usr/lib/crtendS.o

.note.netbsd.ident
                0x001bbcfc       0x18
 .note.netbsd.ident
                0x001bbcfc       0x18 /usr/lib/crti.o

.note.netbsd.pax
                0x001bbd14       0x14
 .note.netbsd.pax
                0x001bbd14       0x14 /usr/lib/crti.o

.gcc_except_table
 *(.gcc_except_table .gcc_except_table.*)

.exception_ranges
 *(.exception_ranges .exception_ranges*)
                0x001bbd28                . = (ALIGN (0x1000) - ((0x1000 - .) & 0xfff))
                0x001bc000                . = DATA_SEGMENT_ALIGN (0x1000, 0x1000)

.eh_frame
 *(.eh_frame)

.gcc_except_table
 *(.gcc_except_table .gcc_except_table.*)

.exception_ranges
 *(.exception_ranges .exception_ranges*)

.tdata
 *(.tdata .tdata.* .gnu.linkonce.td.*)

.tbss
 *(.tbss .tbss.* .gnu.linkonce.tb.*)
 *(.tcommon)

.preinit_array
 *(.preinit_array)

.init_array
 *(SORT(.init_array.*))
 *(.init_array)

.fini_array
 *(SORT(.fini_array.*))
 *(.fini_array)

.ctors          0x001bc000        0x8
 *crtbegin.o(.ctors)
 *crtbegin?.o(.ctors)
 .ctors         0x001bc000        0x4 /usr/lib/crtbeginS.o
 *(EXCLUDE_FILE(*crtend?.o *crtend.o) .ctors)
 *(SORT(.ctors.*))
 *(.ctors)
 .ctors         0x001bc004        0x4 /usr/lib/crtendS.o
                0x001bc004                __CTOR_LIST_END__

.dtors          0x001bc008        0x8
 *crtbegin.o(.dtors)
 *crtbegin?.o(.dtors)
 .dtors         0x001bc008        0x4 /usr/lib/crtbeginS.o
 *(EXCLUDE_FILE(*crtend?.o *crtend.o) .dtors)
 *(SORT(.dtors.*))
 *(.dtors)
 .dtors         0x001bc00c        0x4 /usr/lib/crtendS.o

.jcr            0x001bc010        0x4
 *(.jcr)
 .jcr           0x001bc010        0x0 /usr/lib/crtbeginS.o
 .jcr           0x001bc010        0x4 /usr/lib/crtendS.o

.data.rel.ro    0x001bc020     0xdf24
 *(.data.rel.ro.local* .gnu.linkonce.d.rel.ro.local.*)
 .data.rel.ro.local
                0x001bc020       0x58 libcrypto_pic.a(ts_rsp_verify.pico)
 .data.rel.ro.local
                0x001bc078       0x18 libcrypto_pic.a(ts_rsp_print.pico)
 .data.rel.ro.local
                0x001bc090       0x1c libcrypto_pic.a(str_lib.pico)
                0x001bc090                STORE_object_type_string
 .data.rel.ro.local
                0x001bc0ac       0x88 libcrypto_pic.a(ocsp_prn.pico)
 .data.rel.ro.local
                0x001bc134      0x134 libcrypto_pic.a(krb5_asn.pico)
                0x001bc134                KRB5_ENCDATA_it
                0x001bc150                KRB5_PRINCNAME_it
                0x001bc16c                KRB5_TKTBODY_it
                0x001bc188                KRB5_TICKET_it
                0x001bc1a4                KRB5_APREQBODY_it
                0x001bc1c0                KRB5_APREQ_it
                0x001bc1dc                KRB5_CHECKSUM_it
                0x001bc1f8                KRB5_ENCKEY_it
                0x001bc214                KRB5_AUTHDATA_it
                0x001bc230                KRB5_AUTHENTBODY_it
                0x001bc24c                KRB5_AUTHENT_it
 .data.rel.ro.local
                0x001bc268       0x34 libcrypto_pic.a(e_null.pico)
 .data.rel.ro.local
                0x001bc29c       0x4c libcrypto_pic.a(m_null.pico)
 .data.rel.ro.local
                0x001bc2e8       0x68 libcrypto_pic.a(eng_openssl.pico)
 .data.rel.ro.local
                0x001bc350       0x18 libcrypto_pic.a(cversion.pico)
 .data.rel.ro.local
                0x001bc368       0x1c libcrypto_pic.a(x_nx509.pico)
                0x001bc368                NETSCAPE_X509_it
 .data.rel.ro.local
                0x001bc384       0x38 libcrypto_pic.a(n_pkey.pico)
                0x001bc384                NETSCAPE_ENCRYPTED_PKEY_it
                0x001bc3a0                NETSCAPE_PKEY_it
 .data.rel.ro.local
                0x001bc3bc      0x114 libcrypto_pic.a(ts_asn1.pico)
                0x001bc3bc                TS_MSG_IMPRINT_it
                0x001bc3d8                TS_REQ_it
                0x001bc3f4                TS_ACCURACY_it
                0x001bc410                TS_TST_INFO_it
                0x001bc42c                TS_STATUS_INFO_it
                0x001bc460                TS_RESP_it
                0x001bc47c                ESS_ISSUER_SERIAL_it
                0x001bc498                ESS_CERT_ID_it
                0x001bc4b4                ESS_SIGNING_CERT_it
 .data.rel.ro.local
                0x001bc4d0       0xd0 libcrypto_pic.a(e_rc5.pico)
 .data.rel.ro.local
                0x001bc5a0      0x138 libcrypto_pic.a(e_rc2.pico)
 .data.rel.ro.local
                0x001bc6d8      0xbc8 libcrypto_pic.a(e_aes.pico)
 .data.rel.ro.local
                0x001bd2a0       0x68 libcrypto_pic.a(e_rc4.pico)
 .data.rel.ro.local
                0x001bd308       0xd0 libcrypto_pic.a(e_seed.pico)
 .data.rel.ro.local
                0x001bd3d8       0x20 libcrypto_pic.a(e_ubsec.pico)
 .data.rel.ro.local
                0x001bd3f8       0x20 libcrypto_pic.a(e_nuron.pico)
 .data.rel.ro.local
                0x001bd418       0x20 libcrypto_pic.a(e_cswift.pico)
 .data.rel.ro.local
                0x001bd438       0x60 libcrypto_pic.a(e_chil.pico)
 .data.rel.ro.local
                0x001bd498       0x20 libcrypto_pic.a(e_atalla.pico)
 .data.rel.ro.local
                0x001bd4b8       0x20 libcrypto_pic.a(e_aep.pico)
 .data.rel.ro.local
                0x001bd4d8       0x20 libcrypto_pic.a(e_4758cca.pico)
 .data.rel.ro.local
                0x001bd4f8       0x80 libcrypto_pic.a(eng_dyn.pico)
 .data.rel.ro.local
                0x001bd578       0x34 libcrypto_pic.a(nsseq.pico)
                0x001bd590                NETSCAPE_CERT_SEQUENCE_it
 .data.rel.ro.local
                0x001bd5ac       0x4c libcrypto_pic.a(m_wp.pico)
 .data.rel.ro.local
                0x001bd5f8       0x20 libcrypto_pic.a(gost_ctl.pico)
                0x001bd5f8                gost_cmds
 .data.rel.ro.local
                0x001bd618       0xa8 libcrypto_pic.a(gost_asn1.pico)
                0x001bd618                GOST_KEY_TRANSPORT_it
                0x001bd634                GOST_KEY_INFO_it
                0x001bd650                GOST_KEY_AGREEMENT_INFO_it
                0x001bd66c                GOST_KEY_PARAMS_it
                0x001bd688                GOST_CIPHER_PARAMS_it
                0x001bd6a4                GOST_CLIENT_KEY_EXCHANGE_PARAMS_it
 .data.rel.ro.local
                0x001bd6c0       0x38 libcrypto_pic.a(v3_sxnet.pico)
                0x001bd6c0                SXNET_it
                0x001bd6dc                SXNETID_it
 .data.rel.ro.local
                0x001bd6f8       0x1c libcrypto_pic.a(v3_pku.pico)
                0x001bd6f8                PKEY_USAGE_PERIOD_it
 .data.rel.ro.local
                0x001bd714       0x38 libcrypto_pic.a(v3_pcia.pico)
                0x001bd714                PROXY_POLICY_it
                0x001bd730                PROXY_CERT_INFO_EXTENSION_it
 .data.rel.ro.local
                0x001bd74c       0x38 libcrypto_pic.a(v3_ocsp.pico)
                0x001bd74c                v3_ocsp_nonce
 .data.rel.ro.local
                0x001bd784      0x1a4 libcrypto_pic.a(ocsp_asn.pico)
                0x001bd784                OCSP_SIGNATURE_it
                0x001bd7a0                OCSP_CERTID_it
                0x001bd7bc                OCSP_ONEREQ_it
                0x001bd7d8                OCSP_REQINFO_it
                0x001bd7f4                OCSP_REQUEST_it
                0x001bd810                OCSP_RESPBYTES_it
                0x001bd82c                OCSP_RESPONSE_it
                0x001bd848                OCSP_RESPID_it
                0x001bd864                OCSP_REVOKEDINFO_it
                0x001bd880                OCSP_CERTSTATUS_it
                0x001bd89c                OCSP_SINGLERESP_it
                0x001bd8b8                OCSP_RESPDATA_it
                0x001bd8d4                OCSP_BASICRESP_it
                0x001bd8f0                OCSP_CRLID_it
                0x001bd90c                OCSP_SERVICELOC_it
 .data.rel.ro.local
                0x001bd928       0x38 libcrypto_pic.a(v3_ncons.pico)
                0x001bd928                NAME_CONSTRAINTS_it
                0x001bd944                GENERAL_SUBTREE_it
 .data.rel.ro.local
                0x001bd960       0x38 libcrypto_pic.a(v3_info.pico)
                0x001bd960                AUTHORITY_INFO_ACCESS_it
                0x001bd97c                ACCESS_DESCRIPTION_it
 .data.rel.ro.local
                0x001bd998       0x1c libcrypto_pic.a(v3_extku.pico)
                0x001bd998                EXTENDED_KEY_USAGE_it
 .data.rel.ro.local
                0x001bd9b4       0x1c libcrypto_pic.a(v3_bcons.pico)
                0x001bd9b4                BASIC_CONSTRAINTS_it
 .data.rel.ro.local
                0x001bd9d0       0x70 libcrypto_pic.a(v3_genn.pico)
                0x001bd9d0                OTHERNAME_it
                0x001bd9ec                EDIPARTYNAME_it
                0x001bda08                GENERAL_NAME_it
                0x001bda24                GENERAL_NAMES_it
 .data.rel.ro.local
                0x001bda40      0x100 libcrypto_pic.a(v3_crld.pico)
                0x001bda40                CRL_DIST_POINTS_it
                0x001bda74                DIST_POINT_NAME_it
                0x001bda90                DIST_POINT_it
                0x001bdaac                ISSUING_DIST_POINT_it
 .data.rel.ro.local
                0x001bdb40       0xa8 libcrypto_pic.a(v3_cpols.pico)
                0x001bdb40                CERTIFICATEPOLICIES_it
                0x001bdb5c                POLICYINFO_it
                0x001bdb78                POLICYQUALINFO_it
                0x001bdb94                USERNOTICE_it
                0x001bdbb0                NOTICEREF_it
 .data.rel.ro.local
                0x001bdbe8      0x24c libcrypto_pic.a(asn1_gen.pico)
 .data.rel.ro.local
                0x001bde34       0x38 libcrypto_pic.a(v3_pmaps.pico)
                0x001bde34                POLICY_MAPPINGS_it
                0x001bde50                POLICY_MAPPING_it
 .data.rel.ro.local
                0x001bde6c       0x38 libcrypto_pic.a(x_spki.pico)
                0x001bde6c                NETSCAPE_SPKAC_it
                0x001bde88                NETSCAPE_SPKI_it
 .data.rel.ro.local
                0x001bdea4       0x50 libcrypto_pic.a(x_req.pico)
                0x001bdebc                X509_REQ_INFO_it
                0x001bded8                X509_REQ_it
 .data.rel.ro.local
                0x001bdef4       0xb4 libcrypto_pic.a(x509_vpm.pico)
 .data.rel.ro.local
                0x001bdfa8       0x6c libcrypto_pic.a(rsa_pmeth.pico)
                0x001bdfa8                rsa_pkey_meth
 .data.rel.ro.local
                0x001be014       0xd8 libcrypto_pic.a(rsa_ameth.pico)
                0x001be014                rsa_asn1_meths
 .data.rel.ro.local
                0x001be0ec       0x84 libcrypto_pic.a(rsa_asn1.pico)
                0x001be104                RSAPrivateKey_it
                0x001be138                RSAPublicKey_it
                0x001be154                RSA_PSS_PARAMS_it
 .data.rel.ro.local
                0x001be170       0x20 libcrypto_pic.a(rand_unix.pico)
 .data.rel.ro.local
                0x001be190      0x1b4 libcrypto_pic.a(pk7_asn1.pico)
                0x001be1a8                PKCS7_it
                0x001be1c4                PKCS7_SIGNED_it
                0x001be1f8                PKCS7_SIGNER_INFO_it
                0x001be214                PKCS7_ISSUER_AND_SERIAL_it
                0x001be230                PKCS7_ENVELOPE_it
                0x001be264                PKCS7_RECIP_INFO_it
                0x001be280                PKCS7_ENC_CONTENT_it
                0x001be29c                PKCS7_SIGN_ENVELOPE_it
                0x001be2b8                PKCS7_ENCRYPT_it
                0x001be2d4                PKCS7_DIGEST_it
                0x001be2f0                PKCS7_ATTR_SIGN_it
                0x001be30c                PKCS7_ATTR_VERIFY_it
 .data.rel.ro.local
                0x001be344       0xe0 libcrypto_pic.a(p12_asn.pico)
                0x001be344                PKCS12_it
                0x001be360                PKCS12_MAC_DATA_it
                0x001be37c                PKCS12_BAGS_it
                0x001be398                PKCS12_SAFEBAG_it
                0x001be3b4                PKCS12_SAFEBAGS_it
                0x001be3d0                PKCS12_AUTHSAFES_it
 .data.rel.ro.local
                0x001be424       0x1c libcrypto_pic.a(x_sig.pico)
                0x001be424                X509_SIG_it
 .data.rel.ro.local
                0x001be440     0x5640 libcrypto_pic.a(obj_dat.pico)
 .data.rel.ro.local
                0x001c3a80       0x6c libcrypto_pic.a(hm_pmeth.pico)
                0x001c3a80                hmac_pkey_meth
 .data.rel.ro.local
                0x001c3aec       0x6c libcrypto_pic.a(hm_ameth.pico)
                0x001c3aec                hmac_asn1_meth
 .data.rel.ro.local
                0x001c3b58       0x6c libcrypto_pic.a(ec_pmeth.pico)
                0x001c3b58                ec_pkey_meth
 .data.rel.ro.local
                0x001c3bc4       0x6c libcrypto_pic.a(dsa_pmeth.pico)
                0x001c3bc4                dsa_pkey_meth
 .data.rel.ro.local
                0x001c3c30       0x6c libcrypto_pic.a(dh_pmeth.pico)
                0x001c3c30                dh_pkey_meth
 .data.rel.ro.local
                0x001c3c9c       0x6c libcrypto_pic.a(cm_pmeth.pico)
                0x001c3c9c                cmac_pkey_meth
 .data.rel.ro.local
                0x001c3d08       0x1c libcrypto_pic.a(p5_pbe.pico)
                0x001c3d08                PBEPARAM_it
 .data.rel.ro.local
                0x001c3d24       0x2c libcrypto_pic.a(err.pico)
 .data.rel.ro.local
                0x001c3d50       0x1c libcrypto_pic.a(ecs_asn1.pico)
                0x001c3d50                ECDSA_SIG_it
 .data.rel.ro.local
                0x001c3d6c       0x6c libcrypto_pic.a(ec_ameth.pico)
                0x001c3d6c                eckey_asn1_meth
 .data.rel.ro.local
                0x001c3dd8       0xfc libcrypto_pic.a(ec_asn1.pico)
                0x001c3dd8                X9_62_PENTANOMIAL_it
                0x001c3df4                X9_62_CHARACTERISTIC_TWO_it
                0x001c3e10                X9_62_FIELDID_it
                0x001c3e2c                X9_62_CURVE_it
                0x001c3e48                ECPARAMETERS_it
                0x001c3e64                ECPKPARAMETERS_it
                0x001c3e80                EC_PRIVATEKEY_it
 .data.rel.ro.local
                0x001c3ed4      0x21c libcrypto_pic.a(dsa_ameth.pico)
                0x001c3ed4                dsa_asn1_meths
 .data.rel.ro.local
                0x001c40f0       0xec libcrypto_pic.a(dsa_asn1.pico)
                0x001c4108                DSA_SIG_it
                0x001c413c                DSAPrivateKey_it
                0x001c4170                DSAparams_it
                0x001c418c                dsa_pub_internal_it
                0x001c41c0                DSAPublicKey_it
 .data.rel.ro.local
                0x001c41dc       0x38 libcrypto_pic.a(p5_pbev2.pico)
                0x001c41dc                PBE2PARAM_it
                0x001c41f8                PBKDF2PARAM_it
 .data.rel.ro.local
                0x001c4214      0x438 libcrypto_pic.a(cms_asn1.pico)
                0x001c4214                CMS_IssuerAndSerialNumber_it
                0x001c4230                CMS_OtherCertificateFormat_it
                0x001c424c                CMS_CertificateChoices_it
                0x001c4268                CMS_SignerIdentifier_it
                0x001c4284                CMS_EncapsulatedContentInfo_it
                0x001c42b8                CMS_SignerInfo_it
                0x001c42d4                CMS_OtherRevocationInfoFormat_it
                0x001c42f0                CMS_RevocationInfoChoice_it
                0x001c430c                CMS_SignedData_it
                0x001c4328                CMS_OriginatorInfo_it
                0x001c4344                CMS_EncryptedContentInfo_it
                0x001c4360                CMS_KeyTransRecipientInfo_it
                0x001c437c                CMS_OtherKeyAttribute_it
                0x001c4398                CMS_RecipientKeyIdentifier_it
                0x001c43b4                CMS_KeyAgreeRecipientIdentifier_it
                0x001c43d0                CMS_RecipientEncryptedKey_it
                0x001c43ec                CMS_OriginatorPublicKey_it
                0x001c4408                CMS_OriginatorIdentifierOrKey_it
                0x001c4424                CMS_KeyAgreeRecipientInfo_it
                0x001c4440                CMS_KEKIdentifier_it
                0x001c445c                CMS_KEKRecipientInfo_it
                0x001c4478                CMS_PasswordRecipientInfo_it
                0x001c4494                CMS_OtherRecipientInfo_it
                0x001c44c8                CMS_RecipientInfo_it
                0x001c44e4                CMS_EnvelopedData_it
                0x001c4500                CMS_DigestedData_it
                0x001c451c                CMS_EncryptedData_it
                0x001c4538                CMS_AuthenticatedData_it
                0x001c4554                CMS_CompressedData_it
                0x001c4588                CMS_ContentInfo_it
                0x001c45a4                CMS_Attributes_Sign_it
                0x001c45c0                CMS_Attributes_Verify_it
                0x001c45dc                CMS_ReceiptsFrom_it
                0x001c45f8                CMS_ReceiptRequest_it
                0x001c4614                CMS_Receipt_it
 .data.rel.ro.local
                0x001c464c       0x84 libcrypto_pic.a(x_crl.pico)
                0x001c464c                X509_REVOKED_it
                0x001c4680                X509_CRL_INFO_it
                0x001c46b4                X509_CRL_it
 .data.rel.ro.local
                0x001c46d0      0x2f4 libcrypto_pic.a(tasn_typ.pico)
                0x001c46d0                ASN1_INTEGER_it
                0x001c46ec                ASN1_ENUMERATED_it
                0x001c4708                ASN1_BIT_STRING_it
                0x001c4724                ASN1_OCTET_STRING_it
                0x001c4740                ASN1_NULL_it
                0x001c475c                ASN1_OBJECT_it
                0x001c4778                ASN1_UTF8STRING_it
                0x001c4794                ASN1_PRINTABLESTRING_it
                0x001c47b0                ASN1_T61STRING_it
                0x001c47cc                ASN1_IA5STRING_it
                0x001c47e8                ASN1_GENERALSTRING_it
                0x001c4804                ASN1_UTCTIME_it
                0x001c4820                ASN1_GENERALIZEDTIME_it
                0x001c483c                ASN1_VISIBLESTRING_it
                0x001c4858                ASN1_UNIVERSALSTRING_it
                0x001c4874                ASN1_BMPSTRING_it
                0x001c4890                ASN1_ANY_it
                0x001c48ac                ASN1_SEQUENCE_it
                0x001c48c8                ASN1_PRINTABLE_it
                0x001c48e4                DISPLAYTEXT_it
                0x001c4900                DIRECTORYSTRING_it
                0x001c491c                ASN1_BOOLEAN_it
                0x001c4938                ASN1_TBOOLEAN_it
                0x001c4954                ASN1_FBOOLEAN_it
                0x001c4970                ASN1_OCTET_STRING_NDEF_it
                0x001c498c                ASN1_SEQUENCE_ANY_it
                0x001c49a8                ASN1_SET_ANY_it
 .data.rel.ro.local
                0x001c49c4       0x30 libcrypto_pic.a(t_x509.pico)
 .data.rel.ro.local
                0x001c49f4       0x6c libcrypto_pic.a(obj_xref.pico)
 .data.rel.ro.local
                0x001c4a60       0x6c libcrypto_pic.a(dh_ameth.pico)
                0x001c4a60                dh_asn1_meth
 .data.rel.ro.local
                0x001c4acc       0x34 libcrypto_pic.a(dh_asn1.pico)
                0x001c4ae4                DHparams_it
 .data.rel.ro.local
                0x001c4b00       0x6c libcrypto_pic.a(cm_ameth.pico)
                0x001c4b00                cmac_asn1_meth
 .data.rel.ro.local
                0x001c4b6c       0x34 libcrypto_pic.a(p8_pkey.pico)
                0x001c4b84                PKCS8_PRIV_KEY_INFO_it
 .data.rel.ro.local
                0x001c4ba0       0x38 libcrypto_pic.a(x_long.pico)
                0x001c4ba0                LONG_it
                0x001c4bbc                ZLONG_it
 .data.rel.ro.local
                0x001c4bd8       0x38 libcrypto_pic.a(x_bignum.pico)
                0x001c4bd8                BIGNUM_it
                0x001c4bf4                CBIGNUM_it
 .data.rel.ro.local
                0x001c4c10       0x38 libcrypto_pic.a(x_attrib.pico)
                0x001c4c10                X509_ATTRIBUTE_SET_it
                0x001c4c2c                X509_ATTRIBUTE_it
 .data.rel.ro.local
                0x001c4c48       0x38 libcrypto_pic.a(x_x509a.pico)
                0x001c4c48                X509_CERT_AUX_it
                0x001c4c64                X509_CERT_PAIR_it
 .data.rel.ro.local
                0x001c4c80       0x50 libcrypto_pic.a(x_x509.pico)
                0x001c4c80                X509_CINF_it
                0x001c4cb4                X509_it
 .data.rel.ro.local
                0x001c4cd0       0x70 libcrypto_pic.a(x_name.pico)
                0x001c4cd0                X509_NAME_ENTRY_it
                0x001c4cec                X509_NAME_ENTRIES_it
                0x001c4d08                X509_NAME_INTERNAL_it
                0x001c4d24                x509_name_ff
 .data.rel.ro.local
                0x001c4d40       0x34 libcrypto_pic.a(x_pubkey.pico)
                0x001c4d58                X509_PUBKEY_it
 .data.rel.ro.local
                0x001c4d74       0x1c libcrypto_pic.a(x_val.pico)
                0x001c4d74                X509_VAL_it
 .data.rel.ro.local
                0x001c4d90       0x38 libcrypto_pic.a(x_algor.pico)
                0x001c4d90                X509_ALGOR_it
                0x001c4dac                X509_ALGORS_it
 .data.rel.ro.local
                0x001c4dc8       0x1c libcrypto_pic.a(a_time.pico)
                0x001c4dc8                ASN1_TIME_it
 .data.rel.ro.local
                0x001c4de4       0x70 libcrypto_pic.a(v3_asid.pico)
                0x001c4de4                ASRange_it
                0x001c4e00                ASIdOrRange_it
                0x001c4e1c                ASIdentifierChoice_it
                0x001c4e38                ASIdentifiers_it
 .data.rel.ro.local
                0x001c4e54       0x1c libcrypto_pic.a(v3_akeya.pico)
                0x001c4e54                AUTHORITY_KEYID_it
 .data.rel.ro.local
                0x001c4e70       0x8c libcrypto_pic.a(v3_addr.pico)
                0x001c4e70                IPAddressRange_it
                0x001c4e8c                IPAddressOrRange_it
                0x001c4ea8                IPAddressChoice_it
                0x001c4ec4                IPAddressFamily_it
                0x001c4ee0                IPAddrBlocks_it
 .data.rel.ro.local
                0x001c4efc       0x7c libcrypto_pic.a(asn1_par.pico)
 .data.rel.ro.local
                0x001c4f78       0x38 libcrypto_pic.a(x_exten.pico)
                0x001c4f78                X509_EXTENSION_it
                0x001c4f94                X509_EXTENSIONS_it
 .data.rel.ro.local
                0x001c4fb0       0x1c libcrypto_pic.a(v3_pcons.pico)
                0x001c4fb0                POLICY_CONSTRAINTS_it
 .data.rel.ro.local
                0x001c4fcc      0x430 libcrypto_pic.a(ec_curve.pico)
 .data.rel.ro.local
                0x001c53fc       0xc8 libcrypto_pic.a(bn_nist.pico)
 .data.rel.ro.local
                0x001c54c4       0x14 libcrypto_pic.a(bn_lib.pico)
 .data.rel.ro.local
                0x001c54d8       0xa4 libcrypto_pic.a(cryptlib.pico)
 *(.data.rel.ro .data.rel.ro.* .gnu.linkonce.d.rel.ro.*)
 .data.rel.ro   0x001c557c      0x280 libcrypto_pic.a(krb5_asn.pico)
 .data.rel.ro   0x001c57fc       0x4c libcrypto_pic.a(m_md2.pico)
 .data.rel.ro   0x001c5848       0x4c libcrypto_pic.a(eng_openssl.pico)
 .data.rel.ro   0x001c5894       0x28 libcrypto_pic.a(x_nx509.pico)
 .data.rel.ro   0x001c58bc       0x64 libcrypto_pic.a(n_pkey.pico)
 .data.rel.ro   0x001c5920      0x280 libcrypto_pic.a(ts_asn1.pico)
 .data.rel.ro   0x001c5ba0       0x4c libcrypto_pic.a(m_ripemd.pico)
 .data.rel.ro   0x001c5bec       0x4c libcrypto_pic.a(m_mdc2.pico)
 .data.rel.ro   0x001c5c38       0x4c libcrypto_pic.a(m_dss1.pico)
 .data.rel.ro   0x001c5c84       0x4c libcrypto_pic.a(m_dss.pico)
 .data.rel.ro   0x001c5cd0       0x4c libcrypto_pic.a(m_sha.pico)
 .data.rel.ro   0x001c5d1c       0x4c libcrypto_pic.a(m_md4.pico)
 .data.rel.ro   0x001c5d68       0xd0 libcrypto_pic.a(e_cast.pico)
 .data.rel.ro   0x001c5e38       0x34 libcrypto_pic.a(e_xcbc_d.pico)
 .data.rel.ro   0x001c5e6c      0x3a8 libcrypto_pic.a(e_camellia.pico)
 .data.rel.ro   0x001c6214      0x208 libcrypto_pic.a(e_des3.pico)
 .data.rel.ro   0x001c641c       0xd0 libcrypto_pic.a(e_idea.pico)
 .data.rel.ro   0x001c64ec       0xd0 libcrypto_pic.a(e_bf.pico)
 .data.rel.ro   0x001c65bc      0x138 libcrypto_pic.a(e_des.pico)
 .data.rel.ro   0x001c66f4      0x270 libcrypto_pic.a(e_padlock.pico)
 .data.rel.ro   0x001c6964       0x28 libcrypto_pic.a(nsseq.pico)
 .data.rel.ro   0x001c698c       0x4c libcrypto_pic.a(m_ecdsa.pico)
 .data.rel.ro   0x001c69d8      0x104 libcrypto_pic.a(gost_asn1.pico)
 .data.rel.ro   0x001c6adc       0x88 libcrypto_pic.a(v3_sxnet.pico)
                0x001c6adc                v3_sxnet
 .data.rel.ro   0x001c6b64       0x38 libcrypto_pic.a(v3_skey.pico)
                0x001c6b64                v3_skey_id
 .data.rel.ro   0x001c6b9c       0x60 libcrypto_pic.a(v3_pku.pico)
                0x001c6b9c                v3_pkey_usage_period
 .data.rel.ro   0x001c6bfc       0x38 libcrypto_pic.a(v3_pci.pico)
                0x001c6bfc                v3_pci
 .data.rel.ro   0x001c6c34       0x50 libcrypto_pic.a(v3_pcia.pico)
 .data.rel.ro   0x001c6c84      0x150 libcrypto_pic.a(v3_ocsp.pico)
                0x001c6c84                v3_ocsp_crlid
                0x001c6cbc                v3_ocsp_acutoff
                0x001c6cf4                v3_crl_invdate
                0x001c6d2c                v3_crl_hold
                0x001c6d64                v3_ocsp_nocheck
                0x001c6d9c                v3_ocsp_serviceloc
 .data.rel.ro   0x001c6dd4      0x384 libcrypto_pic.a(ocsp_asn.pico)
 .data.rel.ro   0x001c7158       0x9c libcrypto_pic.a(v3_ncons.pico)
                0x001c7158                v3_name_constraints
 .data.rel.ro   0x001c71f4       0xa8 libcrypto_pic.a(v3_int.pico)
                0x001c71f4                v3_crl_num
                0x001c722c                v3_delta_crl
                0x001c7264                v3_inhibit_anyp
 .data.rel.ro   0x001c729c       0xac libcrypto_pic.a(v3_info.pico)
                0x001c729c                v3_info
                0x001c72d4                v3_sinfo
 .data.rel.ro   0x001c7348      0x1c0 libcrypto_pic.a(v3_ia5.pico)
                0x001c7348                v3_ns_ia5_list
 .data.rel.ro   0x001c7508       0x84 libcrypto_pic.a(v3_extku.pico)
                0x001c7508                v3_ext_ku
                0x001c7540                v3_ocsp_accresp
 .data.rel.ro   0x001c758c       0x38 libcrypto_pic.a(v3_enum.pico)
                0x001c758c                v3_crl_reason
 .data.rel.ro   0x001c75c4       0x70 libcrypto_pic.a(v3_bitst.pico)
                0x001c75c4                v3_nscert
                0x001c75fc                v3_key_usage
 .data.rel.ro   0x001c7634       0x60 libcrypto_pic.a(v3_bcons.pico)
                0x001c7634                v3_bcons
 .data.rel.ro   0x001c7694       0x38 libcrypto_pic.a(v3_akey.pico)
                0x001c7694                v3_akey_id
 .data.rel.ro   0x001c76cc      0x118 libcrypto_pic.a(v3_genn.pico)
 .data.rel.ro   0x001c77e4      0x198 libcrypto_pic.a(v3_crld.pico)
                0x001c77e4                v3_crld
                0x001c781c                v3_freshest_crl
                0x001c7944                v3_idp
 .data.rel.ro   0x001c797c       0xa8 libcrypto_pic.a(v3_alt.pico)
                0x001c797c                v3_alt
 .data.rel.ro   0x001c7a24      0x130 libcrypto_pic.a(v3_cpols.pico)
                0x001c7a24                v3_cpols
 .data.rel.ro   0x001c7b54       0x74 libcrypto_pic.a(v3_pmaps.pico)
                0x001c7b54                v3_policy_mappings
 .data.rel.ro   0x001c7bc8       0x64 libcrypto_pic.a(x_spki.pico)
 .data.rel.ro   0x001c7c2c       0x8c libcrypto_pic.a(x_req.pico)
 .data.rel.ro   0x001c7cb8      0x12c libcrypto_pic.a(rsa_asn1.pico)
 .data.rel.ro   0x001c7de4      0x3ec libcrypto_pic.a(pk7_asn1.pico)
 .data.rel.ro   0x001c81d0      0x204 libcrypto_pic.a(p12_asn.pico)
 .data.rel.ro   0x001c83d4       0x28 libcrypto_pic.a(x_sig.pico)
 .data.rel.ro   0x001c83fc       0x4c libcrypto_pic.a(m_md5.pico)
 .data.rel.ro   0x001c8448       0x28 libcrypto_pic.a(p5_pbe.pico)
 .data.rel.ro   0x001c8470      0x1a4 libcrypto_pic.a(evp_pbe.pico)
 .data.rel.ro   0x001c8614       0x28 libcrypto_pic.a(ecs_asn1.pico)
 .data.rel.ro   0x001c863c      0x280 libcrypto_pic.a(ec_asn1.pico)
 .data.rel.ro   0x001c88bc      0x154 libcrypto_pic.a(dsa_asn1.pico)
 .data.rel.ro   0x001c8a10       0x78 libcrypto_pic.a(p5_pbev2.pico)
 .data.rel.ro   0x001c8a88      0x990 libcrypto_pic.a(cms_asn1.pico)
 .data.rel.ro   0x001c9418      0x104 libcrypto_pic.a(x_crl.pico)
 .data.rel.ro   0x001c951c       0x28 libcrypto_pic.a(tasn_typ.pico)
 .data.rel.ro   0x001c9544      0x17c libcrypto_pic.a(m_sha1.pico)
 .data.rel.ro   0x001c96c0       0x3c libcrypto_pic.a(dh_asn1.pico)
 .data.rel.ro   0x001c96fc       0x50 libcrypto_pic.a(p8_pkey.pico)
 .data.rel.ro   0x001c974c       0x50 libcrypto_pic.a(x_attrib.pico)
 .data.rel.ro   0x001c979c       0x8c libcrypto_pic.a(x_x509a.pico)
 .data.rel.ro   0x001c9828      0x104 libcrypto_pic.a(x_x509.pico)
 .data.rel.ro   0x001c992c       0x6c libcrypto_pic.a(x_name.pico)
                0x001c997c                X509_NAME_it
 .data.rel.ro   0x001c9998       0x28 libcrypto_pic.a(x_pubkey.pico)
 .data.rel.ro   0x001c99c0       0x28 libcrypto_pic.a(x_val.pico)
 .data.rel.ro   0x001c99e8       0x3c libcrypto_pic.a(x_algor.pico)
 .data.rel.ro   0x001c9a24       0xd8 libcrypto_pic.a(v3_asid.pico)
                0x001c9ac4                v3_asid
 .data.rel.ro   0x001c9afc       0x3c libcrypto_pic.a(v3_akeya.pico)
 .data.rel.ro   0x001c9b38       0xec libcrypto_pic.a(v3_addr.pico)
                0x001c9bec                v3_addr
 .data.rel.ro   0x001c9c24       0x50 libcrypto_pic.a(x_exten.pico)
 .data.rel.ro   0x001c9c74       0x60 libcrypto_pic.a(v3_pcons.pico)
                0x001c9c74                v3_policy_constraints
 .data.rel.ro   0x001c9cd4       0x9c libcrypto_pic.a(ecp_nist.pico)
 .data.rel.ro   0x001c9d70       0x9c libcrypto_pic.a(ecp_mont.pico)
 .data.rel.ro   0x001c9e0c       0x9c libcrypto_pic.a(ecp_smpl.pico)
 .data.rel.ro   0x001c9ea8       0x9c libcrypto_pic.a(ec2_smpl.pico)

.dynamic        0x001c9f44       0xb8
 *(.dynamic)
 .dynamic       0x001c9f44       0xb8 /usr/lib/crti.o
                0x001c9f44                _DYNAMIC

.got            0x001c9ffc      0x6c4
 *(.got)
 .got           0x001c9ffc      0x6c4 /usr/lib/crti.o
 *(.igot)
                0x001ca6c0                . = DATA_SEGMENT_RELRO_END (., (SIZEOF (.got.plt) >= 0xc)?0xc:0x0)

.got.plt        0x001ca6c0     0x2010
 *(.got.plt)
 .got.plt       0x001ca6c0     0x2010 /usr/lib/crti.o
                0x001ca6c0                _GLOBAL_OFFSET_TABLE_
 *(.igot.plt)

.data           0x001cc6d0     0x7264
 *(.data .data.* .gnu.linkonce.d.*)
 .data          0x001cc6d0        0x0 /usr/lib/crti.o
 .data          0x001cc6d0        0x0 /usr/lib/crtbeginS.o
 .data.rel      0x001cc6d0       0x26 /usr/lib/crtbeginS.o
                0x001cc6d0                __dso_handle
 *fill*         0x001cc6f6        0x2 
 .data          0x001cc6f8        0x0 libcrypto_pic.a(rc5_enc_dummy.pico)
 .data          0x001cc6f8        0x0 libcrypto_pic.a(rc5_skey_dummy.pico)
 .data          0x001cc6f8        0x0 libcrypto_pic.a(mdc2_one.pico)
 .data          0x001cc6f8        0x0 libcrypto_pic.a(x509type.pico)
 .data          0x001cc6f8        0x0 libcrypto_pic.a(x509cset.pico)
 .data          0x001cc6f8        0x0 libcrypto_pic.a(x509spki.pico)
 .data          0x001cc6f8        0x0 libcrypto_pic.a(x509_r2x.pico)
 .data          0x001cc6f8        0x0 libcrypto_pic.a(x509_d2.pico)
 .data          0x001cc6f8        0x0 libcrypto_pic.a(ts_conf.pico)
 .data          0x001cc6f8        0x0 libcrypto_pic.a(ts_verify_ctx.pico)
 .data          0x001cc6f8        0x0 libcrypto_pic.a(ts_rsp_verify.pico)
 .data          0x001cc6f8        0x0 libcrypto_pic.a(ts_rsp_sign.pico)
 .data          0x001cc6f8        0x0 libcrypto_pic.a(ts_rsp_print.pico)
 .data.rel.local
                0x001cc6f8       0x48 libcrypto_pic.a(ts_rsp_print.pico)
 .data          0x001cc740        0x0 libcrypto_pic.a(ts_rsp_utils.pico)
 .data          0x001cc740        0x0 libcrypto_pic.a(ts_req_print.pico)
 .data          0x001cc740        0x0 libcrypto_pic.a(str_meth.pico)
 .data          0x001cc740        0x0 libcrypto_pic.a(str_mem.pico)
 .data.rel.local
                0x001cc740       0x44 libcrypto_pic.a(str_mem.pico)
 .data          0x001cc784        0x0 libcrypto_pic.a(str_lib.pico)
 .data          0x001cc784        0x0 libcrypto_pic.a(str_err.pico)
 .data.rel.local
                0x001cc784      0x3c0 libcrypto_pic.a(str_err.pico)
 .data          0x001ccb44       0x41 libcrypto_pic.a(srp_vfy.pico)
 *fill*         0x001ccb85        0x3 
 .data          0x001ccb88      0xccc libcrypto_pic.a(srp_lib.pico)
 .data.rel.local
                0x001cd854      0x11c libcrypto_pic.a(srp_lib.pico)
 .data          0x001cd970        0x0 libcrypto_pic.a(libc-sha256.pico)
 .data          0x001cd970        0x0 libcrypto_pic.a(libc-sha512.pico)
 .data          0x001cd970        0x0 libcrypto_pic.a(sha1_one.pico)
 .data          0x001cd970        0x0 libcrypto_pic.a(sha_one.pico)
 .data          0x001cd970        0x0 libcrypto_pic.a(rsa_prn.pico)
 .data          0x001cd970        0x0 libcrypto_pic.a(rsa_depr.pico)
 .data          0x001cd970        0x0 libcrypto_pic.a(rsa_null.pico)
 .data.rel.local
                0x001cd970       0x38 libcrypto_pic.a(rsa_null.pico)
 .data          0x001cd9a8        0x0 libcrypto_pic.a(rsa_chk.pico)
 .data          0x001cd9a8        0x0 libcrypto_pic.a(rmd_one.pico)
 .data          0x001cd9a8        0x0 libcrypto_pic.a(rand_os2.pico)
 .data          0x001cd9a8        0x0 libcrypto_pic.a(rand_win.pico)
 .data          0x001cd9a8        0x0 libcrypto_pic.a(randfile.pico)
 .data          0x001cd9a8        0x0 libcrypto_pic.a(pqueue.pico)
 .data          0x001cd9a8        0x0 libcrypto_pic.a(pk7_mime.pico)
 .data          0x001cd9a8        0x0 libcrypto_pic.a(pk7_smime.pico)
 .data          0x001cd9a8        0x0 libcrypto_pic.a(p12_npas.pico)
 .data          0x001cd9a8        0x0 libcrypto_pic.a(p12_kiss.pico)
 .data          0x001cd9a8        0x0 libcrypto_pic.a(p12_crt.pico)
 .data          0x001cd9a8        0x0 libcrypto_pic.a(p12_attr.pico)
 .data          0x001cd9a8        0x0 libcrypto_pic.a(pvkfmt.pico)
 .data          0x001cd9a8        0x0 libcrypto_pic.a(pem_seal.pico)
 .data          0x001cd9a8        0x0 libcrypto_pic.a(pem_sign.pico)
 .data          0x001cd9a8        0x0 libcrypto_pic.a(ocsp_vfy.pico)
 .data          0x001cd9a8        0x0 libcrypto_pic.a(ocsp_prn.pico)
 .data          0x001cd9a8        0x0 libcrypto_pic.a(ocsp_srv.pico)
 .data          0x001cd9a8        0x0 libcrypto_pic.a(ocsp_cl.pico)
 .data          0x001cd9a8        0x0 libcrypto_pic.a(ocsp_lib.pico)
 .data          0x001cd9a8        0x0 libcrypto_pic.a(ocsp_ht.pico)
 .data          0x001cd9a8        0x0 libcrypto_pic.a(ocsp_ext.pico)
 .data          0x001cd9a8        0x0 libcrypto_pic.a(md5_one.pico)
 .data          0x001cd9a8        0x0 libcrypto_pic.a(md4_one.pico)
 .data          0x001cd9a8        0x0 libcrypto_pic.a(md2_one.pico)
 .data          0x001cd9a8        0x0 libcrypto_pic.a(cmll_ctr.pico)
 .data          0x001cd9a8        0x0 libcrypto_pic.a(cts128.pico)
 .data          0x001cd9a8        0x0 libcrypto_pic.a(lh_stats.pico)
 .data          0x001cd9a8        0x0 libcrypto_pic.a(krb5_asn.pico)
 .data          0x001cd9a8        0x0 libcrypto_pic.a(evp_fips.pico)
 .data          0x001cd9a8        0x0 libcrypto_pic.a(bio_ok.pico)
 .data.rel.local
                0x001cd9a8       0x28 libcrypto_pic.a(bio_ok.pico)
 .data          0x001cd9d0        0x0 libcrypto_pic.a(e_null.pico)
 .data          0x001cd9d0        0x0 libcrypto_pic.a(p_seal.pico)
 .data          0x001cd9d0        0x0 libcrypto_pic.a(p_open.pico)
 .data          0x001cd9d0        0x0 libcrypto_pic.a(m_md2.pico)
 .data          0x001cd9d0        0x0 libcrypto_pic.a(m_null.pico)
 .data          0x001cd9d0        0x0 libcrypto_pic.a(evp_acnf.pico)
 .data          0x001cd9d0        0x0 libcrypto_pic.a(err_all.pico)
 .data          0x001cd9d0        0x0 libcrypto_pic.a(e_ubsec_err.pico)
 .data          0x001cd9d0        0x0 libcrypto_pic.a(e_sureware_err.pico)
 .data          0x001cd9d0        0x0 libcrypto_pic.a(e_nuron_err.pico)
 .data          0x001cd9d0        0x0 libcrypto_pic.a(e_gmp_err.pico)
 .data          0x001cd9d0        0x0 libcrypto_pic.a(e_gmp.pico)
 .data          0x001cd9d0        0x0 libcrypto_pic.a(e_cswift_err.pico)
 .data          0x001cd9d0        0x0 libcrypto_pic.a(e_chil_err.pico)
 .data          0x001cd9d0        0x0 libcrypto_pic.a(e_atalla_err.pico)
 .data          0x001cd9d0        0x0 libcrypto_pic.a(e_aep_err.pico)
 .data          0x001cd9d0        0x0 libcrypto_pic.a(e_4758cca_err.pico)
 .data          0x001cd9d0        0x0 libcrypto_pic.a(tb_store.pico)
 .data          0x001cd9d0        0x0 libcrypto_pic.a(eng_cryptodev.pico)
 .data          0x001cd9d0        0xc libcrypto_pic.a(eng_openssl.pico)
 .data          0x001cd9dc        0x0 libcrypto_pic.a(eng_err.pico)
 .data.rel.local
                0x001cd9dc      0x290 libcrypto_pic.a(eng_err.pico)
 .data          0x001cdc6c        0x0 libcrypto_pic.a(ecs_err.pico)
 .data.rel.local
                0x001cdc6c       0x78 libcrypto_pic.a(ecs_err.pico)
 .data          0x001cdce4        0x0 libcrypto_pic.a(ech_err.pico)
 .data.rel.local
                0x001cdce4       0x48 libcrypto_pic.a(ech_err.pico)
 .data          0x001cdd2c        0x0 libcrypto_pic.a(ec_check.pico)
 .data          0x001cdd2c        0x0 libcrypto_pic.a(ec_err.pico)
 .data.rel.local
                0x001cdd2c      0x5c8 libcrypto_pic.a(ec_err.pico)
 .data          0x001ce2f4        0x0 libcrypto_pic.a(dso_vms.pico)
 .data          0x001ce2f4        0x0 libcrypto_pic.a(dso_win32.pico)
 .data          0x001ce2f4        0x0 libcrypto_pic.a(dso_null.pico)
 .data.rel.local
                0x001ce2f4       0x30 libcrypto_pic.a(dso_null.pico)
 .data          0x001ce324        0x0 libcrypto_pic.a(dso_err.pico)
 .data.rel.local
                0x001ce324      0x220 libcrypto_pic.a(dso_err.pico)
 .data          0x001ce544        0x0 libcrypto_pic.a(dso_dl.pico)
 .data          0x001ce544        0x0 libcrypto_pic.a(dsa_prn.pico)
 .data          0x001ce544        0x0 libcrypto_pic.a(dsa_depr.pico)
 .data          0x001ce544        0x0 libcrypto_pic.a(dsa_err.pico)
 .data.rel.local
                0x001ce544      0x138 libcrypto_pic.a(dsa_err.pico)
 .data          0x001ce67c        0x0 libcrypto_pic.a(dh_prn.pico)
 .data          0x001ce67c        0x0 libcrypto_pic.a(dh_depr.pico)
 .data          0x001ce67c        0x0 libcrypto_pic.a(dh_err.pico)
 .data.rel.local
                0x001ce67c       0xf8 libcrypto_pic.a(dh_err.pico)
 .data          0x001ce774        0x0 libcrypto_pic.a(read2pwd.pico)
 .data          0x001ce774        0x0 libcrypto_pic.a(ede_cbcm_enc.pico)
 .data          0x001ce774        0x0 libcrypto_pic.a(str2key.pico)
 .data          0x001ce774        0x0 libcrypto_pic.a(rpc_enc.pico)
 .data          0x001ce774        0x0 libcrypto_pic.a(rand_key.pico)
 .data          0x001ce774        0x0 libcrypto_pic.a(qud_cksm.pico)
 .data          0x001ce774        0x0 libcrypto_pic.a(ofb_enc.pico)
 .data          0x001ce774        0x0 libcrypto_pic.a(fcrypt.pico)
 .data          0x001ce774        0x0 libcrypto_pic.a(enc_writ.pico)
 .data          0x001ce774        0x4 libcrypto_pic.a(enc_read.pico)
                0x001ce774                _shadow_DES_rw_mode
 .data          0x001ce778        0x0 libcrypto_pic.a(cbc_enc.pico)
 .data          0x001ce778        0x0 libcrypto_pic.a(cbc_cksm.pico)
 .data          0x001ce778        0x0 libcrypto_pic.a(crypt586.pico)
 .data          0x001ce778        0x0 libcrypto_pic.a(o_fips.pico)
 .data          0x001ce778        0x0 libcrypto_pic.a(o_dir.pico)
 .data          0x001ce778        0x0 libcrypto_pic.a(o_str.pico)
 .data          0x001ce778        0x0 libcrypto_pic.a(uid.pico)
 .data          0x001ce778        0x0 libcrypto_pic.a(ebcdic.pico)
 .data          0x001ce778        0x0 libcrypto_pic.a(cpt_err.pico)
 .data.rel.local
                0x001ce778       0x70 libcrypto_pic.a(cpt_err.pico)
 .data          0x001ce7e8        0x0 libcrypto_pic.a(cversion.pico)
 .data          0x001ce7e8        0x0 libcrypto_pic.a(conf_sap.pico)
 .data          0x001ce7e8        0x0 libcrypto_pic.a(conf_mall.pico)
 .data          0x001ce7e8        0x0 libcrypto_pic.a(conf_err.pico)
 .data.rel.local
                0x001ce7e8      0x140 libcrypto_pic.a(conf_err.pico)
 .data          0x001ce928        0x0 libcrypto_pic.a(c_zlib.pico)
 .data.rel.local
                0x001ce928       0x20 libcrypto_pic.a(c_zlib.pico)
 .data          0x001ce948        0x0 libcrypto_pic.a(c_rle.pico)
 .data.rel.local
                0x001ce948       0x20 libcrypto_pic.a(c_rle.pico)
 .data          0x001ce968        0x0 libcrypto_pic.a(comp_err.pico)
 .data.rel.local
                0x001ce968       0x48 libcrypto_pic.a(comp_err.pico)
 .data          0x001ce9b0        0x0 libcrypto_pic.a(comp_lib.pico)
 .data          0x001ce9b0        0x0 libcrypto_pic.a(cms_cd.pico)
 .data          0x001ce9b0        0x0 libcrypto_pic.a(cms_err.pico)
 .data.rel.local
                0x001ce9b0      0x4d0 libcrypto_pic.a(cms_err.pico)
 .data          0x001cee80        0x0 libcrypto_pic.a(cms_smime.pico)
 .data          0x001cee80        0x0 libcrypto_pic.a(buf_err.pico)
 .data.rel.local
                0x001cee80       0x38 libcrypto_pic.a(buf_err.pico)
 .data          0x001ceeb8        0x0 libcrypto_pic.a(bn_x931p.pico)
 .data          0x001ceeb8        0x0 libcrypto_pic.a(bn_const.pico)
 .data          0x001ceeb8        0x0 libcrypto_pic.a(bn_depr.pico)
 .data          0x001ceeb8        0x0 libcrypto_pic.a(bn_mpi.pico)
 .data          0x001ceeb8        0x0 libcrypto_pic.a(bn_err.pico)
 .data.rel.local
                0x001ceeb8      0x1f8 libcrypto_pic.a(bn_err.pico)
 .data          0x001cf0b0        0x0 libcrypto_pic.a(bss_dgram.pico)
 .data.rel.local
                0x001cf0b0       0x28 libcrypto_pic.a(bss_dgram.pico)
 .data          0x001cf0d8        0x0 libcrypto_pic.a(bss_bio.pico)
 .data.rel.local
                0x001cf0d8       0x28 libcrypto_pic.a(bss_bio.pico)
 .data          0x001cf100        0x0 libcrypto_pic.a(bss_log.pico)
 .data.rel.local
                0x001cf100       0x28 libcrypto_pic.a(bss_log.pico)
 .data          0x001cf128        0x0 libcrypto_pic.a(bf_nbio.pico)
 .data.rel.local
                0x001cf128       0x28 libcrypto_pic.a(bf_nbio.pico)
 .data          0x001cf150        0x0 libcrypto_pic.a(bss_acpt.pico)
 .data.rel.local
                0x001cf150       0x28 libcrypto_pic.a(bss_acpt.pico)
 .data          0x001cf178        0x0 libcrypto_pic.a(bf_null.pico)
 .data.rel.local
                0x001cf178       0x28 libcrypto_pic.a(bf_null.pico)
 .data          0x001cf1a0        0x0 libcrypto_pic.a(bss_conn.pico)
 .data.rel.local
                0x001cf1a0       0x28 libcrypto_pic.a(bss_conn.pico)
 .data          0x001cf1c8        0x0 libcrypto_pic.a(bss_fd.pico)
 .data.rel.local
                0x001cf1c8       0x28 libcrypto_pic.a(bss_fd.pico)
 .data          0x001cf1f0        0x0 libcrypto_pic.a(bio_err.pico)
 .data.rel.local
                0x001cf1f0      0x208 libcrypto_pic.a(bio_err.pico)
 .data          0x001cf3f8        0x0 libcrypto_pic.a(bio_cb.pico)
 .data          0x001cf3f8        0x0 libcrypto_pic.a(x_nx509.pico)
 .data          0x001cf3f8        0x0 libcrypto_pic.a(asn_moid.pico)
 .data          0x001cf3f8        0x0 libcrypto_pic.a(asn1_err.pico)
 .data.rel.local
                0x001cf3f8      0x798 libcrypto_pic.a(asn1_err.pico)
 .data          0x001cfb90        0x0 libcrypto_pic.a(f_enum.pico)
 .data          0x001cfb90        0x0 libcrypto_pic.a(n_pkey.pico)
 .data          0x001cfb90        0x0 libcrypto_pic.a(t_bitst.pico)
 .data          0x001cfb90        0x0 libcrypto_pic.a(t_spki.pico)
 .data          0x001cfb90        0x0 libcrypto_pic.a(t_crl.pico)
 .data          0x001cfb90        0x0 libcrypto_pic.a(t_req.pico)
 .data          0x001cfb90        0x0 libcrypto_pic.a(i2d_pu.pico)
 .data          0x001cfb90        0x0 libcrypto_pic.a(d2i_pu.pico)
 .data          0x001cfb90        0x0 libcrypto_pic.a(aes_ecb.pico)
 .data          0x001cfb90        0x0 libcrypto_pic.a(aes_ige.pico)
 .data          0x001cfb90        0x0 libcrypto_pic.a(aes_ctr.pico)
 .data          0x001cfb90        0x0 libcrypto_pic.a(aes_ofb.pico)
 .data          0x001cfb90        0x0 libcrypto_pic.a(aes_cfb.pico)
 .data          0x001cfb90        0x0 libcrypto_pic.a(v3err.pico)
 .data.rel.local
                0x001cfb90      0x438 libcrypto_pic.a(v3err.pico)
 .data          0x001cffc8        0x0 libcrypto_pic.a(by_dir.pico)
 .data.rel.local
                0x001cffc8       0x28 libcrypto_pic.a(by_dir.pico)
                0x001cffc8                x509_dir_lookup
 .data          0x001cfff0        0x0 libcrypto_pic.a(by_file.pico)
 .data.rel.local
                0x001cfff0       0x28 libcrypto_pic.a(by_file.pico)
                0x001cfff0                x509_file_lookup
 .data          0x001d0018        0x0 libcrypto_pic.a(x509_txt.pico)
 .data          0x001d0018        0x0 libcrypto_pic.a(x509_err.pico)
 .data.rel.local
                0x001d0018      0x248 libcrypto_pic.a(x509_err.pico)
 .data          0x001d0260        0x0 libcrypto_pic.a(x509_set.pico)
 .data          0x001d0260        0x0 libcrypto_pic.a(ui_util.pico)
 .data          0x001d0260        0x0 libcrypto_pic.a(ui_err.pico)
 .data.rel.local
                0x001d0260       0xa8 libcrypto_pic.a(ui_err.pico)
 .data          0x001d0308        0x0 libcrypto_pic.a(ts_lib.pico)
 .data          0x001d0308        0x0 libcrypto_pic.a(ts_req_utils.pico)
 .data          0x001d0308        0x0 libcrypto_pic.a(ts_err.pico)
 .data.rel.local
                0x001d0308      0x2c0 libcrypto_pic.a(ts_err.pico)
 .data          0x001d05c8        0x0 libcrypto_pic.a(txt_db.pico)
 .data          0x001d05c8        0x0 libcrypto_pic.a(rsa_err.pico)
 .data.rel.local
                0x001d05c8      0x3b8 libcrypto_pic.a(rsa_err.pico)
 .data          0x001d0980        0x0 libcrypto_pic.a(rand_err.pico)
 .data.rel.local
                0x001d0980       0x50 libcrypto_pic.a(rand_err.pico)
 .data          0x001d09d0        0x0 libcrypto_pic.a(pkcs7err.pico)
 .data.rel.local
                0x001d09d0      0x308 libcrypto_pic.a(pkcs7err.pico)
 .data          0x001d0cd8        0x0 libcrypto_pic.a(pk12err.pico)
 .data.rel.local
                0x001d0cd8      0x1a8 libcrypto_pic.a(pk12err.pico)
 .data          0x001d0e80        0x0 libcrypto_pic.a(p12_mutl.pico)
 .data          0x001d0e80        0x0 libcrypto_pic.a(p12_init.pico)
 .data          0x001d0e80        0x0 libcrypto_pic.a(pem_xaux.pico)
 .data          0x001d0e80        0x0 libcrypto_pic.a(pem_err.pico)
 .data.rel.local
                0x001d0e80      0x230 libcrypto_pic.a(pem_err.pico)
 .data          0x001d10b0        0x0 libcrypto_pic.a(pem_info.pico)
 .data          0x001d10b0        0x0 libcrypto_pic.a(ocsp_err.pico)
 .data.rel.local
                0x001d10b0      0x198 libcrypto_pic.a(ocsp_err.pico)
 .data          0x001d1248        0x0 libcrypto_pic.a(obj_err.pico)
 .data.rel.local
                0x001d1248       0x58 libcrypto_pic.a(obj_err.pico)
 .data          0x001d12a0        0x0 libcrypto_pic.a(md2_dgst.pico)
 .data          0x001d12a0        0x0 libcrypto_pic.a(c_all.pico)
 .data          0x001d12a0        0x0 libcrypto_pic.a(evp_err.pico)
 .data.rel.local
                0x001d12a0      0x4a8 libcrypto_pic.a(evp_err.pico)
 .data          0x001d1748        0x0 libcrypto_pic.a(evp_cnf.pico)
 .data          0x001d1748        0x0 libcrypto_pic.a(p_dec.pico)
 .data          0x001d1748        0x0 libcrypto_pic.a(p_enc.pico)
 .data          0x001d1748        0x0 libcrypto_pic.a(eng_cnf.pico)
 .data          0x001d1748        0x0 libcrypto_pic.a(eng_all.pico)
 .data          0x001d1748        0x0 libcrypto_pic.a(eng_fat.pico)
 .data          0x001d1748        0x0 libcrypto_pic.a(pcbc_enc.pico)
 .data          0x001d1748        0x0 libcrypto_pic.a(cms_ess.pico)
 .data          0x001d1748        0x0 libcrypto_pic.a(b_sock.pico)
 .data          0x001d1748        0x0 libcrypto_pic.a(bss_sock.pico)
 .data.rel.local
                0x001d1748       0x28 libcrypto_pic.a(bss_sock.pico)
 .data          0x001d1770        0x0 libcrypto_pic.a(x_info.pico)
 .data          0x001d1770        0x0 libcrypto_pic.a(ts_asn1.pico)
 .data          0x001d1770        0x0 libcrypto_pic.a(pem_x509.pico)
 .data          0x001d1770        0x0 libcrypto_pic.a(pem_all.pico)
 .data          0x001d1770        0x0 libcrypto_pic.a(c_alld.pico)
 .data          0x001d1770        0x0 libcrypto_pic.a(c_allc.pico)
 .data          0x001d1770        0x0 libcrypto_pic.a(m_ripemd.pico)
 .data          0x001d1770        0x0 libcrypto_pic.a(m_mdc2.pico)
 .data          0x001d1770        0x0 libcrypto_pic.a(m_dss1.pico)
 .data          0x001d1770        0x0 libcrypto_pic.a(m_dss.pico)
 .data          0x001d1770        0x0 libcrypto_pic.a(m_sha.pico)
 .data          0x001d1770        0x0 libcrypto_pic.a(m_md4.pico)
 .data          0x001d1770        0x0 libcrypto_pic.a(e_rc5.pico)
 .data          0x001d1770        0x0 libcrypto_pic.a(e_cast.pico)
 .data          0x001d1770        0x0 libcrypto_pic.a(e_rc2.pico)
 .data          0x001d1770        0x0 libcrypto_pic.a(e_xcbc_d.pico)
 .data          0x001d1770        0x0 libcrypto_pic.a(e_camellia.pico)
 .data          0x001d1770        0x0 libcrypto_pic.a(e_aes.pico)
 .data          0x001d1770        0x0 libcrypto_pic.a(e_rc4.pico)
 .data          0x001d1770        0x0 libcrypto_pic.a(e_des3.pico)
 .data          0x001d1770        0x0 libcrypto_pic.a(e_idea.pico)
 .data          0x001d1770        0x0 libcrypto_pic.a(e_bf.pico)
 .data          0x001d1770        0x0 libcrypto_pic.a(e_des.pico)
 .data          0x001d1770       0x28 libcrypto_pic.a(gost_eng.pico)
 .data          0x001d1798        0x0 libcrypto_pic.a(e_seed.pico)
 .data          0x001d1798       0x30 libcrypto_pic.a(e_padlock.pico)
 .data.rel.local
                0x001d17c8       0x18 libcrypto_pic.a(e_padlock.pico)
 .data          0x001d17e0        0x4 libcrypto_pic.a(e_ubsec.pico)
 .data.rel.local
                0x001d17e4      0x154 libcrypto_pic.a(e_ubsec.pico)
 .data          0x001d1938        0x8 libcrypto_pic.a(e_sureware.pico)
 .data.rel.local
                0x001d1940      0x174 libcrypto_pic.a(e_sureware.pico)
 .data          0x001d1ab4        0x0 libcrypto_pic.a(e_nuron.pico)
 .data.rel.local
                0x001d1ab4       0xfc libcrypto_pic.a(e_nuron.pico)
 .data          0x001d1bb0        0x0 libcrypto_pic.a(e_cswift.pico)
 .data.rel.local
                0x001d1bb0      0x154 libcrypto_pic.a(e_cswift.pico)
 .data          0x001d1d04        0x4 libcrypto_pic.a(e_chil.pico)
 .data.rel.local
                0x001d1d08      0x1a8 libcrypto_pic.a(e_chil.pico)
 .data          0x001d1eb0        0x0 libcrypto_pic.a(e_atalla.pico)
 .data.rel.local
                0x001d1eb0      0x114 libcrypto_pic.a(e_atalla.pico)
 .data          0x001d1fc4        0x0 libcrypto_pic.a(e_aep.pico)
 .data.rel.local
                0x001d1fc4      0x164 libcrypto_pic.a(e_aep.pico)
 .data          0x001d2128        0x4 libcrypto_pic.a(e_4758cca.pico)
 .data.rel.local
                0x001d212c       0xe8 libcrypto_pic.a(e_4758cca.pico)
 .data          0x001d2214        0x0 libcrypto_pic.a(eng_rsax.pico)
 .data          0x001d2214        0x0 libcrypto_pic.a(eng_rdrand.pico)
 .data.rel.local
                0x001d2214       0x18 libcrypto_pic.a(eng_rdrand.pico)
 .data          0x001d222c        0x4 libcrypto_pic.a(eng_dyn.pico)
 .data          0x001d2230        0x0 libcrypto_pic.a(eng_pkey.pico)
 .data          0x001d2230        0x0 libcrypto_pic.a(ofb64ede.pico)
 .data          0x001d2230        0x0 libcrypto_pic.a(cfb64ede.pico)
 .data          0x001d2230        0x0 libcrypto_pic.a(xcbc_enc.pico)
 .data          0x001d2230        0x0 libcrypto_pic.a(ofb64enc.pico)
 .data          0x001d2230        0x0 libcrypto_pic.a(ecb_enc.pico)
 .data          0x001d2230        0x0 libcrypto_pic.a(ecb3_enc.pico)
 .data          0x001d2230        0x0 libcrypto_pic.a(cfb_enc.pico)
 .data          0x001d2230        0x0 libcrypto_pic.a(cfb64enc.pico)
 .data          0x001d2230        0x0 libcrypto_pic.a(c_ofb64.pico)
 .data          0x001d2230        0x0 libcrypto_pic.a(c_cfb64.pico)
 .data          0x001d2230        0x0 libcrypto_pic.a(c_ecb.pico)
 .data          0x001d2230        0x0 libcrypto_pic.a(c_enc.pico)
 .data          0x001d2230        0x0 libcrypto_pic.a(bf_ofb64.pico)
 .data          0x001d2230        0x0 libcrypto_pic.a(bf_cfb64.pico)
 .data          0x001d2230        0x0 libcrypto_pic.a(bf_ecb.pico)
 .data          0x001d2230        0x0 libcrypto_pic.a(bf_skey.pico)
 .data          0x001d2230        0x0 libcrypto_pic.a(bf-586.pico)
 .data          0x001d2230        0x0 libcrypto_pic.a(x_pkey.pico)
 .data          0x001d2230        0x0 libcrypto_pic.a(nsseq.pico)
 .data          0x001d2230        0x0 libcrypto_pic.a(aesni-x86.pico)
 .data          0x001d2230        0x0 libcrypto_pic.a(rc5ofb64.pico)
 .data          0x001d2230        0x0 libcrypto_pic.a(rc5cfb64.pico)
 .data          0x001d2230        0x0 libcrypto_pic.a(rc5_ecb.pico)
 .data          0x001d2230        0x0 libcrypto_pic.a(seed_ofb.pico)
 .data          0x001d2230        0x0 libcrypto_pic.a(seed_cfb.pico)
 .data          0x001d2230        0x0 libcrypto_pic.a(seed_cbc.pico)
 .data          0x001d2230        0x0 libcrypto_pic.a(seed_ecb.pico)
 .data          0x001d2230        0x0 libcrypto_pic.a(seed.pico)
 .data          0x001d2230        0x0 libcrypto_pic.a(mdc2dgst.pico)
 .data          0x001d2230        0x0 libcrypto_pic.a(i_skey.pico)
 .data          0x001d2230        0x0 libcrypto_pic.a(i_ecb.pico)
 .data          0x001d2230        0x0 libcrypto_pic.a(i_ofb64.pico)
 .data          0x001d2230        0x0 libcrypto_pic.a(i_cfb64.pico)
 .data          0x001d2230        0x0 libcrypto_pic.a(sha_dgst.pico)
 .data          0x001d2230        0x0 libcrypto_pic.a(rmd_dgst.pico)
 .data          0x001d2230        0x0 libcrypto_pic.a(rc2ofb64.pico)
 .data          0x001d2230        0x0 libcrypto_pic.a(rc2cfb64.pico)
 .data          0x001d2230        0x0 libcrypto_pic.a(rc2_skey.pico)
 .data          0x001d2230        0x0 libcrypto_pic.a(rc2_ecb.pico)
 .data          0x001d2230        0x0 libcrypto_pic.a(pem_pkey.pico)
 .data          0x001d2230        0x0 libcrypto_pic.a(pem_pk8.pico)
 .data          0x001d2230        0x0 libcrypto_pic.a(md4_dgst.pico)
 .data          0x001d2230        0x0 libcrypto_pic.a(cmll_utl.pico)
 .data          0x001d2230        0x0 libcrypto_pic.a(cmll_ofb.pico)
 .data          0x001d2230        0x0 libcrypto_pic.a(cmll_cfb.pico)
 .data          0x001d2230        0x0 libcrypto_pic.a(cmll_ecb.pico)
 .data          0x001d2230        0x0 libcrypto_pic.a(cmll_cbc.pico)
 .data          0x001d2230        0x0 libcrypto_pic.a(xts128.pico)
 .data          0x001d2230        0x0 libcrypto_pic.a(ccm128.pico)
 .data          0x001d2230        0x0 libcrypto_pic.a(gcm128.pico)
 .data          0x001d2230        0x0 libcrypto_pic.a(ofb128.pico)
 .data          0x001d2230        0x0 libcrypto_pic.a(cfb128.pico)
 .data          0x001d2230        0x0 libcrypto_pic.a(ctr128.pico)
 .data          0x001d2230        0x0 libcrypto_pic.a(cbc128.pico)
 .data          0x001d2230        0x0 libcrypto_pic.a(ghash-x86.pico)
 .data          0x001d2230        0x0 libcrypto_pic.a(e_rc4_hmac_md5.pico)
 .data.rel.local
                0x001d2230       0x34 libcrypto_pic.a(e_rc4_hmac_md5.pico)
 .data          0x001d2264        0x0 libcrypto_pic.a(e_aes_cbc_hmac_sha1.pico)
 .data          0x001d2264        0x0 libcrypto_pic.a(m_wp.pico)
 .data          0x001d2264        0x0 libcrypto_pic.a(m_ecdsa.pico)
 .data          0x001d2264        0x0 libcrypto_pic.a(gost_pmeth.pico)
 .data          0x001d2264        0x0 libcrypto_pic.a(gost_md.pico)
 .data.rel.local
                0x001d2264       0x4c libcrypto_pic.a(gost_md.pico)
                0x001d2264                digest_gost
 .data          0x001d22b0        0x0 libcrypto_pic.a(gost94_keyx.pico)
 .data          0x001d22b0        0x0 libcrypto_pic.a(gost2001_keyx.pico)
 .data          0x001d22b0        0x0 libcrypto_pic.a(set_key.pico)
 .data          0x001d22b0        0x0 libcrypto_pic.a(des-586.pico)
 .data          0x001d22b0        0x0 libcrypto_pic.a(c_skey.pico)
 .data          0x001d22b0        0x0 libcrypto_pic.a(wp_dgst.pico)
 .data          0x001d22b0        0x0 libcrypto_pic.a(wp_block.pico)
 .data          0x001d22b0        0x0 libcrypto_pic.a(i_cbc.pico)
 .data          0x001d22b0        0x0 libcrypto_pic.a(rc4_utl.pico)
 .data          0x001d22b0        0x0 libcrypto_pic.a(rc4-586.pico)
 .data          0x001d22b0        0x0 libcrypto_pic.a(rc2_cbc.pico)
 .data          0x001d22b0        0x0 libcrypto_pic.a(cmll_misc.pico)
 .data          0x001d22b0        0x0 libcrypto_pic.a(camellia.pico)
 .data          0x001d22b0        0x0 libcrypto_pic.a(gost_keywrap.pico)
 .data          0x001d22b0        0x0 libcrypto_pic.a(gosthash.pico)
 .data          0x001d22b0        0x0 libcrypto_pic.a(gost_crypt.pico)
 .data.rel.local
                0x001d22b0       0xb4 libcrypto_pic.a(gost_crypt.pico)
                0x001d22b0                cipher_gost
                0x001d22e4                cipher_gost_cpacnt
                0x001d2318                imit_gost_cpa
 .data.rel      0x001d2364       0x54 libcrypto_pic.a(gost_crypt.pico)
                0x001d2364                gost_cipher_list
 .data          0x001d23b8        0x0 libcrypto_pic.a(gost_ameth.pico)
 .data          0x001d23b8      0x380 libcrypto_pic.a(gost89.pico)
                0x001d23b8                GostR3411_94_TestParamSet
                0x001d2438                GostR3411_94_CryptoProParamSet
                0x001d24b8                Gost28147_TestParamSet
                0x001d2538                Gost28147_CryptoProParamSetA
                0x001d25b8                Gost28147_CryptoProParamSetB
                0x001d2638                Gost28147_CryptoProParamSetC
                0x001d26b8                Gost28147_CryptoProParamSetD
 .data          0x001d2738        0x0 libcrypto_pic.a(gost2001.pico)
 .data          0x001d2738        0x0 libcrypto_pic.a(gost_sign.pico)
 .data          0x001d2738        0x0 libcrypto_pic.a(gost_params.pico)
 .data.rel.local
                0x001d2738      0x160 libcrypto_pic.a(gost_params.pico)
                0x001d2738                R3410_paramset
                0x001d27b8                R3410_2001_paramset
 .data          0x001d2898        0x0 libcrypto_pic.a(gost_ctl.pico)
 .data          0x001d2898        0x0 libcrypto_pic.a(gost_asn1.pico)
 .data          0x001d2898        0x0 libcrypto_pic.a(e_gost_err.pico)
 .data.rel.local
                0x001d2898      0x278 libcrypto_pic.a(e_gost_err.pico)
 .data          0x001d2b10        0x0 libcrypto_pic.a(v3_utl.pico)
 .data          0x001d2b10        0x0 libcrypto_pic.a(v3_sxnet.pico)
 .data          0x001d2b10        0x0 libcrypto_pic.a(v3_skey.pico)
 .data          0x001d2b10        0x0 libcrypto_pic.a(v3_purp.pico)
 .data.rel.local
                0x001d2b10       0xfc libcrypto_pic.a(v3_purp.pico)
 .data          0x001d2c0c        0x0 libcrypto_pic.a(v3_prn.pico)
 .data          0x001d2c0c        0x0 libcrypto_pic.a(v3_pku.pico)
 .data          0x001d2c0c        0x0 libcrypto_pic.a(v3_pci.pico)
 .data          0x001d2c0c        0x0 libcrypto_pic.a(v3_pcia.pico)
 .data          0x001d2c0c        0x0 libcrypto_pic.a(v3_ocsp.pico)
 .data          0x001d2c0c        0x0 libcrypto_pic.a(ocsp_asn.pico)
 .data          0x001d2c0c        0x0 libcrypto_pic.a(f_string.pico)
 .data          0x001d2c0c        0x0 libcrypto_pic.a(v3_ncons.pico)
 .data          0x001d2c0c        0x0 libcrypto_pic.a(v3_lib.pico)
 .data.rel      0x001d2c0c       0xa8 libcrypto_pic.a(v3_lib.pico)
 .data          0x001d2cb4        0x0 libcrypto_pic.a(v3_int.pico)
 .data          0x001d2cb4        0x0 libcrypto_pic.a(v3_info.pico)
 .data          0x001d2cb4        0x0 libcrypto_pic.a(v3_ia5.pico)
 .data          0x001d2cb4        0x0 libcrypto_pic.a(v3_extku.pico)
 .data          0x001d2cb4        0x0 libcrypto_pic.a(v3_enum.pico)
 .data.rel.local
                0x001d2cb4       0x84 libcrypto_pic.a(v3_enum.pico)
 .data          0x001d2d38        0x0 libcrypto_pic.a(v3_bitst.pico)
 .data.rel.local
                0x001d2d38       0xe4 libcrypto_pic.a(v3_bitst.pico)
 .data          0x001d2e1c        0x0 libcrypto_pic.a(v3_bcons.pico)
 .data          0x001d2e1c        0x0 libcrypto_pic.a(v3_akey.pico)
 .data          0x001d2e1c        0x0 libcrypto_pic.a(v3_genn.pico)
 .data          0x001d2e1c        0x0 libcrypto_pic.a(v3_crld.pico)
 .data          0x001d2e1c        0x0 libcrypto_pic.a(v3_alt.pico)
 .data          0x001d2e1c        0x0 libcrypto_pic.a(v3_cpols.pico)
 .data          0x001d2e1c        0x0 libcrypto_pic.a(v3_conf.pico)
 .data.rel.local
                0x001d2e1c       0x20 libcrypto_pic.a(v3_conf.pico)
 .data          0x001d2e3c        0xc libcrypto_pic.a(x509_req.pico)
 .data.rel.local
                0x001d2e48        0x4 libcrypto_pic.a(x509_req.pico)
 .data          0x001d2e4c        0x0 libcrypto_pic.a(asn1_gen.pico)
 .data          0x001d2e4c        0x0 libcrypto_pic.a(x509rset.pico)
 .data          0x001d2e4c        0x0 libcrypto_pic.a(conf_mod.pico)
 .data          0x001d2e4c        0x0 libcrypto_pic.a(x509_def.pico)
 .data          0x001d2e4c        0x0 libcrypto_pic.a(pcy_tree.pico)
 .data          0x001d2e4c        0x0 libcrypto_pic.a(pcy_node.pico)
 .data          0x001d2e4c        0x0 libcrypto_pic.a(pcy_lib.pico)
 .data          0x001d2e4c        0x0 libcrypto_pic.a(pcy_map.pico)
 .data          0x001d2e4c        0x0 libcrypto_pic.a(v3_pmaps.pico)
 .data          0x001d2e4c        0x0 libcrypto_pic.a(x_all.pico)
 .data          0x001d2e4c        0x0 libcrypto_pic.a(i2d_pr.pico)
 .data          0x001d2e4c        0x0 libcrypto_pic.a(d2i_pr.pico)
 .data          0x001d2e4c        0x0 libcrypto_pic.a(x_spki.pico)
 .data          0x001d2e4c        0x0 libcrypto_pic.a(x_req.pico)
 .data          0x001d2e4c        0x0 libcrypto_pic.a(a_digest.pico)
 .data          0x001d2e4c        0x0 libcrypto_pic.a(a_sign.pico)
 .data          0x001d2e4c        0x0 libcrypto_pic.a(evp_pkey.pico)
 .data          0x001d2e4c        0x0 libcrypto_pic.a(x509_lu.pico)
 .data          0x001d2e4c        0x0 libcrypto_pic.a(x509name.pico)
 .data          0x001d2e4c        0x0 libcrypto_pic.a(a_print.pico)
 .data          0x001d2e4c        0x0 libcrypto_pic.a(x509_vfy.pico)
 .data          0x001d2e4c        0x0 libcrypto_pic.a(x509_vpm.pico)
 .data          0x001d2e4c        0x0 libcrypto_pic.a(x509_trs.pico)
 .data.rel.local
                0x001d2e4c       0xc4 libcrypto_pic.a(x509_trs.pico)
 .data          0x001d2f10        0x0 libcrypto_pic.a(x509_cmp.pico)
 .data          0x001d2f10        0x0 libcrypto_pic.a(ui_openssl.pico)
 .data.rel.local
                0x001d2f10       0x1c libcrypto_pic.a(ui_openssl.pico)
 .data          0x001d2f2c        0x0 libcrypto_pic.a(stack.pico)
 .data          0x001d2f2c        0x0 libcrypto_pic.a(rsa_crpt.pico)
 .data          0x001d2f2c        0x0 libcrypto_pic.a(rsa_pss.pico)
 .data          0x001d2f2c        0x0 libcrypto_pic.a(rsa_pmeth.pico)
 .data          0x001d2f2c        0x0 libcrypto_pic.a(rsa_saos.pico)
 .data          0x001d2f2c        0x0 libcrypto_pic.a(rsa_gen.pico)
 .data          0x001d2f2c        0x0 libcrypto_pic.a(rsa_ameth.pico)
 .data          0x001d2f2c        0x0 libcrypto_pic.a(rsa_asn1.pico)
 .data          0x001d2f2c        0x0 libcrypto_pic.a(f_int.pico)
 .data          0x001d2f2c        0x0 libcrypto_pic.a(rsa_oaep.pico)
 .data          0x001d2f2c        0x0 libcrypto_pic.a(rsa_ssl.pico)
 .data          0x001d2f2c        0x0 libcrypto_pic.a(rsa_pk1.pico)
 .data          0x001d2f2c        0x0 libcrypto_pic.a(rsa_sign.pico)
 .data          0x001d2f2c        0x0 libcrypto_pic.a(rsa_lib.pico)
 .data          0x001d2f2c        0x0 libcrypto_pic.a(rsa_eay.pico)
 .data.rel      0x001d2f2c       0x38 libcrypto_pic.a(rsa_eay.pico)
 .data          0x001d2f64        0x0 libcrypto_pic.a(tb_rsa.pico)
 .data          0x001d2f64        0x0 libcrypto_pic.a(bn_blind.pico)
 .data          0x001d2f64        0x0 libcrypto_pic.a(rsa_x931.pico)
 .data          0x001d2f64        0x0 libcrypto_pic.a(rsa_none.pico)
 .data          0x001d2f64        0x0 libcrypto_pic.a(rand_unix.pico)
 .data          0x001d2f64        0x0 libcrypto_pic.a(rand_egd.pico)
 .data          0x001d2f64        0x0 libcrypto_pic.a(rand_lib.pico)
 .data          0x001d2f64        0x0 libcrypto_pic.a(md_rand.pico)
 .data.rel.local
                0x001d2f64       0x18 libcrypto_pic.a(md_rand.pico)
                0x001d2f64                rand_ssleay_meth
 .data          0x001d2f7c        0x0 libcrypto_pic.a(tb_rand.pico)
 .data          0x001d2f7c        0x0 libcrypto_pic.a(pk7_attr.pico)
 .data          0x001d2f7c        0x0 libcrypto_pic.a(pk7_doit.pico)
 .data          0x001d2f7c        0x0 libcrypto_pic.a(pk7_lib.pico)
 .data          0x001d2f7c        0x0 libcrypto_pic.a(pk7_asn1.pico)
 .data          0x001d2f7c        0x0 libcrypto_pic.a(p12_p8e.pico)
 .data          0x001d2f7c        0x0 libcrypto_pic.a(p12_p8d.pico)
 .data          0x001d2f7c        0x0 libcrypto_pic.a(p12_utl.pico)
 .data          0x001d2f7c        0x0 libcrypto_pic.a(p12_add.pico)
 .data          0x001d2f7c        0x0 libcrypto_pic.a(p12_decr.pico)
 .data          0x001d2f7c        0x0 libcrypto_pic.a(p12_asn.pico)
 .data          0x001d2f7c        0x0 libcrypto_pic.a(x_sig.pico)
 .data          0x001d2f7c        0x0 libcrypto_pic.a(p12_key.pico)
 .data          0x001d2f7c        0x0 libcrypto_pic.a(p12_crpt.pico)
 .data          0x001d2f7c        0x0 libcrypto_pic.a(pem_oth.pico)
 .data          0x001d2f7c        0x0 libcrypto_pic.a(pem_lib.pico)
 .data          0x001d2f7c        0x0 libcrypto_pic.a(m_md5.pico)
 .data          0x001d2f7c        0x0 libcrypto_pic.a(evp_key.pico)
 .data          0x001d2f7c        0x0 libcrypto_pic.a(ui_lib.pico)
 .data          0x001d2f7c        0x0 libcrypto_pic.a(md5_dgst.pico)
 .data          0x001d2f7c        0x0 libcrypto_pic.a(obj_lib.pico)
 .data          0x001d2f7c        0x4 libcrypto_pic.a(obj_dat.pico)
 .data          0x001d2f80        0x0 libcrypto_pic.a(lhash.pico)
 .data          0x001d2f80        0x0 libcrypto_pic.a(hm_pmeth.pico)
 .data          0x001d2f80        0x0 libcrypto_pic.a(hm_ameth.pico)
 .data          0x001d2f80        0x0 libcrypto_pic.a(hmac.pico)
 .data          0x001d2f80        0x0 libcrypto_pic.a(pmeth_gn.pico)
 .data          0x001d2f80        0x0 libcrypto_pic.a(m_sigver.pico)
 .data          0x001d2f80        0x0 libcrypto_pic.a(pmeth_fn.pico)
 .data          0x001d2f80        0x0 libcrypto_pic.a(pmeth_lib.pico)
 .data.rel      0x001d2f80       0x18 libcrypto_pic.a(pmeth_lib.pico)
 .data          0x001d2f98        0x0 libcrypto_pic.a(ec_pmeth.pico)
 .data          0x001d2f98        0x0 libcrypto_pic.a(dsa_pmeth.pico)
 .data          0x001d2f98        0x0 libcrypto_pic.a(dsa_key.pico)
 .data          0x001d2f98        0x0 libcrypto_pic.a(dsa_gen.pico)
 .data          0x001d2f98        0x0 libcrypto_pic.a(dh_pmeth.pico)
 .data          0x001d2f98        0x0 libcrypto_pic.a(dh_gen.pico)
 .data          0x001d2f98        0x0 libcrypto_pic.a(cm_pmeth.pico)
 .data          0x001d2f98        0x0 libcrypto_pic.a(ecs_vrf.pico)
 .data          0x001d2f98        0x0 libcrypto_pic.a(ech_key.pico)
 .data          0x001d2f98        0x0 libcrypto_pic.a(ech_lib.pico)
 .data          0x001d2f98        0x0 libcrypto_pic.a(tb_ecdh.pico)
 .data          0x001d2f98        0x0 libcrypto_pic.a(ech_ossl.pico)
 .data.rel.local
                0x001d2f98       0x10 libcrypto_pic.a(ech_ossl.pico)
 .data          0x001d2fa8        0x0 libcrypto_pic.a(p5_crpt2.pico)
 .data          0x001d2fa8        0x0 libcrypto_pic.a(p5_crpt.pico)
 .data          0x001d2fa8        0x0 libcrypto_pic.a(p5_pbe.pico)
 .data          0x001d2fa8        0x0 libcrypto_pic.a(evp_pbe.pico)
 .data          0x001d2fa8        0x0 libcrypto_pic.a(bio_enc.pico)
 .data.rel.local
                0x001d2fa8       0x28 libcrypto_pic.a(bio_enc.pico)
 .data          0x001d2fd0        0x0 libcrypto_pic.a(bio_md.pico)
 .data.rel.local
                0x001d2fd0       0x28 libcrypto_pic.a(bio_md.pico)
 .data          0x001d2ff8        0x0 libcrypto_pic.a(p_lib.pico)
 .data          0x001d2ff8        0x0 libcrypto_pic.a(p_verify.pico)
 .data          0x001d2ff8        0x0 libcrypto_pic.a(p_sign.pico)
 .data          0x001d2ff8        0x0 libcrypto_pic.a(evp_enc.pico)
 .data          0x001d2ff8        0x0 libcrypto_pic.a(tb_cipher.pico)
 .data          0x001d2ff8        0x0 libcrypto_pic.a(digest.pico)
 .data          0x001d2ff8        0x0 libcrypto_pic.a(tb_digest.pico)
 .data          0x001d2ff8        0x4 libcrypto_pic.a(err.pico)
 .data.rel.local
                0x001d2ffc      0x268 libcrypto_pic.a(err.pico)
 .data          0x001d3264        0x0 libcrypto_pic.a(tb_pkmeth.pico)
 .data          0x001d3264        0x0 libcrypto_pic.a(tb_ecdsa.pico)
 .data          0x001d3264        0x0 libcrypto_pic.a(tb_dh.pico)
 .data          0x001d3264        0x0 libcrypto_pic.a(tb_dsa.pico)
 .data          0x001d3264        0x0 libcrypto_pic.a(tb_asnmth.pico)
 .data          0x001d3264        0x0 libcrypto_pic.a(eng_table.pico)
 .data          0x001d3264        0x0 libcrypto_pic.a(eng_list.pico)
 .data          0x001d3264        0x0 libcrypto_pic.a(eng_ctrl.pico)
 .data          0x001d3264        0x0 libcrypto_pic.a(ecs_sign.pico)
 .data          0x001d3264        0x0 libcrypto_pic.a(ecs_ossl.pico)
 .data.rel.local
                0x001d3264       0x18 libcrypto_pic.a(ecs_ossl.pico)
 .data          0x001d327c        0x0 libcrypto_pic.a(ecs_asn1.pico)
 .data          0x001d327c        0x0 libcrypto_pic.a(ecp_oct.pico)
 .data          0x001d327c        0x0 libcrypto_pic.a(bn_sqrt.pico)
 .data          0x001d327c        0x0 libcrypto_pic.a(bn_kron.pico)
 .data          0x001d327c        0x0 libcrypto_pic.a(ec2_oct.pico)
 .data          0x001d327c        0x0 libcrypto_pic.a(ec_ameth.pico)
 .data          0x001d327c        0x0 libcrypto_pic.a(ecs_lib.pico)
 .data          0x001d327c        0x0 libcrypto_pic.a(eck_prn.pico)
 .data          0x001d327c        0x0 libcrypto_pic.a(ec_print.pico)
 .data          0x001d327c        0x0 libcrypto_pic.a(ec_asn1.pico)
 .data          0x001d327c        0x0 libcrypto_pic.a(bn_print.pico)
 .data          0x001d327c        0x0 libcrypto_pic.a(ec_oct.pico)
 .data          0x001d327c        0x0 libcrypto_pic.a(ec_mult.pico)
 .data          0x001d327c        0x0 libcrypto_pic.a(dso_openssl.pico)
 .data          0x001d327c        0x0 libcrypto_pic.a(dso_dlfcn.pico)
 .data.rel.local
                0x001d327c       0x30 libcrypto_pic.a(dso_dlfcn.pico)
 .data          0x001d32ac        0x0 libcrypto_pic.a(dso_lib.pico)
 .data          0x001d32ac        0x0 libcrypto_pic.a(dsa_ameth.pico)
 .data          0x001d32ac        0x0 libcrypto_pic.a(dsa_asn1.pico)
 .data          0x001d32ac        0x0 libcrypto_pic.a(dsa_vrf.pico)
 .data          0x001d32ac        0x0 libcrypto_pic.a(x86cpuid.pico)
 .data          0x001d32ac        0x0 libcrypto_pic.a(mem_dbg.pico)
 .data          0x001d32ac      0x400 libcrypto_pic.a(conf_def.pico)
 .data.rel.local
                0x001d36ac       0x50 libcrypto_pic.a(conf_def.pico)
 .data          0x001d36fc        0x0 libcrypto_pic.a(conf_lib.pico)
 .data          0x001d36fc        0x0 libcrypto_pic.a(conf_api.pico)
 .data          0x001d36fc        0x0 libcrypto_pic.a(cms_pwri.pico)
 .data          0x001d36fc        0x0 libcrypto_pic.a(p5_pbev2.pico)
 .data          0x001d36fc        0x0 libcrypto_pic.a(asn_pack.pico)
 .data          0x001d36fc        0x0 libcrypto_pic.a(a_set.pico)
 .data          0x001d36fc        0x0 libcrypto_pic.a(cms_enc.pico)
 .data          0x001d36fc        0x0 libcrypto_pic.a(cms_env.pico)
 .data          0x001d36fc        0x0 libcrypto_pic.a(aes_wrap.pico)
 .data          0x001d36fc        0x0 libcrypto_pic.a(aes_misc.pico)
 .data          0x001d36fc        0x0 libcrypto_pic.a(aes-586.pico)
 .data          0x001d36fc        0x0 libcrypto_pic.a(cms_dd.pico)
 .data          0x001d36fc        0x0 libcrypto_pic.a(cms_sd.pico)
 .data          0x001d36fc        0x0 libcrypto_pic.a(cms_att.pico)
 .data          0x001d36fc        0x0 libcrypto_pic.a(x509_att.pico)
 .data          0x001d36fc        0x4 libcrypto_pic.a(a_strnid.pico)
 .data          0x001d3700        0x0 libcrypto_pic.a(cms_io.pico)
 .data          0x001d3700        0x0 libcrypto_pic.a(asn_mime.pico)
 .data          0x001d3700        0x0 libcrypto_pic.a(a_i2d_fp.pico)
 .data          0x001d3700        0x0 libcrypto_pic.a(a_d2i_fp.pico)
 .data          0x001d3700        0x0 libcrypto_pic.a(bio_b64.pico)
 .data.rel.local
                0x001d3700       0x28 libcrypto_pic.a(bio_b64.pico)
 .data          0x001d3728        0x0 libcrypto_pic.a(encode.pico)
 .data          0x001d3728        0x0 libcrypto_pic.a(bf_buff.pico)
 .data.rel.local
                0x001d3728       0x28 libcrypto_pic.a(bf_buff.pico)
 .data          0x001d3750        0x0 libcrypto_pic.a(bio_ndef.pico)
 .data          0x001d3750        0x0 libcrypto_pic.a(bio_asn1.pico)
 .data.rel.local
                0x001d3750       0x28 libcrypto_pic.a(bio_asn1.pico)
 .data          0x001d3778        0x0 libcrypto_pic.a(cms_asn1.pico)
 .data          0x001d3778        0x0 libcrypto_pic.a(cms_lib.pico)
 .data          0x001d3778        0x0 libcrypto_pic.a(bss_null.pico)
 .data.rel.local
                0x001d3778       0x28 libcrypto_pic.a(bss_null.pico)
 .data          0x001d37a0        0x0 libcrypto_pic.a(bss_mem.pico)
 .data.rel.local
                0x001d37a0       0x28 libcrypto_pic.a(bss_mem.pico)
 .data          0x001d37c8       0x29 libcrypto_pic.a(tasn_prn.pico)
                0x001d37c8                default_pctx
 *fill*         0x001d37f1        0x3 
 .data          0x001d37f4        0x0 libcrypto_pic.a(x_crl.pico)
 .data.rel.local
                0x001d37f4       0x18 libcrypto_pic.a(x_crl.pico)
 .data          0x001d380c        0x0 libcrypto_pic.a(a_verify.pico)
 .data          0x001d380c        0x0 libcrypto_pic.a(a_enum.pico)
 .data          0x001d380c        0x0 libcrypto_pic.a(names.pico)
 .data          0x001d380c        0x4 libcrypto_pic.a(o_names.pico)
 .data          0x001d3810        0x0 libcrypto_pic.a(tasn_typ.pico)
 .data          0x001d3810        0x0 libcrypto_pic.a(t_x509.pico)
 .data          0x001d3810        0x0 libcrypto_pic.a(obj_xref.pico)
 .data          0x001d3810        0x0 libcrypto_pic.a(m_sha1.pico)
 .data          0x001d3810        0x0 libcrypto_pic.a(err_prn.pico)
 .data          0x001d3810        0x0 libcrypto_pic.a(ameth_lib.pico)
 .data.rel      0x001d3810       0x2c libcrypto_pic.a(ameth_lib.pico)
 .data          0x001d383c        0x0 libcrypto_pic.a(t_x509a.pico)
 .data          0x001d383c        0x0 libcrypto_pic.a(sha1dgst.pico)
 .data          0x001d383c        0x0 libcrypto_pic.a(dh_ameth.pico)
 .data          0x001d383c        0x0 libcrypto_pic.a(dh_asn1.pico)
 .data          0x001d383c        0x0 libcrypto_pic.a(cm_ameth.pico)
 .data          0x001d383c        0x0 libcrypto_pic.a(cmac.pico)
 .data          0x001d383c        0x0 libcrypto_pic.a(p8_pkey.pico)
 .data          0x001d383c        0x0 libcrypto_pic.a(t_pkey.pico)
 .data          0x001d383c        0x0 libcrypto_pic.a(x_long.pico)
 .data.rel.local
                0x001d383c       0x20 libcrypto_pic.a(x_long.pico)
 .data          0x001d385c        0x0 libcrypto_pic.a(x_bignum.pico)
 .data.rel.local
                0x001d385c       0x20 libcrypto_pic.a(x_bignum.pico)
 .data          0x001d387c        0x0 libcrypto_pic.a(x_attrib.pico)
 .data          0x001d387c        0x0 libcrypto_pic.a(x_x509a.pico)
 .data          0x001d387c        0x0 libcrypto_pic.a(x_x509.pico)
 .data          0x001d387c        0x0 libcrypto_pic.a(x_name.pico)
 .data          0x001d387c        0x0 libcrypto_pic.a(x_pubkey.pico)
 .data          0x001d387c        0x0 libcrypto_pic.a(x_val.pico)
 .data          0x001d387c        0x0 libcrypto_pic.a(x_algor.pico)
 .data          0x001d387c        0x0 libcrypto_pic.a(a_strex.pico)
 .data          0x001d387c        0x0 libcrypto_pic.a(a_mbstr.pico)
 .data          0x001d387c        0x0 libcrypto_pic.a(a_utf8.pico)
 .data          0x001d387c        0x0 libcrypto_pic.a(a_time.pico)
 .data          0x001d387c        0x0 libcrypto_pic.a(a_gentm.pico)
 .data          0x001d387c        0x0 libcrypto_pic.a(a_utctm.pico)
 .data          0x001d387c        0x0 libcrypto_pic.a(v3_asid.pico)
 .data          0x001d387c        0x0 libcrypto_pic.a(v3_akeya.pico)
 .data          0x001d387c        0x0 libcrypto_pic.a(v3_addr.pico)
 .data          0x001d387c        0x0 libcrypto_pic.a(pcy_cache.pico)
 .data          0x001d387c        0x0 libcrypto_pic.a(x509_ext.pico)
 .data          0x001d387c        0x0 libcrypto_pic.a(x509_v3.pico)
 .data          0x001d387c        0x0 libcrypto_pic.a(x509_obj.pico)
 .data          0x001d387c        0x0 libcrypto_pic.a(evp_lib.pico)
 .data          0x001d387c        0x0 libcrypto_pic.a(ec_key.pico)
 .data          0x001d387c        0x0 libcrypto_pic.a(dsa_lib.pico)
 .data          0x001d387c        0x0 libcrypto_pic.a(dh_lib.pico)
 .data          0x001d387c        0x0 libcrypto_pic.a(dh_key.pico)
 .data.rel.local
                0x001d387c       0x24 libcrypto_pic.a(dh_key.pico)
 .data          0x001d38a0        0x0 libcrypto_pic.a(o_time.pico)
 .data          0x001d38a0        0x0 libcrypto_pic.a(bss_file.pico)
 .data.rel.local
                0x001d38a0       0x28 libcrypto_pic.a(bss_file.pico)
 .data          0x001d38c8        0x0 libcrypto_pic.a(evp_asn1.pico)
 .data          0x001d38c8        0x0 libcrypto_pic.a(a_bytes.pico)
 .data          0x001d38c8        0x0 libcrypto_pic.a(asn1_par.pico)
 .data          0x001d38c8        0x0 libcrypto_pic.a(x_exten.pico)
 .data          0x001d38c8        0x0 libcrypto_pic.a(a_bool.pico)
 .data          0x001d38c8        0x0 libcrypto_pic.a(a_dup.pico)
 .data          0x001d38c8        0x0 libcrypto_pic.a(a_octet.pico)
 .data          0x001d38c8        0x0 libcrypto_pic.a(v3_pcons.pico)
 .data          0x001d38c8        0x0 libcrypto_pic.a(pcy_data.pico)
 .data          0x001d38c8        0x0 libcrypto_pic.a(eng_init.pico)
 .data          0x001d38c8        0x0 libcrypto_pic.a(eng_lib.pico)
 .data          0x001d38c8        0x0 libcrypto_pic.a(ec_curve.pico)
 .data          0x001d38c8        0x0 libcrypto_pic.a(ec_cvt.pico)
 .data          0x001d38c8        0x0 libcrypto_pic.a(ecp_nist.pico)
 .data          0x001d38c8        0x0 libcrypto_pic.a(ecp_mont.pico)
 .data          0x001d38c8        0x0 libcrypto_pic.a(ecp_smpl.pico)
 .data          0x001d38c8        0x0 libcrypto_pic.a(dsa_ossl.pico)
 .data.rel.local
                0x001d38c8       0x30 libcrypto_pic.a(dsa_ossl.pico)
 .data          0x001d38f8        0x0 libcrypto_pic.a(dsa_sign.pico)
 .data          0x001d38f8        0x0 libcrypto_pic.a(dh_check.pico)
 .data          0x001d38f8        0x0 libcrypto_pic.a(bn_nist.pico)
 .data          0x001d38f8        0x0 libcrypto_pic.a(bn_exp2.pico)
 .data          0x001d38f8        0x0 libcrypto_pic.a(bn_prime.pico)
 .data          0x001d38f8        0x0 libcrypto_pic.a(bn_exp.pico)
 .data          0x001d38f8        0x0 libcrypto_pic.a(b_dump.pico)
 .data          0x001d38f8        0x0 libcrypto_pic.a(tasn_dec.pico)
 .data          0x001d38f8        0x0 libcrypto_pic.a(tasn_enc.pico)
 .data          0x001d38f8        0x0 libcrypto_pic.a(tasn_new.pico)
 .data          0x001d38f8        0x0 libcrypto_pic.a(a_type.pico)
 .data          0x001d38f8        0x0 libcrypto_pic.a(a_bitstr.pico)
 .data          0x001d38f8        0x0 libcrypto_pic.a(ec2_smpl.pico)
 .data          0x001d38f8        0x0 libcrypto_pic.a(buffer.pico)
 .data          0x001d38f8        0x0 libcrypto_pic.a(bn_mont.pico)
 .data          0x001d38f8        0x0 libcrypto_pic.a(bn_recp.pico)
 .data          0x001d38f8        0x0 libcrypto_pic.a(bn_gcd.pico)
 .data          0x001d38f8        0x0 libcrypto_pic.a(bn_mod.pico)
 .data          0x001d38f8        0x0 libcrypto_pic.a(bn_div.pico)
 .data          0x001d38f8        0x0 libcrypto_pic.a(tasn_fre.pico)
 .data          0x001d38f8        0x0 libcrypto_pic.a(a_object.pico)
 .data          0x001d38f8        0x0 libcrypto_pic.a(ec2_mult.pico)
 .data          0x001d38f8        0x0 libcrypto_pic.a(ec_lib.pico)
 .data          0x001d38f8        0x0 libcrypto_pic.a(bn_gf2m.pico)
 .data          0x001d38f8        0x0 libcrypto_pic.a(bn_sqr.pico)
 .data          0x001d38f8        0x0 libcrypto_pic.a(bn_mul.pico)
 .data          0x001d38f8        0x0 libcrypto_pic.a(bn_word.pico)
 .data          0x001d38f8        0x0 libcrypto_pic.a(bn_shift.pico)
 .data          0x001d38f8        0x0 libcrypto_pic.a(bn_rand.pico)
 .data          0x001d38f8        0x0 libcrypto_pic.a(bn_ctx.pico)
 .data          0x001d38f8        0x0 libcrypto_pic.a(bn_add.pico)
 .data          0x001d38f8        0x0 libcrypto_pic.a(x86.pico)
 .data          0x001d38f8        0x0 libcrypto_pic.a(tasn_utl.pico)
 .data          0x001d38f8        0x0 libcrypto_pic.a(a_int.pico)
 .data          0x001d38f8        0x0 libcrypto_pic.a(bn_lib.pico)
 .data          0x001d38f8        0x0 libcrypto_pic.a(asn1_lib.pico)
 .data          0x001d38f8        0x0 libcrypto_pic.a(b_print.pico)
 .data          0x001d38f8        0x0 libcrypto_pic.a(bio_lib.pico)
 .data          0x001d38f8        0x4 libcrypto_pic.a(ex_data.pico)
 .data.rel.local
                0x001d38fc       0x18 libcrypto_pic.a(ex_data.pico)
 .data          0x001d3914        0x0 libcrypto_pic.a(cryptlib.pico)
 .data          0x001d3914        0x0 libcrypto_pic.a(buf_str.pico)
 .data          0x001d3914        0x0 libcrypto_pic.a(mem.pico)
 .data.rel      0x001d3914       0x14 libcrypto_pic.a(mem.pico)
 .data.rel.local
                0x001d3928        0xc libcrypto_pic.a(mem.pico)
 .data          0x001d3934        0x0 libcrypto_pic.a(o_init.pico)
 .data          0x001d3934        0x0 /usr/lib/crtendS.o
 .data          0x001d3934        0x0 /usr/lib/crtn.o

.data1
 *(.data1)
                0x001d3934                _edata = .
                0x001d3934                PROVIDE (edata, .)
                0x001d3934                . = .
                0x001d3934                __bss_start = .

.bss            0x001d3938     0x2a10
 *(.dynbss)
 .dynbss        0x00000000        0x0 /usr/lib/crti.o
 *(.bss .bss.* .gnu.linkonce.b.*)
 .bss           0x001d3938        0x0 /usr/lib/crti.o
 .bss           0x001d3938        0x0 /usr/lib/crtbeginS.o
 .bss           0x001d3938        0x0 libcrypto_pic.a(rc5_enc_dummy.pico)
 .bss           0x001d3938        0x0 libcrypto_pic.a(rc5_skey_dummy.pico)
 .bss           0x001d3938       0x10 libcrypto_pic.a(mdc2_one.pico)
 .bss           0x001d3948        0x0 libcrypto_pic.a(x509type.pico)
 .bss           0x001d3948        0x0 libcrypto_pic.a(x509cset.pico)
 .bss           0x001d3948        0x0 libcrypto_pic.a(x509spki.pico)
 .bss           0x001d3948        0x0 libcrypto_pic.a(x509_r2x.pico)
 .bss           0x001d3948        0x0 libcrypto_pic.a(x509_d2.pico)
 .bss           0x001d3948        0x0 libcrypto_pic.a(ts_conf.pico)
 .bss           0x001d3948        0x0 libcrypto_pic.a(ts_verify_ctx.pico)
 .bss           0x001d3948        0x0 libcrypto_pic.a(ts_rsp_verify.pico)
 .bss           0x001d3948        0x0 libcrypto_pic.a(ts_rsp_sign.pico)
 .bss           0x001d3948        0x0 libcrypto_pic.a(ts_rsp_print.pico)
 .bss           0x001d3948        0x0 libcrypto_pic.a(ts_rsp_utils.pico)
 .bss           0x001d3948        0x0 libcrypto_pic.a(ts_req_print.pico)
 .bss           0x001d3948        0x0 libcrypto_pic.a(str_meth.pico)
 .bss           0x001d3948        0x0 libcrypto_pic.a(str_mem.pico)
 .bss           0x001d3948        0x0 libcrypto_pic.a(str_lib.pico)
 .bss           0x001d3948        0x0 libcrypto_pic.a(str_err.pico)
 .bss           0x001d3948        0x0 libcrypto_pic.a(srp_vfy.pico)
 .bss           0x001d3948        0x0 libcrypto_pic.a(srp_lib.pico)
 .bss           0x001d3948       0x3c libcrypto_pic.a(libc-sha256.pico)
 .bss           0x001d3984       0x70 libcrypto_pic.a(libc-sha512.pico)
 .bss           0x001d39f4       0x14 libcrypto_pic.a(sha1_one.pico)
 .bss           0x001d3a08       0x14 libcrypto_pic.a(sha_one.pico)
 .bss           0x001d3a1c        0x0 libcrypto_pic.a(rsa_prn.pico)
 .bss           0x001d3a1c        0x0 libcrypto_pic.a(rsa_depr.pico)
 .bss           0x001d3a1c        0x0 libcrypto_pic.a(rsa_null.pico)
 .bss           0x001d3a1c        0x0 libcrypto_pic.a(rsa_chk.pico)
 .bss           0x001d3a1c       0x14 libcrypto_pic.a(rmd_one.pico)
 .bss           0x001d3a30        0x0 libcrypto_pic.a(rand_os2.pico)
 .bss           0x001d3a30        0x0 libcrypto_pic.a(rand_win.pico)
 .bss           0x001d3a30        0x0 libcrypto_pic.a(randfile.pico)
 .bss           0x001d3a30        0x0 libcrypto_pic.a(pqueue.pico)
 .bss           0x001d3a30        0x0 libcrypto_pic.a(pk7_mime.pico)
 .bss           0x001d3a30        0x0 libcrypto_pic.a(pk7_smime.pico)
 .bss           0x001d3a30        0x0 libcrypto_pic.a(p12_npas.pico)
 .bss           0x001d3a30        0x0 libcrypto_pic.a(p12_kiss.pico)
 .bss           0x001d3a30        0x0 libcrypto_pic.a(p12_crt.pico)
 .bss           0x001d3a30        0x0 libcrypto_pic.a(p12_attr.pico)
 .bss           0x001d3a30        0x0 libcrypto_pic.a(pvkfmt.pico)
 .bss           0x001d3a30        0x0 libcrypto_pic.a(pem_seal.pico)
 .bss           0x001d3a30        0x0 libcrypto_pic.a(pem_sign.pico)
 .bss           0x001d3a30        0x0 libcrypto_pic.a(ocsp_vfy.pico)
 .bss           0x001d3a30        0x0 libcrypto_pic.a(ocsp_prn.pico)
 .bss           0x001d3a30        0x0 libcrypto_pic.a(ocsp_srv.pico)
 .bss           0x001d3a30        0x0 libcrypto_pic.a(ocsp_cl.pico)
 .bss           0x001d3a30        0x0 libcrypto_pic.a(ocsp_lib.pico)
 .bss           0x001d3a30        0x0 libcrypto_pic.a(ocsp_ht.pico)
 .bss           0x001d3a30        0x0 libcrypto_pic.a(ocsp_ext.pico)
 .bss           0x001d3a30       0x10 libcrypto_pic.a(md5_one.pico)
 .bss           0x001d3a40       0x10 libcrypto_pic.a(md4_one.pico)
 .bss           0x001d3a50       0x10 libcrypto_pic.a(md2_one.pico)
 .bss           0x001d3a60        0x0 libcrypto_pic.a(cmll_ctr.pico)
 .bss           0x001d3a60        0x0 libcrypto_pic.a(cts128.pico)
 .bss           0x001d3a60        0x0 libcrypto_pic.a(lh_stats.pico)
 .bss           0x001d3a60        0x0 libcrypto_pic.a(krb5_asn.pico)
 .bss           0x001d3a60        0x0 libcrypto_pic.a(evp_fips.pico)
 .bss           0x001d3a60        0x0 libcrypto_pic.a(bio_ok.pico)
 .bss           0x001d3a60        0x0 libcrypto_pic.a(e_null.pico)
 .bss           0x001d3a60        0x0 libcrypto_pic.a(p_seal.pico)
 .bss           0x001d3a60        0x0 libcrypto_pic.a(p_open.pico)
 .bss           0x001d3a60        0x0 libcrypto_pic.a(m_md2.pico)
 .bss           0x001d3a60        0x0 libcrypto_pic.a(m_null.pico)
 .bss           0x001d3a60        0x0 libcrypto_pic.a(evp_acnf.pico)
 .bss           0x001d3a60        0x0 libcrypto_pic.a(err_all.pico)
 .bss           0x001d3a60        0x0 libcrypto_pic.a(e_ubsec_err.pico)
 .bss           0x001d3a60        0x0 libcrypto_pic.a(e_sureware_err.pico)
 .bss           0x001d3a60        0x0 libcrypto_pic.a(e_nuron_err.pico)
 .bss           0x001d3a60        0x0 libcrypto_pic.a(e_gmp_err.pico)
 .bss           0x001d3a60        0x0 libcrypto_pic.a(e_gmp.pico)
 .bss           0x001d3a60        0x0 libcrypto_pic.a(e_cswift_err.pico)
 .bss           0x001d3a60        0x0 libcrypto_pic.a(e_chil_err.pico)
 .bss           0x001d3a60        0x0 libcrypto_pic.a(e_atalla_err.pico)
 .bss           0x001d3a60        0x0 libcrypto_pic.a(e_aep_err.pico)
 .bss           0x001d3a60        0x0 libcrypto_pic.a(e_4758cca_err.pico)
 .bss           0x001d3a60        0x4 libcrypto_pic.a(tb_store.pico)
 .bss           0x001d3a64        0x0 libcrypto_pic.a(eng_cryptodev.pico)
 .bss           0x001d3a64        0x0 libcrypto_pic.a(eng_openssl.pico)
 .bss           0x001d3a64        0x0 libcrypto_pic.a(eng_err.pico)
 .bss           0x001d3a64        0x0 libcrypto_pic.a(ecs_err.pico)
 .bss           0x001d3a64        0x0 libcrypto_pic.a(ech_err.pico)
 .bss           0x001d3a64        0x0 libcrypto_pic.a(ec_check.pico)
 .bss           0x001d3a64        0x0 libcrypto_pic.a(ec_err.pico)
 .bss           0x001d3a64        0x0 libcrypto_pic.a(dso_vms.pico)
 .bss           0x001d3a64        0x0 libcrypto_pic.a(dso_win32.pico)
 .bss           0x001d3a64        0x0 libcrypto_pic.a(dso_null.pico)
 .bss           0x001d3a64        0x0 libcrypto_pic.a(dso_err.pico)
 .bss           0x001d3a64        0x0 libcrypto_pic.a(dso_dl.pico)
 .bss           0x001d3a64        0x0 libcrypto_pic.a(dsa_prn.pico)
 .bss           0x001d3a64        0x0 libcrypto_pic.a(dsa_depr.pico)
 .bss           0x001d3a64        0x0 libcrypto_pic.a(dsa_err.pico)
 .bss           0x001d3a64        0x0 libcrypto_pic.a(dh_prn.pico)
 .bss           0x001d3a64        0x0 libcrypto_pic.a(dh_depr.pico)
 .bss           0x001d3a64        0x0 libcrypto_pic.a(dh_err.pico)
 .bss           0x001d3a64        0x0 libcrypto_pic.a(read2pwd.pico)
 .bss           0x001d3a64        0x0 libcrypto_pic.a(ede_cbcm_enc.pico)
 .bss           0x001d3a64        0x0 libcrypto_pic.a(str2key.pico)
 .bss           0x001d3a64        0x0 libcrypto_pic.a(rpc_enc.pico)
 .bss           0x001d3a64        0x0 libcrypto_pic.a(rand_key.pico)
 .bss           0x001d3a64        0x0 libcrypto_pic.a(qud_cksm.pico)
 .bss           0x001d3a64        0x0 libcrypto_pic.a(ofb_enc.pico)
 .bss           0x001d3a64        0xe libcrypto_pic.a(fcrypt.pico)
 *fill*         0x001d3a72        0x2 
 .bss           0x001d3a74        0x5 libcrypto_pic.a(enc_writ.pico)
 *fill*         0x001d3a79        0x3 
 .bss           0x001d3a7c       0x14 libcrypto_pic.a(enc_read.pico)
 .bss           0x001d3a90        0x0 libcrypto_pic.a(cbc_enc.pico)
 .bss           0x001d3a90        0x0 libcrypto_pic.a(cbc_cksm.pico)
 .bss           0x001d3a90        0x0 libcrypto_pic.a(crypt586.pico)
 .bss           0x001d3a90        0x0 libcrypto_pic.a(o_fips.pico)
 .bss           0x001d3a90        0x0 libcrypto_pic.a(o_dir.pico)
 .bss           0x001d3a90        0x0 libcrypto_pic.a(o_str.pico)
 .bss           0x001d3a90        0x0 libcrypto_pic.a(uid.pico)
 .bss           0x001d3a90        0x0 libcrypto_pic.a(ebcdic.pico)
 .bss           0x001d3a90        0x0 libcrypto_pic.a(cpt_err.pico)
 .bss           0x001d3a90        0x0 libcrypto_pic.a(cversion.pico)
 .bss           0x001d3a90        0x1 libcrypto_pic.a(conf_sap.pico)
 *fill*         0x001d3a91        0x3 
 .bss           0x001d3a94        0x0 libcrypto_pic.a(conf_mall.pico)
 .bss           0x001d3a94        0x0 libcrypto_pic.a(conf_err.pico)
 .bss           0x001d3a94        0x0 libcrypto_pic.a(c_zlib.pico)
 .bss           0x001d3a94        0x0 libcrypto_pic.a(c_rle.pico)
 .bss           0x001d3a94        0x0 libcrypto_pic.a(comp_err.pico)
 .bss           0x001d3a94        0x0 libcrypto_pic.a(comp_lib.pico)
 .bss           0x001d3a94        0x0 libcrypto_pic.a(cms_cd.pico)
 .bss           0x001d3a94        0x0 libcrypto_pic.a(cms_err.pico)
 .bss           0x001d3a94        0x0 libcrypto_pic.a(cms_smime.pico)
 .bss           0x001d3a94        0x8 libcrypto_pic.a(buf_err.pico)
 .bss           0x001d3a9c        0x0 libcrypto_pic.a(bn_x931p.pico)
 .bss           0x001d3a9c        0x0 libcrypto_pic.a(bn_const.pico)
 .bss           0x001d3a9c        0x0 libcrypto_pic.a(bn_depr.pico)
 .bss           0x001d3a9c        0x0 libcrypto_pic.a(bn_mpi.pico)
 .bss           0x001d3a9c        0x0 libcrypto_pic.a(bn_err.pico)
 .bss           0x001d3a9c        0x0 libcrypto_pic.a(bss_dgram.pico)
 .bss           0x001d3a9c        0x0 libcrypto_pic.a(bss_bio.pico)
 .bss           0x001d3a9c        0x0 libcrypto_pic.a(bss_log.pico)
 .bss           0x001d3a9c        0x0 libcrypto_pic.a(bf_nbio.pico)
 .bss           0x001d3a9c        0x0 libcrypto_pic.a(bss_acpt.pico)
 .bss           0x001d3a9c        0x0 libcrypto_pic.a(bf_null.pico)
 .bss           0x001d3a9c        0x0 libcrypto_pic.a(bss_conn.pico)
 .bss           0x001d3a9c        0x0 libcrypto_pic.a(bss_fd.pico)
 .bss           0x001d3a9c        0x0 libcrypto_pic.a(bio_err.pico)
 .bss           0x001d3a9c        0x0 libcrypto_pic.a(bio_cb.pico)
 .bss           0x001d3a9c        0x0 libcrypto_pic.a(x_nx509.pico)
 .bss           0x001d3a9c        0x0 libcrypto_pic.a(asn_moid.pico)
 .bss           0x001d3a9c        0x0 libcrypto_pic.a(asn1_err.pico)
 .bss           0x001d3a9c        0x0 libcrypto_pic.a(f_enum.pico)
 .bss           0x001d3a9c        0x0 libcrypto_pic.a(n_pkey.pico)
 .bss           0x001d3a9c        0x0 libcrypto_pic.a(t_bitst.pico)
 .bss           0x001d3a9c        0x0 libcrypto_pic.a(t_spki.pico)
 .bss           0x001d3a9c        0x0 libcrypto_pic.a(t_crl.pico)
 .bss           0x001d3a9c        0x0 libcrypto_pic.a(t_req.pico)
 .bss           0x001d3a9c        0x0 libcrypto_pic.a(i2d_pu.pico)
 .bss           0x001d3a9c        0x0 libcrypto_pic.a(d2i_pu.pico)
 .bss           0x001d3a9c        0x0 libcrypto_pic.a(aes_ecb.pico)
 .bss           0x001d3a9c        0x0 libcrypto_pic.a(aes_ige.pico)
 .bss           0x001d3a9c        0x0 libcrypto_pic.a(aes_ctr.pico)
 .bss           0x001d3a9c        0x0 libcrypto_pic.a(aes_ofb.pico)
 .bss           0x001d3a9c        0x0 libcrypto_pic.a(aes_cfb.pico)
 .bss           0x001d3a9c        0x0 libcrypto_pic.a(v3err.pico)
 .bss           0x001d3a9c        0x0 libcrypto_pic.a(by_dir.pico)
 .bss           0x001d3a9c        0x0 libcrypto_pic.a(by_file.pico)
 .bss           0x001d3a9c       0x64 libcrypto_pic.a(x509_txt.pico)
 .bss           0x001d3b00        0x0 libcrypto_pic.a(x509_err.pico)
 .bss           0x001d3b00        0x0 libcrypto_pic.a(x509_set.pico)
 .bss           0x001d3b00        0x0 libcrypto_pic.a(ui_util.pico)
 .bss           0x001d3b00        0x0 libcrypto_pic.a(ui_err.pico)
 .bss           0x001d3b00        0x0 libcrypto_pic.a(ts_lib.pico)
 .bss           0x001d3b00        0x0 libcrypto_pic.a(ts_req_utils.pico)
 .bss           0x001d3b00        0x0 libcrypto_pic.a(ts_err.pico)
 .bss           0x001d3b00        0x0 libcrypto_pic.a(txt_db.pico)
 .bss           0x001d3b00        0x0 libcrypto_pic.a(rsa_err.pico)
 .bss           0x001d3b00        0x0 libcrypto_pic.a(rand_err.pico)
 .bss           0x001d3b00        0x0 libcrypto_pic.a(pkcs7err.pico)
 .bss           0x001d3b00        0x0 libcrypto_pic.a(pk12err.pico)
 .bss           0x001d3b00        0x0 libcrypto_pic.a(p12_mutl.pico)
 .bss           0x001d3b00        0x0 libcrypto_pic.a(p12_init.pico)
 .bss           0x001d3b00        0x0 libcrypto_pic.a(pem_xaux.pico)
 .bss           0x001d3b00        0x0 libcrypto_pic.a(pem_err.pico)
 .bss           0x001d3b00        0x0 libcrypto_pic.a(pem_info.pico)
 .bss           0x001d3b00        0x0 libcrypto_pic.a(ocsp_err.pico)
 .bss           0x001d3b00        0x0 libcrypto_pic.a(obj_err.pico)
 .bss           0x001d3b00        0x0 libcrypto_pic.a(md2_dgst.pico)
 .bss           0x001d3b00        0x0 libcrypto_pic.a(c_all.pico)
 .bss           0x001d3b00        0x0 libcrypto_pic.a(evp_err.pico)
 .bss           0x001d3b00        0x0 libcrypto_pic.a(evp_cnf.pico)
 .bss           0x001d3b00        0x0 libcrypto_pic.a(p_dec.pico)
 .bss           0x001d3b00        0x0 libcrypto_pic.a(p_enc.pico)
 .bss           0x001d3b00        0x4 libcrypto_pic.a(eng_cnf.pico)
 .bss           0x001d3b04        0x0 libcrypto_pic.a(eng_all.pico)
 .bss           0x001d3b04        0x0 libcrypto_pic.a(eng_fat.pico)
 .bss           0x001d3b04        0x0 libcrypto_pic.a(pcbc_enc.pico)
 .bss           0x001d3b04        0x0 libcrypto_pic.a(cms_ess.pico)
 .bss           0x001d3b04        0xc libcrypto_pic.a(b_sock.pico)
 .bss           0x001d3b10        0x0 libcrypto_pic.a(bss_sock.pico)
 .bss           0x001d3b10        0x0 libcrypto_pic.a(x_info.pico)
 .bss           0x001d3b10        0x0 libcrypto_pic.a(ts_asn1.pico)
 .bss           0x001d3b10        0x0 libcrypto_pic.a(pem_x509.pico)
 .bss           0x001d3b10        0x0 libcrypto_pic.a(pem_all.pico)
 .bss           0x001d3b10        0x0 libcrypto_pic.a(c_alld.pico)
 .bss           0x001d3b10        0x0 libcrypto_pic.a(c_allc.pico)
 .bss           0x001d3b10        0x0 libcrypto_pic.a(m_ripemd.pico)
 .bss           0x001d3b10        0x0 libcrypto_pic.a(m_mdc2.pico)
 .bss           0x001d3b10        0x0 libcrypto_pic.a(m_dss1.pico)
 .bss           0x001d3b10        0x0 libcrypto_pic.a(m_dss.pico)
 .bss           0x001d3b10        0x0 libcrypto_pic.a(m_sha.pico)
 .bss           0x001d3b10        0x0 libcrypto_pic.a(m_md4.pico)
 .bss           0x001d3b10        0x0 libcrypto_pic.a(e_rc5.pico)
 .bss           0x001d3b10        0x0 libcrypto_pic.a(e_cast.pico)
 .bss           0x001d3b10        0x0 libcrypto_pic.a(e_rc2.pico)
 .bss           0x001d3b10        0x0 libcrypto_pic.a(e_xcbc_d.pico)
 .bss           0x001d3b10        0x0 libcrypto_pic.a(e_camellia.pico)
 .bss           0x001d3b10        0x0 libcrypto_pic.a(e_aes.pico)
 .bss           0x001d3b10        0x0 libcrypto_pic.a(e_rc4.pico)
 .bss           0x001d3b10        0x0 libcrypto_pic.a(e_des3.pico)
 .bss           0x001d3b10        0x0 libcrypto_pic.a(e_idea.pico)
 .bss           0x001d3b10        0x0 libcrypto_pic.a(e_bf.pico)
 .bss           0x001d3b10        0x0 libcrypto_pic.a(e_des.pico)
 .bss           0x001d3b10       0x18 libcrypto_pic.a(gost_eng.pico)
 .bss           0x001d3b28        0x0 libcrypto_pic.a(e_seed.pico)
 .bss           0x001d3b28       0x70 libcrypto_pic.a(e_padlock.pico)
 .bss           0x001d3b98       0x44 libcrypto_pic.a(e_ubsec.pico)
 .bss           0x001d3bdc       0x48 libcrypto_pic.a(e_sureware.pico)
 .bss           0x001d3c24       0x14 libcrypto_pic.a(e_nuron.pico)
 .bss           0x001d3c38       0x20 libcrypto_pic.a(e_cswift.pico)
                0x001d3c38                p_CSwift_AcquireAccContext
                0x001d3c3c                p_CSwift_AttachKeyParam
                0x001d3c40                p_CSwift_SimpleRequest
                0x001d3c44                p_CSwift_ReleaseAccContext
 .bss           0x001d3c58       0x4c libcrypto_pic.a(e_chil.pico)
 .bss           0x001d3ca4       0x1c libcrypto_pic.a(e_atalla.pico)
 .bss           0x001d3cc0      0x830 libcrypto_pic.a(e_aep.pico)
 .bss           0x001d44f0       0x2c libcrypto_pic.a(e_4758cca.pico)
 .bss           0x001d451c        0x0 libcrypto_pic.a(eng_rsax.pico)
 .bss           0x001d451c        0x0 libcrypto_pic.a(eng_rdrand.pico)
 .bss           0x001d451c        0x0 libcrypto_pic.a(eng_dyn.pico)
 .bss           0x001d451c        0x0 libcrypto_pic.a(eng_pkey.pico)
 .bss           0x001d451c        0x0 libcrypto_pic.a(ofb64ede.pico)
 .bss           0x001d451c        0x0 libcrypto_pic.a(cfb64ede.pico)
 .bss           0x001d451c        0x0 libcrypto_pic.a(xcbc_enc.pico)
 .bss           0x001d451c        0x0 libcrypto_pic.a(ofb64enc.pico)
 .bss           0x001d451c       0x21 libcrypto_pic.a(ecb_enc.pico)
 *fill*         0x001d453d        0x3 
 .bss           0x001d4540        0x0 libcrypto_pic.a(ecb3_enc.pico)
 .bss           0x001d4540        0x0 libcrypto_pic.a(cfb_enc.pico)
 .bss           0x001d4540        0x0 libcrypto_pic.a(cfb64enc.pico)
 .bss           0x001d4540        0x0 libcrypto_pic.a(c_ofb64.pico)
 .bss           0x001d4540        0x0 libcrypto_pic.a(c_cfb64.pico)
 .bss           0x001d4540        0x0 libcrypto_pic.a(c_ecb.pico)
 .bss           0x001d4540        0x0 libcrypto_pic.a(c_enc.pico)
 .bss           0x001d4540        0x0 libcrypto_pic.a(bf_ofb64.pico)
 .bss           0x001d4540        0x0 libcrypto_pic.a(bf_cfb64.pico)
 .bss           0x001d4540        0x0 libcrypto_pic.a(bf_ecb.pico)
 .bss           0x001d4540        0x0 libcrypto_pic.a(bf_skey.pico)
 .bss           0x001d4540        0x0 libcrypto_pic.a(bf-586.pico)
 .bss           0x001d4540        0x0 libcrypto_pic.a(x_pkey.pico)
 .bss           0x001d4540        0x0 libcrypto_pic.a(nsseq.pico)
 .bss           0x001d4540        0x0 libcrypto_pic.a(aesni-x86.pico)
 .bss           0x001d4540        0x0 libcrypto_pic.a(rc5ofb64.pico)
 .bss           0x001d4540        0x0 libcrypto_pic.a(rc5cfb64.pico)
 .bss           0x001d4540        0x0 libcrypto_pic.a(rc5_ecb.pico)
 .bss           0x001d4540        0x0 libcrypto_pic.a(seed_ofb.pico)
 .bss           0x001d4540        0x0 libcrypto_pic.a(seed_cfb.pico)
 .bss           0x001d4540        0x0 libcrypto_pic.a(seed_cbc.pico)
 .bss           0x001d4540        0x0 libcrypto_pic.a(seed_ecb.pico)
 .bss           0x001d4540        0x0 libcrypto_pic.a(seed.pico)
 .bss           0x001d4540        0x0 libcrypto_pic.a(mdc2dgst.pico)
 .bss           0x001d4540        0x0 libcrypto_pic.a(i_skey.pico)
 .bss           0x001d4540        0x0 libcrypto_pic.a(i_ecb.pico)
 .bss           0x001d4540        0x0 libcrypto_pic.a(i_ofb64.pico)
 .bss           0x001d4540        0x0 libcrypto_pic.a(i_cfb64.pico)
 .bss           0x001d4540        0x0 libcrypto_pic.a(sha_dgst.pico)
 .bss           0x001d4540        0x0 libcrypto_pic.a(rmd_dgst.pico)
 .bss           0x001d4540        0x0 libcrypto_pic.a(rc2ofb64.pico)
 .bss           0x001d4540        0x0 libcrypto_pic.a(rc2cfb64.pico)
 .bss           0x001d4540        0x0 libcrypto_pic.a(rc2_skey.pico)
 .bss           0x001d4540        0x0 libcrypto_pic.a(rc2_ecb.pico)
 .bss           0x001d4540        0x0 libcrypto_pic.a(pem_pkey.pico)
 .bss           0x001d4540        0x0 libcrypto_pic.a(pem_pk8.pico)
 .bss           0x001d4540        0x0 libcrypto_pic.a(md4_dgst.pico)
 .bss           0x001d4540        0x0 libcrypto_pic.a(cmll_utl.pico)
 .bss           0x001d4540        0x0 libcrypto_pic.a(cmll_ofb.pico)
 .bss           0x001d4540        0x0 libcrypto_pic.a(cmll_cfb.pico)
 .bss           0x001d4540        0x0 libcrypto_pic.a(cmll_ecb.pico)
 .bss           0x001d4540        0x0 libcrypto_pic.a(cmll_cbc.pico)
 .bss           0x001d4540        0x0 libcrypto_pic.a(xts128.pico)
 .bss           0x001d4540        0x0 libcrypto_pic.a(ccm128.pico)
 .bss           0x001d4540        0x0 libcrypto_pic.a(gcm128.pico)
 .bss           0x001d4540        0x0 libcrypto_pic.a(ofb128.pico)
 .bss           0x001d4540        0x0 libcrypto_pic.a(cfb128.pico)
 .bss           0x001d4540        0x0 libcrypto_pic.a(ctr128.pico)
 .bss           0x001d4540        0x0 libcrypto_pic.a(cbc128.pico)
 .bss           0x001d4540        0x0 libcrypto_pic.a(ghash-x86.pico)
 .bss           0x001d4540        0x0 libcrypto_pic.a(e_rc4_hmac_md5.pico)
 .bss           0x001d4540        0x0 libcrypto_pic.a(e_aes_cbc_hmac_sha1.pico)
 .bss           0x001d4540        0x0 libcrypto_pic.a(m_wp.pico)
 .bss           0x001d4540        0x0 libcrypto_pic.a(m_ecdsa.pico)
 .bss           0x001d4540        0x0 libcrypto_pic.a(gost_pmeth.pico)
 .bss           0x001d4540        0x0 libcrypto_pic.a(gost_md.pico)
 .bss           0x001d4540        0x0 libcrypto_pic.a(gost94_keyx.pico)
 .bss           0x001d4540        0x0 libcrypto_pic.a(gost2001_keyx.pico)
 .bss           0x001d4540        0x4 libcrypto_pic.a(set_key.pico)
                0x001d4540                _shadow_DES_check_key
 .bss           0x001d4544        0x0 libcrypto_pic.a(des-586.pico)
 .bss           0x001d4544        0x0 libcrypto_pic.a(c_skey.pico)
 .bss           0x001d4544       0x40 libcrypto_pic.a(wp_dgst.pico)
 .bss           0x001d4584        0x0 libcrypto_pic.a(wp_block.pico)
 .bss           0x001d4584        0x0 libcrypto_pic.a(i_cbc.pico)
 .bss           0x001d4584        0x0 libcrypto_pic.a(rc4_utl.pico)
 .bss           0x001d4584        0x0 libcrypto_pic.a(rc4-586.pico)
 .bss           0x001d4584        0x0 libcrypto_pic.a(rc2_cbc.pico)
 .bss           0x001d4584        0x0 libcrypto_pic.a(cmll_misc.pico)
 .bss           0x001d4584        0x0 libcrypto_pic.a(camellia.pico)
 .bss           0x001d4584        0x0 libcrypto_pic.a(gost_keywrap.pico)
 .bss           0x001d4584        0x0 libcrypto_pic.a(gosthash.pico)
 .bss           0x001d4584        0x0 libcrypto_pic.a(gost_crypt.pico)
 .bss           0x001d4584        0x0 libcrypto_pic.a(gost_ameth.pico)
 .bss           0x001d4584        0x0 libcrypto_pic.a(gost89.pico)
 .bss           0x001d4584        0x0 libcrypto_pic.a(gost2001.pico)
 .bss           0x001d4584        0x0 libcrypto_pic.a(gost_sign.pico)
 .bss           0x001d4584        0x0 libcrypto_pic.a(gost_params.pico)
 .bss           0x001d4584        0x4 libcrypto_pic.a(gost_ctl.pico)
 .bss           0x001d4588        0x0 libcrypto_pic.a(gost_asn1.pico)
 .bss           0x001d4588        0x5 libcrypto_pic.a(e_gost_err.pico)
 *fill*         0x001d458d        0x3 
 .bss           0x001d4590        0x0 libcrypto_pic.a(v3_utl.pico)
 .bss           0x001d4590        0x0 libcrypto_pic.a(v3_sxnet.pico)
 .bss           0x001d4590        0x0 libcrypto_pic.a(v3_skey.pico)
 .bss           0x001d4590        0x4 libcrypto_pic.a(v3_purp.pico)
 .bss           0x001d4594        0x0 libcrypto_pic.a(v3_prn.pico)
 .bss           0x001d4594        0x0 libcrypto_pic.a(v3_pku.pico)
 .bss           0x001d4594        0x0 libcrypto_pic.a(v3_pci.pico)
 .bss           0x001d4594        0x0 libcrypto_pic.a(v3_pcia.pico)
 .bss           0x001d4594        0x0 libcrypto_pic.a(v3_ocsp.pico)
 .bss           0x001d4594        0x0 libcrypto_pic.a(ocsp_asn.pico)
 .bss           0x001d4594        0x0 libcrypto_pic.a(f_string.pico)
 .bss           0x001d4594        0x0 libcrypto_pic.a(v3_ncons.pico)
 .bss           0x001d4594        0x4 libcrypto_pic.a(v3_lib.pico)
 .bss           0x001d4598        0x0 libcrypto_pic.a(v3_int.pico)
 .bss           0x001d4598        0x0 libcrypto_pic.a(v3_info.pico)
 .bss           0x001d4598        0x0 libcrypto_pic.a(v3_ia5.pico)
 .bss           0x001d4598        0x0 libcrypto_pic.a(v3_extku.pico)
 .bss           0x001d4598        0x0 libcrypto_pic.a(v3_enum.pico)
 .bss           0x001d4598        0x0 libcrypto_pic.a(v3_bitst.pico)
 .bss           0x001d4598        0x0 libcrypto_pic.a(v3_bcons.pico)
 .bss           0x001d4598        0x0 libcrypto_pic.a(v3_akey.pico)
 .bss           0x001d4598        0x0 libcrypto_pic.a(v3_genn.pico)
 .bss           0x001d4598        0x0 libcrypto_pic.a(v3_crld.pico)
 .bss           0x001d4598        0x0 libcrypto_pic.a(v3_alt.pico)
 .bss           0x001d4598        0x0 libcrypto_pic.a(v3_cpols.pico)
 .bss           0x001d4598        0x0 libcrypto_pic.a(v3_conf.pico)
 .bss           0x001d4598        0x0 libcrypto_pic.a(x509_req.pico)
 .bss           0x001d4598        0x4 libcrypto_pic.a(asn1_gen.pico)
 .bss           0x001d459c        0x0 libcrypto_pic.a(x509rset.pico)
 .bss           0x001d459c        0x8 libcrypto_pic.a(conf_mod.pico)
 .bss           0x001d45a4        0x0 libcrypto_pic.a(x509_def.pico)
 .bss           0x001d45a4        0x0 libcrypto_pic.a(pcy_tree.pico)
 .bss           0x001d45a4        0x0 libcrypto_pic.a(pcy_node.pico)
 .bss           0x001d45a4        0x0 libcrypto_pic.a(pcy_lib.pico)
 .bss           0x001d45a4        0x0 libcrypto_pic.a(pcy_map.pico)
 .bss           0x001d45a4        0x0 libcrypto_pic.a(v3_pmaps.pico)
 .bss           0x001d45a4        0x0 libcrypto_pic.a(x_all.pico)
 .bss           0x001d45a4        0x0 libcrypto_pic.a(i2d_pr.pico)
 .bss           0x001d45a4        0x0 libcrypto_pic.a(d2i_pr.pico)
 .bss           0x001d45a4        0x0 libcrypto_pic.a(x_spki.pico)
 .bss           0x001d45a4        0x0 libcrypto_pic.a(x_req.pico)
 .bss           0x001d45a4        0x0 libcrypto_pic.a(a_digest.pico)
 .bss           0x001d45a4        0x0 libcrypto_pic.a(a_sign.pico)
 .bss           0x001d45a4        0x0 libcrypto_pic.a(evp_pkey.pico)
 .bss           0x001d45a4        0x0 libcrypto_pic.a(x509_lu.pico)
 .bss           0x001d45a4        0x0 libcrypto_pic.a(x509name.pico)
 .bss           0x001d45a4        0x0 libcrypto_pic.a(a_print.pico)
 .bss           0x001d45a4        0x0 libcrypto_pic.a(x509_vfy.pico)
 .bss           0x001d45a4        0x4 libcrypto_pic.a(x509_vpm.pico)
 .bss           0x001d45a8        0x4 libcrypto_pic.a(x509_trs.pico)
 .bss           0x001d45ac        0x0 libcrypto_pic.a(x509_cmp.pico)
 .bss           0x001d45ac       0xe9 libcrypto_pic.a(ui_openssl.pico)
 *fill*         0x001d4695        0x3 
 .bss           0x001d4698        0x0 libcrypto_pic.a(stack.pico)
 .bss           0x001d4698        0x0 libcrypto_pic.a(rsa_crpt.pico)
 .bss           0x001d4698        0x0 libcrypto_pic.a(rsa_pss.pico)
 .bss           0x001d4698        0x0 libcrypto_pic.a(rsa_pmeth.pico)
 .bss           0x001d4698        0x0 libcrypto_pic.a(rsa_saos.pico)
 .bss           0x001d4698        0x0 libcrypto_pic.a(rsa_gen.pico)
 .bss           0x001d4698        0x0 libcrypto_pic.a(rsa_ameth.pico)
 .bss           0x001d4698        0x0 libcrypto_pic.a(rsa_asn1.pico)
 .bss           0x001d4698        0x0 libcrypto_pic.a(f_int.pico)
 .bss           0x001d4698        0x0 libcrypto_pic.a(rsa_oaep.pico)
 .bss           0x001d4698        0x0 libcrypto_pic.a(rsa_ssl.pico)
 .bss           0x001d4698        0x0 libcrypto_pic.a(rsa_pk1.pico)
 .bss           0x001d4698        0x0 libcrypto_pic.a(rsa_sign.pico)
 .bss           0x001d4698        0x4 libcrypto_pic.a(rsa_lib.pico)
 .bss           0x001d469c        0x0 libcrypto_pic.a(rsa_eay.pico)
 .bss           0x001d469c        0x4 libcrypto_pic.a(tb_rsa.pico)
 .bss           0x001d46a0        0x0 libcrypto_pic.a(bn_blind.pico)
 .bss           0x001d46a0        0x0 libcrypto_pic.a(rsa_x931.pico)
 .bss           0x001d46a0        0x0 libcrypto_pic.a(rsa_none.pico)
 .bss           0x001d46a0        0x0 libcrypto_pic.a(rand_unix.pico)
 .bss           0x001d46a0        0x0 libcrypto_pic.a(rand_egd.pico)
 .bss           0x001d46a0        0x8 libcrypto_pic.a(rand_lib.pico)
 .bss           0x001d46a8      0x44f libcrypto_pic.a(md_rand.pico)
 *fill*         0x001d4af7        0x1 
 .bss           0x001d4af8        0x4 libcrypto_pic.a(tb_rand.pico)
 .bss           0x001d4afc        0x0 libcrypto_pic.a(pk7_attr.pico)
 .bss           0x001d4afc        0x0 libcrypto_pic.a(pk7_doit.pico)
 .bss           0x001d4afc        0x0 libcrypto_pic.a(pk7_lib.pico)
 .bss           0x001d4afc        0x0 libcrypto_pic.a(pk7_asn1.pico)
 .bss           0x001d4afc        0x0 libcrypto_pic.a(p12_p8e.pico)
 .bss           0x001d4afc        0x0 libcrypto_pic.a(p12_p8d.pico)
 .bss           0x001d4afc        0x0 libcrypto_pic.a(p12_utl.pico)
 .bss           0x001d4afc        0x0 libcrypto_pic.a(p12_add.pico)
 .bss           0x001d4afc        0x0 libcrypto_pic.a(p12_decr.pico)
 .bss           0x001d4afc        0x0 libcrypto_pic.a(p12_asn.pico)
 .bss           0x001d4afc        0x0 libcrypto_pic.a(x_sig.pico)
 .bss           0x001d4afc        0x0 libcrypto_pic.a(p12_key.pico)
 .bss           0x001d4afc        0x0 libcrypto_pic.a(p12_crpt.pico)
 .bss           0x001d4afc        0x0 libcrypto_pic.a(pem_oth.pico)
 .bss           0x001d4afc        0x0 libcrypto_pic.a(pem_lib.pico)
 .bss           0x001d4afc        0x0 libcrypto_pic.a(m_md5.pico)
 .bss           0x001d4afc       0x50 libcrypto_pic.a(evp_key.pico)
 .bss           0x001d4b4c        0x4 libcrypto_pic.a(ui_lib.pico)
 .bss           0x001d4b50        0x0 libcrypto_pic.a(md5_dgst.pico)
 .bss           0x001d4b50        0x0 libcrypto_pic.a(obj_lib.pico)
 .bss           0x001d4b50        0x8 libcrypto_pic.a(obj_dat.pico)
                0x001d4b50                obj_cleanup_defer
 .bss           0x001d4b58        0x0 libcrypto_pic.a(lhash.pico)
 .bss           0x001d4b58        0x0 libcrypto_pic.a(hm_pmeth.pico)
 .bss           0x001d4b58        0x0 libcrypto_pic.a(hm_ameth.pico)
 .bss           0x001d4b58       0x40 libcrypto_pic.a(hmac.pico)
 .bss           0x001d4b98        0x0 libcrypto_pic.a(pmeth_gn.pico)
 .bss           0x001d4b98        0x0 libcrypto_pic.a(m_sigver.pico)
 .bss           0x001d4b98        0x0 libcrypto_pic.a(pmeth_fn.pico)
 .bss           0x001d4b98        0x4 libcrypto_pic.a(pmeth_lib.pico)
                0x001d4b98                app_pkey_methods
 .bss           0x001d4b9c        0x0 libcrypto_pic.a(ec_pmeth.pico)
 .bss           0x001d4b9c        0x0 libcrypto_pic.a(dsa_pmeth.pico)
 .bss           0x001d4b9c        0x0 libcrypto_pic.a(dsa_key.pico)
 .bss           0x001d4b9c        0x0 libcrypto_pic.a(dsa_gen.pico)
 .bss           0x001d4b9c        0x0 libcrypto_pic.a(dh_pmeth.pico)
 .bss           0x001d4b9c        0x0 libcrypto_pic.a(dh_gen.pico)
 .bss           0x001d4b9c        0x0 libcrypto_pic.a(cm_pmeth.pico)
 .bss           0x001d4b9c        0x0 libcrypto_pic.a(ecs_vrf.pico)
 .bss           0x001d4b9c        0x0 libcrypto_pic.a(ech_key.pico)
 .bss           0x001d4b9c        0x4 libcrypto_pic.a(ech_lib.pico)
 .bss           0x001d4ba0        0x4 libcrypto_pic.a(tb_ecdh.pico)
 .bss           0x001d4ba4        0x0 libcrypto_pic.a(ech_ossl.pico)
 .bss           0x001d4ba4        0x0 libcrypto_pic.a(p5_crpt2.pico)
 .bss           0x001d4ba4        0x0 libcrypto_pic.a(p5_crpt.pico)
 .bss           0x001d4ba4        0x0 libcrypto_pic.a(p5_pbe.pico)
 .bss           0x001d4ba4        0x4 libcrypto_pic.a(evp_pbe.pico)
 .bss           0x001d4ba8        0x0 libcrypto_pic.a(bio_enc.pico)
 .bss           0x001d4ba8        0x0 libcrypto_pic.a(bio_md.pico)
 .bss           0x001d4ba8        0x0 libcrypto_pic.a(p_lib.pico)
 .bss           0x001d4ba8        0x0 libcrypto_pic.a(p_verify.pico)
 .bss           0x001d4ba8        0x0 libcrypto_pic.a(p_sign.pico)
 .bss           0x001d4ba8        0x0 libcrypto_pic.a(evp_enc.pico)
 .bss           0x001d4ba8        0x4 libcrypto_pic.a(tb_cipher.pico)
 .bss           0x001d4bac        0x0 libcrypto_pic.a(digest.pico)
 .bss           0x001d4bac        0x4 libcrypto_pic.a(tb_digest.pico)
 .bss           0x001d4bb0     0x1684 libcrypto_pic.a(err.pico)
 .bss           0x001d6234        0x4 libcrypto_pic.a(tb_pkmeth.pico)
 .bss           0x001d6238        0x4 libcrypto_pic.a(tb_ecdsa.pico)
 .bss           0x001d623c        0x4 libcrypto_pic.a(tb_dh.pico)
 .bss           0x001d6240        0x4 libcrypto_pic.a(tb_dsa.pico)
 .bss           0x001d6244        0x4 libcrypto_pic.a(tb_asnmth.pico)
 .bss           0x001d6248        0x4 libcrypto_pic.a(eng_table.pico)
 .bss           0x001d624c        0x8 libcrypto_pic.a(eng_list.pico)
 .bss           0x001d6254        0x0 libcrypto_pic.a(eng_ctrl.pico)
 .bss           0x001d6254        0x0 libcrypto_pic.a(ecs_sign.pico)
 .bss           0x001d6254        0x0 libcrypto_pic.a(ecs_ossl.pico)
 .bss           0x001d6254        0x0 libcrypto_pic.a(ecs_asn1.pico)
 .bss           0x001d6254        0x0 libcrypto_pic.a(ecp_oct.pico)
 .bss           0x001d6254        0x0 libcrypto_pic.a(bn_sqrt.pico)
 .bss           0x001d6254        0x0 libcrypto_pic.a(bn_kron.pico)
 .bss           0x001d6254        0x0 libcrypto_pic.a(ec2_oct.pico)
 .bss           0x001d6254        0x0 libcrypto_pic.a(ec_ameth.pico)
 .bss           0x001d6254        0x4 libcrypto_pic.a(ecs_lib.pico)
 .bss           0x001d6258        0x0 libcrypto_pic.a(eck_prn.pico)
 .bss           0x001d6258        0x0 libcrypto_pic.a(ec_print.pico)
 .bss           0x001d6258        0x0 libcrypto_pic.a(ec_asn1.pico)
 .bss           0x001d6258       0x14 libcrypto_pic.a(bn_print.pico)
 .bss           0x001d626c        0x0 libcrypto_pic.a(ec_oct.pico)
 .bss           0x001d626c        0x0 libcrypto_pic.a(ec_mult.pico)
 .bss           0x001d626c        0x0 libcrypto_pic.a(dso_openssl.pico)
 .bss           0x001d626c        0x0 libcrypto_pic.a(dso_dlfcn.pico)
 .bss           0x001d626c        0x4 libcrypto_pic.a(dso_lib.pico)
 .bss           0x001d6270        0x0 libcrypto_pic.a(dsa_ameth.pico)
 .bss           0x001d6270        0x0 libcrypto_pic.a(dsa_asn1.pico)
 .bss           0x001d6270        0x0 libcrypto_pic.a(dsa_vrf.pico)
 .bss           0x001d6270        0x0 libcrypto_pic.a(x86cpuid.pico)
 .bss           0x001d6270       0x20 libcrypto_pic.a(mem_dbg.pico)
 .bss           0x001d6290        0x0 libcrypto_pic.a(conf_def.pico)
 .bss           0x001d6290        0x4 libcrypto_pic.a(conf_lib.pico)
 .bss           0x001d6294        0x0 libcrypto_pic.a(conf_api.pico)
 .bss           0x001d6294        0x0 libcrypto_pic.a(cms_pwri.pico)
 .bss           0x001d6294        0x0 libcrypto_pic.a(p5_pbev2.pico)
 .bss           0x001d6294        0x0 libcrypto_pic.a(asn_pack.pico)
 .bss           0x001d6294        0x0 libcrypto_pic.a(a_set.pico)
 .bss           0x001d6294        0x0 libcrypto_pic.a(cms_enc.pico)
 .bss           0x001d6294        0x0 libcrypto_pic.a(cms_env.pico)
 .bss           0x001d6294        0x0 libcrypto_pic.a(aes_wrap.pico)
 .bss           0x001d6294        0x0 libcrypto_pic.a(aes_misc.pico)
 .bss           0x001d6294        0x0 libcrypto_pic.a(aes-586.pico)
 .bss           0x001d6294        0x0 libcrypto_pic.a(cms_dd.pico)
 .bss           0x001d6294        0x0 libcrypto_pic.a(cms_sd.pico)
 .bss           0x001d6294        0x0 libcrypto_pic.a(cms_att.pico)
 .bss           0x001d6294        0x0 libcrypto_pic.a(x509_att.pico)
 .bss           0x001d6294        0x4 libcrypto_pic.a(a_strnid.pico)
 .bss           0x001d6298        0x0 libcrypto_pic.a(cms_io.pico)
 .bss           0x001d6298        0x0 libcrypto_pic.a(asn_mime.pico)
 .bss           0x001d6298        0x0 libcrypto_pic.a(a_i2d_fp.pico)
 .bss           0x001d6298        0x0 libcrypto_pic.a(a_d2i_fp.pico)
 .bss           0x001d6298        0x0 libcrypto_pic.a(bio_b64.pico)
 .bss           0x001d6298        0x0 libcrypto_pic.a(encode.pico)
 .bss           0x001d6298        0x0 libcrypto_pic.a(bf_buff.pico)
 .bss           0x001d6298        0x0 libcrypto_pic.a(bio_ndef.pico)
 .bss           0x001d6298        0x0 libcrypto_pic.a(bio_asn1.pico)
 .bss           0x001d6298        0x0 libcrypto_pic.a(cms_asn1.pico)
 .bss           0x001d6298        0x0 libcrypto_pic.a(cms_lib.pico)
 .bss           0x001d6298        0x0 libcrypto_pic.a(bss_null.pico)
 .bss           0x001d6298        0x0 libcrypto_pic.a(bss_mem.pico)
 .bss           0x001d6298        0x0 libcrypto_pic.a(tasn_prn.pico)
 .bss           0x001d6298        0x0 libcrypto_pic.a(x_crl.pico)
 .bss           0x001d6298        0x0 libcrypto_pic.a(a_verify.pico)
 .bss           0x001d6298        0x0 libcrypto_pic.a(a_enum.pico)
 .bss           0x001d6298        0x0 libcrypto_pic.a(names.pico)
 .bss           0x001d6298        0xc libcrypto_pic.a(o_names.pico)
 .bss           0x001d62a4        0x0 libcrypto_pic.a(tasn_typ.pico)
 .bss           0x001d62a4        0x0 libcrypto_pic.a(t_x509.pico)
 .bss           0x001d62a4        0x0 libcrypto_pic.a(obj_xref.pico)
 .bss           0x001d62a4        0x0 libcrypto_pic.a(m_sha1.pico)
 .bss           0x001d62a4        0x0 libcrypto_pic.a(err_prn.pico)
 .bss           0x001d62a4        0x4 libcrypto_pic.a(ameth_lib.pico)
 .bss           0x001d62a8        0x0 libcrypto_pic.a(t_x509a.pico)
 .bss           0x001d62a8        0x0 libcrypto_pic.a(sha1dgst.pico)
 .bss           0x001d62a8        0x0 libcrypto_pic.a(dh_ameth.pico)
 .bss           0x001d62a8        0x0 libcrypto_pic.a(dh_asn1.pico)
 .bss           0x001d62a8        0x0 libcrypto_pic.a(cm_ameth.pico)
 .bss           0x001d62a8       0x20 libcrypto_pic.a(cmac.pico)
 .bss           0x001d62c8        0x0 libcrypto_pic.a(p8_pkey.pico)
 .bss           0x001d62c8        0x0 libcrypto_pic.a(t_pkey.pico)
 .bss           0x001d62c8        0x0 libcrypto_pic.a(x_long.pico)
 .bss           0x001d62c8        0x0 libcrypto_pic.a(x_bignum.pico)
 .bss           0x001d62c8        0x0 libcrypto_pic.a(x_attrib.pico)
 .bss           0x001d62c8        0x0 libcrypto_pic.a(x_x509a.pico)
 .bss           0x001d62c8        0x0 libcrypto_pic.a(x_x509.pico)
 .bss           0x001d62c8        0x0 libcrypto_pic.a(x_name.pico)
 .bss           0x001d62c8        0x0 libcrypto_pic.a(x_pubkey.pico)
 .bss           0x001d62c8        0x0 libcrypto_pic.a(x_val.pico)
 .bss           0x001d62c8        0x0 libcrypto_pic.a(x_algor.pico)
 .bss           0x001d62c8        0x0 libcrypto_pic.a(a_strex.pico)
 .bss           0x001d62c8        0x0 libcrypto_pic.a(a_mbstr.pico)
 .bss           0x001d62c8        0x0 libcrypto_pic.a(a_utf8.pico)
 .bss           0x001d62c8        0x0 libcrypto_pic.a(a_time.pico)
 .bss           0x001d62c8        0x0 libcrypto_pic.a(a_gentm.pico)
 .bss           0x001d62c8        0x0 libcrypto_pic.a(a_utctm.pico)
 .bss           0x001d62c8        0x0 libcrypto_pic.a(v3_asid.pico)
 .bss           0x001d62c8        0x0 libcrypto_pic.a(v3_akeya.pico)
 .bss           0x001d62c8        0x0 libcrypto_pic.a(v3_addr.pico)
 .bss           0x001d62c8        0x0 libcrypto_pic.a(pcy_cache.pico)
 .bss           0x001d62c8        0x0 libcrypto_pic.a(x509_ext.pico)
 .bss           0x001d62c8        0x0 libcrypto_pic.a(x509_v3.pico)
 .bss           0x001d62c8        0x0 libcrypto_pic.a(x509_obj.pico)
 .bss           0x001d62c8        0x0 libcrypto_pic.a(evp_lib.pico)
 .bss           0x001d62c8        0x0 libcrypto_pic.a(ec_key.pico)
 .bss           0x001d62c8        0x4 libcrypto_pic.a(dsa_lib.pico)
 .bss           0x001d62cc        0x4 libcrypto_pic.a(dh_lib.pico)
 .bss           0x001d62d0        0x0 libcrypto_pic.a(dh_key.pico)
 .bss           0x001d62d0        0x0 libcrypto_pic.a(o_time.pico)
 .bss           0x001d62d0        0x0 libcrypto_pic.a(bss_file.pico)
 .bss           0x001d62d0        0x0 libcrypto_pic.a(evp_asn1.pico)
 .bss           0x001d62d0        0x0 libcrypto_pic.a(a_bytes.pico)
 .bss           0x001d62d0        0x0 libcrypto_pic.a(asn1_par.pico)
 .bss           0x001d62d0        0x0 libcrypto_pic.a(x_exten.pico)
 .bss           0x001d62d0        0x0 libcrypto_pic.a(a_bool.pico)
 .bss           0x001d62d0        0x0 libcrypto_pic.a(a_dup.pico)
 .bss           0x001d62d0        0x0 libcrypto_pic.a(a_octet.pico)
 .bss           0x001d62d0        0x0 libcrypto_pic.a(v3_pcons.pico)
 .bss           0x001d62d0        0x0 libcrypto_pic.a(pcy_data.pico)
 .bss           0x001d62d0        0x0 libcrypto_pic.a(eng_init.pico)
 .bss           0x001d62d0        0x8 libcrypto_pic.a(eng_lib.pico)
 .bss           0x001d62d8        0x0 libcrypto_pic.a(ec_curve.pico)
 .bss           0x001d62d8        0x0 libcrypto_pic.a(ec_cvt.pico)
 .bss           0x001d62d8        0x0 libcrypto_pic.a(ecp_nist.pico)
 .bss           0x001d62d8        0x0 libcrypto_pic.a(ecp_mont.pico)
 .bss           0x001d62d8        0x0 libcrypto_pic.a(ecp_smpl.pico)
 .bss           0x001d62d8        0x0 libcrypto_pic.a(dsa_ossl.pico)
 .bss           0x001d62d8        0x0 libcrypto_pic.a(dsa_sign.pico)
 .bss           0x001d62d8        0x0 libcrypto_pic.a(dh_check.pico)
 .bss           0x001d62d8        0x0 libcrypto_pic.a(bn_nist.pico)
 .bss           0x001d62d8        0x0 libcrypto_pic.a(bn_exp2.pico)
 .bss           0x001d62d8        0x0 libcrypto_pic.a(bn_prime.pico)
 .bss           0x001d62d8        0x0 libcrypto_pic.a(bn_exp.pico)
 .bss           0x001d62d8        0x0 libcrypto_pic.a(b_dump.pico)
 .bss           0x001d62d8        0x0 libcrypto_pic.a(tasn_dec.pico)
 .bss           0x001d62d8        0x0 libcrypto_pic.a(tasn_enc.pico)
 .bss           0x001d62d8        0x0 libcrypto_pic.a(tasn_new.pico)
 .bss           0x001d62d8        0x0 libcrypto_pic.a(a_type.pico)
 .bss           0x001d62d8        0x0 libcrypto_pic.a(a_bitstr.pico)
 .bss           0x001d62d8        0x0 libcrypto_pic.a(ec2_smpl.pico)
 .bss           0x001d62d8        0x0 libcrypto_pic.a(buffer.pico)
 .bss           0x001d62d8        0x0 libcrypto_pic.a(bn_mont.pico)
 .bss           0x001d62d8        0x0 libcrypto_pic.a(bn_recp.pico)
 .bss           0x001d62d8        0x0 libcrypto_pic.a(bn_gcd.pico)
 .bss           0x001d62d8        0x0 libcrypto_pic.a(bn_mod.pico)
 .bss           0x001d62d8        0x0 libcrypto_pic.a(bn_div.pico)
 .bss           0x001d62d8        0x0 libcrypto_pic.a(tasn_fre.pico)
 .bss           0x001d62d8        0x0 libcrypto_pic.a(a_object.pico)
 .bss           0x001d62d8        0x0 libcrypto_pic.a(ec2_mult.pico)
 .bss           0x001d62d8        0x0 libcrypto_pic.a(ec_lib.pico)
 .bss           0x001d62d8        0x0 libcrypto_pic.a(bn_gf2m.pico)
 .bss           0x001d62d8        0x0 libcrypto_pic.a(bn_sqr.pico)
 .bss           0x001d62d8        0x0 libcrypto_pic.a(bn_mul.pico)
 .bss           0x001d62d8        0x0 libcrypto_pic.a(bn_word.pico)
 .bss           0x001d62d8        0x0 libcrypto_pic.a(bn_shift.pico)
 .bss           0x001d62d8        0x0 libcrypto_pic.a(bn_rand.pico)
 .bss           0x001d62d8        0x0 libcrypto_pic.a(bn_ctx.pico)
 .bss           0x001d62d8        0x0 libcrypto_pic.a(bn_add.pico)
 .bss           0x001d62d8        0x0 libcrypto_pic.a(x86.pico)
 .bss           0x001d62d8        0x0 libcrypto_pic.a(tasn_utl.pico)
 .bss           0x001d62d8        0x0 libcrypto_pic.a(a_int.pico)
 .bss           0x001d62d8       0x10 libcrypto_pic.a(bn_lib.pico)
 .bss           0x001d62e8        0x0 libcrypto_pic.a(asn1_lib.pico)
 .bss           0x001d62e8        0x0 libcrypto_pic.a(b_print.pico)
 .bss           0x001d62e8        0x0 libcrypto_pic.a(bio_lib.pico)
 .bss           0x001d62e8        0x8 libcrypto_pic.a(ex_data.pico)
 .bss           0x001d62f0       0x29 libcrypto_pic.a(cryptlib.pico)
                0x001d62f0                OPENSSL_NONPIC_relocated
 *fill*         0x001d6319        0x3 
 .bss           0x001d631c        0x0 libcrypto_pic.a(buf_str.pico)
 .bss           0x001d631c       0x18 libcrypto_pic.a(mem.pico)
 .bss           0x001d6334        0x1 libcrypto_pic.a(o_init.pico)
 *fill*         0x001d6335        0x3 
 .bss           0x001d6338        0x0 /usr/lib/crtendS.o
 .bss           0x001d6338        0x0 /usr/lib/crtn.o
 *(COMMON)
 COMMON         0x001d6338        0x8 libcrypto_pic.a(rc4-586.pico)
                0x001d6338                OPENSSL_ia32cap_P
 COMMON         0x001d6340        0x8 libcrypto_pic.a(obj_xref.pico)
                0x001d6340                sigx_app
                0x001d6344                sig_app
                0x001d6348                . = ALIGN ((. != 0x0)?0x4:0x1)
                0x001d6348                . = ALIGN (0x4)
                0x001d6348                . = ALIGN (0x4)
                0x001d6348                _end = .
                0x001d6348                PROVIDE (end, .)
                0x001d6348                . = DATA_SEGMENT_END (.)

.stab
 *(.stab)

.stabstr
 *(.stabstr)

.stab.excl
 *(.stab.excl)

.stab.exclstr
 *(.stab.exclstr)

.stab.index
 *(.stab.index)

.stab.indexstr
 *(.stab.indexstr)

.comment        0x00000000       0x2f
 *(.comment)
 .comment       0x00000000       0x2f libcrypto_pic.a(rc5_enc_dummy.pico)
                                 0x30 (size before relaxing)
 .comment       0x00000000       0x30 libcrypto_pic.a(rc5_skey_dummy.pico)
 .comment       0x00000000       0x30 libcrypto_pic.a(mdc2_one.pico)
 .comment       0x00000000       0x30 libcrypto_pic.a(x509type.pico)
 .comment       0x00000000       0x30 libcrypto_pic.a(x509cset.pico)
 .comment       0x00000000       0x30 libcrypto_pic.a(x509spki.pico)
 .comment       0x00000000       0x30 libcrypto_pic.a(x509_r2x.pico)
 .comment       0x00000000       0x30 libcrypto_pic.a(x509_d2.pico)
 .comment       0x00000000       0x30 libcrypto_pic.a(ts_conf.pico)
 .comment       0x00000000       0x30 libcrypto_pic.a(ts_verify_ctx.pico)
 .comment       0x00000000       0x30 libcrypto_pic.a(ts_rsp_verify.pico)
 .comment       0x00000000       0x30 libcrypto_pic.a(ts_rsp_sign.pico)
 .comment       0x00000000       0x30 libcrypto_pic.a(ts_rsp_print.pico)
 .comment       0x00000000       0x30 libcrypto_pic.a(ts_rsp_utils.pico)
 .comment       0x00000000       0x30 libcrypto_pic.a(ts_req_print.pico)
 .comment       0x00000000       0x30 libcrypto_pic.a(str_meth.pico)
 .comment       0x00000000       0x30 libcrypto_pic.a(str_mem.pico)
 .comment       0x00000000       0x30 libcrypto_pic.a(str_lib.pico)
 .comment       0x00000000       0x30 libcrypto_pic.a(str_err.pico)
 .comment       0x00000000       0x30 libcrypto_pic.a(srp_vfy.pico)
 .comment       0x00000000       0x30 libcrypto_pic.a(srp_lib.pico)
 .comment       0x00000000       0x30 libcrypto_pic.a(libc-sha256.pico)
 .comment       0x00000000       0x30 libcrypto_pic.a(libc-sha512.pico)
 .comment       0x00000000       0x30 libcrypto_pic.a(sha1_one.pico)
 .comment       0x00000000       0x30 libcrypto_pic.a(sha_one.pico)
 .comment       0x00000000       0x30 libcrypto_pic.a(rsa_prn.pico)
 .comment       0x00000000       0x30 libcrypto_pic.a(rsa_depr.pico)
 .comment       0x00000000       0x30 libcrypto_pic.a(rsa_null.pico)
 .comment       0x00000000       0x30 libcrypto_pic.a(rsa_chk.pico)
 .comment       0x00000000       0x30 libcrypto_pic.a(rmd_one.pico)
 .comment       0x00000000       0x30 libcrypto_pic.a(rand_os2.pico)
 .comment       0x00000000       0x30 libcrypto_pic.a(rand_win.pico)
 .comment       0x00000000       0x30 libcrypto_pic.a(randfile.pico)
 .comment       0x00000000       0x30 libcrypto_pic.a(pqueue.pico)
 .comment       0x00000000       0x30 libcrypto_pic.a(pk7_mime.pico)
 .comment       0x00000000       0x30 libcrypto_pic.a(pk7_smime.pico)
 .comment       0x00000000       0x30 libcrypto_pic.a(p12_npas.pico)
 .comment       0x00000000       0x30 libcrypto_pic.a(p12_kiss.pico)
 .comment       0x00000000       0x30 libcrypto_pic.a(p12_crt.pico)
 .comment       0x00000000       0x30 libcrypto_pic.a(p12_attr.pico)
 .comment       0x00000000       0x30 libcrypto_pic.a(pvkfmt.pico)
 .comment       0x00000000       0x30 libcrypto_pic.a(pem_seal.pico)
 .comment       0x00000000       0x30 libcrypto_pic.a(pem_sign.pico)
 .comment       0x00000000       0x30 libcrypto_pic.a(ocsp_vfy.pico)
 .comment       0x00000000       0x30 libcrypto_pic.a(ocsp_prn.pico)
 .comment       0x00000000       0x30 libcrypto_pic.a(ocsp_srv.pico)
 .comment       0x00000000       0x30 libcrypto_pic.a(ocsp_cl.pico)
 .comment       0x00000000       0x30 libcrypto_pic.a(ocsp_lib.pico)
 .comment       0x00000000       0x30 libcrypto_pic.a(ocsp_ht.pico)
 .comment       0x00000000       0x30 libcrypto_pic.a(ocsp_ext.pico)
 .comment       0x00000000       0x30 libcrypto_pic.a(md5_one.pico)
 .comment       0x00000000       0x30 libcrypto_pic.a(md4_one.pico)
 .comment       0x00000000       0x30 libcrypto_pic.a(md2_one.pico)
 .comment       0x00000000       0x30 libcrypto_pic.a(cmll_ctr.pico)
 .comment       0x00000000       0x30 libcrypto_pic.a(cts128.pico)
 .comment       0x00000000       0x30 libcrypto_pic.a(lh_stats.pico)
 .comment       0x00000000       0x30 libcrypto_pic.a(krb5_asn.pico)
 .comment       0x00000000       0x30 libcrypto_pic.a(evp_fips.pico)
 .comment       0x00000000       0x30 libcrypto_pic.a(bio_ok.pico)
 .comment       0x00000000       0x30 libcrypto_pic.a(e_null.pico)
 .comment       0x00000000       0x30 libcrypto_pic.a(p_seal.pico)
 .comment       0x00000000       0x30 libcrypto_pic.a(p_open.pico)
 .comment       0x00000000       0x30 libcrypto_pic.a(m_md2.pico)
 .comment       0x00000000       0x30 libcrypto_pic.a(m_null.pico)
 .comment       0x00000000       0x30 libcrypto_pic.a(evp_acnf.pico)
 .comment       0x00000000       0x30 libcrypto_pic.a(err_all.pico)
 .comment       0x00000000       0x30 libcrypto_pic.a(e_ubsec_err.pico)
 .comment       0x00000000       0x30 libcrypto_pic.a(e_sureware_err.pico)
 .comment       0x00000000       0x30 libcrypto_pic.a(e_nuron_err.pico)
 .comment       0x00000000       0x30 libcrypto_pic.a(e_gmp_err.pico)
 .comment       0x00000000       0x30 libcrypto_pic.a(e_gmp.pico)
 .comment       0x00000000       0x30 libcrypto_pic.a(e_cswift_err.pico)
 .comment       0x00000000       0x30 libcrypto_pic.a(e_chil_err.pico)
 .comment       0x00000000       0x30 libcrypto_pic.a(e_atalla_err.pico)
 .comment       0x00000000       0x30 libcrypto_pic.a(e_aep_err.pico)
 .comment       0x00000000       0x30 libcrypto_pic.a(e_4758cca_err.pico)
 .comment       0x00000000       0x30 libcrypto_pic.a(tb_store.pico)
 .comment       0x00000000       0x30 libcrypto_pic.a(eng_cryptodev.pico)
 .comment       0x00000000       0x30 libcrypto_pic.a(eng_openssl.pico)
 .comment       0x00000000       0x30 libcrypto_pic.a(eng_err.pico)
 .comment       0x00000000       0x30 libcrypto_pic.a(ecs_err.pico)
 .comment       0x00000000       0x30 libcrypto_pic.a(ech_err.pico)
 .comment       0x00000000       0x30 libcrypto_pic.a(ec_check.pico)
 .comment       0x00000000       0x30 libcrypto_pic.a(ec_err.pico)
 .comment       0x00000000       0x30 libcrypto_pic.a(dso_vms.pico)
 .comment       0x00000000       0x30 libcrypto_pic.a(dso_win32.pico)
 .comment       0x00000000       0x30 libcrypto_pic.a(dso_null.pico)
 .comment       0x00000000       0x30 libcrypto_pic.a(dso_err.pico)
 .comment       0x00000000       0x30 libcrypto_pic.a(dso_dl.pico)
 .comment       0x00000000       0x30 libcrypto_pic.a(dsa_prn.pico)
 .comment       0x00000000       0x30 libcrypto_pic.a(dsa_depr.pico)
 .comment       0x00000000       0x30 libcrypto_pic.a(dsa_err.pico)
 .comment       0x00000000       0x30 libcrypto_pic.a(dh_prn.pico)
 .comment       0x00000000       0x30 libcrypto_pic.a(dh_depr.pico)
 .comment       0x00000000       0x30 libcrypto_pic.a(dh_err.pico)
 .comment       0x00000000       0x30 libcrypto_pic.a(read2pwd.pico)
 .comment       0x00000000       0x30 libcrypto_pic.a(ede_cbcm_enc.pico)
 .comment       0x00000000       0x30 libcrypto_pic.a(str2key.pico)
 .comment       0x00000000       0x30 libcrypto_pic.a(rpc_enc.pico)
 .comment       0x00000000       0x30 libcrypto_pic.a(rand_key.pico)
 .comment       0x00000000       0x30 libcrypto_pic.a(qud_cksm.pico)
 .comment       0x00000000       0x30 libcrypto_pic.a(ofb_enc.pico)
 .comment       0x00000000       0x30 libcrypto_pic.a(fcrypt.pico)
 .comment       0x00000000       0x30 libcrypto_pic.a(enc_writ.pico)
 .comment       0x00000000       0x30 libcrypto_pic.a(enc_read.pico)
 .comment       0x00000000       0x30 libcrypto_pic.a(cbc_enc.pico)
 .comment       0x00000000       0x30 libcrypto_pic.a(cbc_cksm.pico)
 .comment       0x00000000       0x30 libcrypto_pic.a(o_fips.pico)
 .comment       0x00000000       0x30 libcrypto_pic.a(o_dir.pico)
 .comment       0x00000000       0x30 libcrypto_pic.a(o_str.pico)
 .comment       0x00000000       0x30 libcrypto_pic.a(uid.pico)
 .comment       0x00000000       0x30 libcrypto_pic.a(ebcdic.pico)
 .comment       0x00000000       0x30 libcrypto_pic.a(cpt_err.pico)
 .comment       0x00000000       0x30 libcrypto_pic.a(cversion.pico)
 .comment       0x00000000       0x30 libcrypto_pic.a(conf_sap.pico)
 .comment       0x00000000       0x30 libcrypto_pic.a(conf_mall.pico)
 .comment       0x00000000       0x30 libcrypto_pic.a(conf_err.pico)
 .comment       0x00000000       0x30 libcrypto_pic.a(c_zlib.pico)
 .comment       0x00000000       0x30 libcrypto_pic.a(c_rle.pico)
 .comment       0x00000000       0x30 libcrypto_pic.a(comp_err.pico)
 .comment       0x00000000       0x30 libcrypto_pic.a(comp_lib.pico)
 .comment       0x00000000       0x30 libcrypto_pic.a(cms_cd.pico)
 .comment       0x00000000       0x30 libcrypto_pic.a(cms_err.pico)
 .comment       0x00000000       0x30 libcrypto_pic.a(cms_smime.pico)
 .comment       0x00000000       0x30 libcrypto_pic.a(buf_err.pico)
 .comment       0x00000000       0x30 libcrypto_pic.a(bn_x931p.pico)
 .comment       0x00000000       0x30 libcrypto_pic.a(bn_const.pico)
 .comment       0x00000000       0x30 libcrypto_pic.a(bn_depr.pico)
 .comment       0x00000000       0x30 libcrypto_pic.a(bn_mpi.pico)
 .comment       0x00000000       0x30 libcrypto_pic.a(bn_err.pico)
 .comment       0x00000000       0x30 libcrypto_pic.a(bss_dgram.pico)
 .comment       0x00000000       0x30 libcrypto_pic.a(bss_bio.pico)
 .comment       0x00000000       0x30 libcrypto_pic.a(bss_log.pico)
 .comment       0x00000000       0x30 libcrypto_pic.a(bf_nbio.pico)
 .comment       0x00000000       0x30 libcrypto_pic.a(bss_acpt.pico)
 .comment       0x00000000       0x30 libcrypto_pic.a(bf_null.pico)
 .comment       0x00000000       0x30 libcrypto_pic.a(bss_conn.pico)
 .comment       0x00000000       0x30 libcrypto_pic.a(bss_fd.pico)
 .comment       0x00000000       0x30 libcrypto_pic.a(bio_err.pico)
 .comment       0x00000000       0x30 libcrypto_pic.a(bio_cb.pico)
 .comment       0x00000000       0x30 libcrypto_pic.a(x_nx509.pico)
 .comment       0x00000000       0x30 libcrypto_pic.a(asn_moid.pico)
 .comment       0x00000000       0x30 libcrypto_pic.a(asn1_err.pico)
 .comment       0x00000000       0x30 libcrypto_pic.a(f_enum.pico)
 .comment       0x00000000       0x30 libcrypto_pic.a(n_pkey.pico)
 .comment       0x00000000       0x30 libcrypto_pic.a(t_bitst.pico)
 .comment       0x00000000       0x30 libcrypto_pic.a(t_spki.pico)
 .comment       0x00000000       0x30 libcrypto_pic.a(t_crl.pico)
 .comment       0x00000000       0x30 libcrypto_pic.a(t_req.pico)
 .comment       0x00000000       0x30 libcrypto_pic.a(i2d_pu.pico)
 .comment       0x00000000       0x30 libcrypto_pic.a(d2i_pu.pico)
 .comment       0x00000000       0x30 libcrypto_pic.a(aes_ecb.pico)
 .comment       0x00000000       0x30 libcrypto_pic.a(aes_ige.pico)
 .comment       0x00000000       0x30 libcrypto_pic.a(aes_ctr.pico)
 .comment       0x00000000       0x30 libcrypto_pic.a(aes_ofb.pico)
 .comment       0x00000000       0x30 libcrypto_pic.a(aes_cfb.pico)
 .comment       0x00000000       0x30 libcrypto_pic.a(v3err.pico)
 .comment       0x00000000       0x30 libcrypto_pic.a(by_dir.pico)
 .comment       0x00000000       0x30 libcrypto_pic.a(by_file.pico)
 .comment       0x00000000       0x30 libcrypto_pic.a(x509_txt.pico)
 .comment       0x00000000       0x30 libcrypto_pic.a(x509_err.pico)
 .comment       0x00000000       0x30 libcrypto_pic.a(x509_set.pico)
 .comment       0x00000000       0x30 libcrypto_pic.a(ui_util.pico)
 .comment       0x00000000       0x30 libcrypto_pic.a(ui_err.pico)
 .comment       0x00000000       0x30 libcrypto_pic.a(ts_lib.pico)
 .comment       0x00000000       0x30 libcrypto_pic.a(ts_req_utils.pico)
 .comment       0x00000000       0x30 libcrypto_pic.a(ts_err.pico)
 .comment       0x00000000       0x30 libcrypto_pic.a(txt_db.pico)
 .comment       0x00000000       0x30 libcrypto_pic.a(rsa_err.pico)
 .comment       0x00000000       0x30 libcrypto_pic.a(rand_err.pico)
 .comment       0x00000000       0x30 libcrypto_pic.a(pkcs7err.pico)
 .comment       0x00000000       0x30 libcrypto_pic.a(pk12err.pico)
 .comment       0x00000000       0x30 libcrypto_pic.a(p12_mutl.pico)
 .comment       0x00000000       0x30 libcrypto_pic.a(p12_init.pico)
 .comment       0x00000000       0x30 libcrypto_pic.a(pem_xaux.pico)
 .comment       0x00000000       0x30 libcrypto_pic.a(pem_err.pico)
 .comment       0x00000000       0x30 libcrypto_pic.a(pem_info.pico)
 .comment       0x00000000       0x30 libcrypto_pic.a(ocsp_err.pico)
 .comment       0x00000000       0x30 libcrypto_pic.a(obj_err.pico)
 .comment       0x00000000       0x30 libcrypto_pic.a(md2_dgst.pico)
 .comment       0x00000000       0x30 libcrypto_pic.a(c_all.pico)
 .comment       0x00000000       0x30 libcrypto_pic.a(evp_err.pico)
 .comment       0x00000000       0x30 libcrypto_pic.a(evp_cnf.pico)
 .comment       0x00000000       0x30 libcrypto_pic.a(p_dec.pico)
 .comment       0x00000000       0x30 libcrypto_pic.a(p_enc.pico)
 .comment       0x00000000       0x30 libcrypto_pic.a(eng_cnf.pico)
 .comment       0x00000000       0x30 libcrypto_pic.a(eng_all.pico)
 .comment       0x00000000       0x30 libcrypto_pic.a(eng_fat.pico)
 .comment       0x00000000       0x30 libcrypto_pic.a(pcbc_enc.pico)
 .comment       0x00000000       0x30 libcrypto_pic.a(cms_ess.pico)
 .comment       0x00000000       0x30 libcrypto_pic.a(b_sock.pico)
 .comment       0x00000000       0x30 libcrypto_pic.a(bss_sock.pico)
 .comment       0x00000000       0x30 libcrypto_pic.a(x_info.pico)
 .comment       0x00000000       0x30 libcrypto_pic.a(ts_asn1.pico)
 .comment       0x00000000       0x30 libcrypto_pic.a(pem_x509.pico)
 .comment       0x00000000       0x30 libcrypto_pic.a(pem_all.pico)
 .comment       0x00000000       0x30 libcrypto_pic.a(c_alld.pico)
 .comment       0x00000000       0x30 libcrypto_pic.a(c_allc.pico)
 .comment       0x00000000       0x30 libcrypto_pic.a(m_ripemd.pico)
 .comment       0x00000000       0x30 libcrypto_pic.a(m_mdc2.pico)
 .comment       0x00000000       0x30 libcrypto_pic.a(m_dss1.pico)
 .comment       0x00000000       0x30 libcrypto_pic.a(m_dss.pico)
 .comment       0x00000000       0x30 libcrypto_pic.a(m_sha.pico)
 .comment       0x00000000       0x30 libcrypto_pic.a(m_md4.pico)
 .comment       0x00000000       0x30 libcrypto_pic.a(e_rc5.pico)
 .comment       0x00000000       0x30 libcrypto_pic.a(e_cast.pico)
 .comment       0x00000000       0x30 libcrypto_pic.a(e_rc2.pico)
 .comment       0x00000000       0x30 libcrypto_pic.a(e_xcbc_d.pico)
 .comment       0x00000000       0x30 libcrypto_pic.a(e_camellia.pico)
 .comment       0x00000000       0x30 libcrypto_pic.a(e_aes.pico)
 .comment       0x00000000       0x30 libcrypto_pic.a(e_rc4.pico)
 .comment       0x00000000       0x30 libcrypto_pic.a(e_des3.pico)
 .comment       0x00000000       0x30 libcrypto_pic.a(e_idea.pico)
 .comment       0x00000000       0x30 libcrypto_pic.a(e_bf.pico)
 .comment       0x00000000       0x30 libcrypto_pic.a(e_des.pico)
 .comment       0x00000000       0x30 libcrypto_pic.a(gost_eng.pico)
 .comment       0x00000000       0x30 libcrypto_pic.a(e_seed.pico)
 .comment       0x00000000       0x30 libcrypto_pic.a(e_padlock.pico)
 .comment       0x00000000       0x30 libcrypto_pic.a(e_ubsec.pico)
 .comment       0x00000000       0x30 libcrypto_pic.a(e_sureware.pico)
 .comment       0x00000000       0x30 libcrypto_pic.a(e_nuron.pico)
 .comment       0x00000000       0x30 libcrypto_pic.a(e_cswift.pico)
 .comment       0x00000000       0x30 libcrypto_pic.a(e_chil.pico)
 .comment       0x00000000       0x30 libcrypto_pic.a(e_atalla.pico)
 .comment       0x00000000       0x30 libcrypto_pic.a(e_aep.pico)
 .comment       0x00000000       0x30 libcrypto_pic.a(e_4758cca.pico)
 .comment       0x00000000       0x30 libcrypto_pic.a(eng_rsax.pico)
 .comment       0x00000000       0x30 libcrypto_pic.a(eng_rdrand.pico)
 .comment       0x00000000       0x30 libcrypto_pic.a(eng_dyn.pico)
 .comment       0x00000000       0x30 libcrypto_pic.a(eng_pkey.pico)
 .comment       0x00000000       0x30 libcrypto_pic.a(ofb64ede.pico)
 .comment       0x00000000       0x30 libcrypto_pic.a(cfb64ede.pico)
 .comment       0x00000000       0x30 libcrypto_pic.a(xcbc_enc.pico)
 .comment       0x00000000       0x30 libcrypto_pic.a(ofb64enc.pico)
 .comment       0x00000000       0x30 libcrypto_pic.a(ecb_enc.pico)
 .comment       0x00000000       0x30 libcrypto_pic.a(ecb3_enc.pico)
 .comment       0x00000000       0x30 libcrypto_pic.a(cfb_enc.pico)
 .comment       0x00000000       0x30 libcrypto_pic.a(cfb64enc.pico)
 .comment       0x00000000       0x30 libcrypto_pic.a(c_ofb64.pico)
 .comment       0x00000000       0x30 libcrypto_pic.a(c_cfb64.pico)
 .comment       0x00000000       0x30 libcrypto_pic.a(c_ecb.pico)
 .comment       0x00000000       0x30 libcrypto_pic.a(c_enc.pico)
 .comment       0x00000000       0x30 libcrypto_pic.a(bf_ofb64.pico)
 .comment       0x00000000       0x30 libcrypto_pic.a(bf_cfb64.pico)
 .comment       0x00000000       0x30 libcrypto_pic.a(bf_ecb.pico)
 .comment       0x00000000       0x30 libcrypto_pic.a(bf_skey.pico)
 .comment       0x00000000       0x30 libcrypto_pic.a(x_pkey.pico)
 .comment       0x00000000       0x30 libcrypto_pic.a(nsseq.pico)
 .comment       0x00000000       0x30 libcrypto_pic.a(rc5ofb64.pico)
 .comment       0x00000000       0x30 libcrypto_pic.a(rc5cfb64.pico)
 .comment       0x00000000       0x30 libcrypto_pic.a(rc5_ecb.pico)
 .comment       0x00000000       0x30 libcrypto_pic.a(seed_ofb.pico)
 .comment       0x00000000       0x30 libcrypto_pic.a(seed_cfb.pico)
 .comment       0x00000000       0x30 libcrypto_pic.a(seed_cbc.pico)
 .comment       0x00000000       0x30 libcrypto_pic.a(seed_ecb.pico)
 .comment       0x00000000       0x30 libcrypto_pic.a(seed.pico)
 .comment       0x00000000       0x30 libcrypto_pic.a(mdc2dgst.pico)
 .comment       0x00000000       0x30 libcrypto_pic.a(i_skey.pico)
 .comment       0x00000000       0x30 libcrypto_pic.a(i_ecb.pico)
 .comment       0x00000000       0x30 libcrypto_pic.a(i_ofb64.pico)
 .comment       0x00000000       0x30 libcrypto_pic.a(i_cfb64.pico)
 .comment       0x00000000       0x30 libcrypto_pic.a(sha_dgst.pico)
 .comment       0x00000000       0x30 libcrypto_pic.a(rmd_dgst.pico)
 .comment       0x00000000       0x30 libcrypto_pic.a(rc2ofb64.pico)
 .comment       0x00000000       0x30 libcrypto_pic.a(rc2cfb64.pico)
 .comment       0x00000000       0x30 libcrypto_pic.a(rc2_skey.pico)
 .comment       0x00000000       0x30 libcrypto_pic.a(rc2_ecb.pico)
 .comment       0x00000000       0x30 libcrypto_pic.a(pem_pkey.pico)
 .comment       0x00000000       0x30 libcrypto_pic.a(pem_pk8.pico)
 .comment       0x00000000       0x30 libcrypto_pic.a(md4_dgst.pico)
 .comment       0x00000000       0x30 libcrypto_pic.a(cmll_utl.pico)
 .comment       0x00000000       0x30 libcrypto_pic.a(cmll_ofb.pico)
 .comment       0x00000000       0x30 libcrypto_pic.a(cmll_cfb.pico)
 .comment       0x00000000       0x30 libcrypto_pic.a(cmll_ecb.pico)
 .comment       0x00000000       0x30 libcrypto_pic.a(cmll_cbc.pico)
 .comment       0x00000000       0x30 libcrypto_pic.a(xts128.pico)
 .comment       0x00000000       0x30 libcrypto_pic.a(ccm128.pico)
 .comment       0x00000000       0x30 libcrypto_pic.a(gcm128.pico)
 .comment       0x00000000       0x30 libcrypto_pic.a(ofb128.pico)
 .comment       0x00000000       0x30 libcrypto_pic.a(cfb128.pico)
 .comment       0x00000000       0x30 libcrypto_pic.a(ctr128.pico)
 .comment       0x00000000       0x30 libcrypto_pic.a(cbc128.pico)
 .comment       0x00000000       0x30 libcrypto_pic.a(e_rc4_hmac_md5.pico)
 .comment       0x00000000       0x30 libcrypto_pic.a(e_aes_cbc_hmac_sha1.pico)
 .comment       0x00000000       0x30 libcrypto_pic.a(m_wp.pico)
 .comment       0x00000000       0x30 libcrypto_pic.a(m_ecdsa.pico)
 .comment       0x00000000       0x30 libcrypto_pic.a(gost_pmeth.pico)
 .comment       0x00000000       0x30 libcrypto_pic.a(gost_md.pico)
 .comment       0x00000000       0x30 libcrypto_pic.a(gost94_keyx.pico)
 .comment       0x00000000       0x30 libcrypto_pic.a(gost2001_keyx.pico)
 .comment       0x00000000       0x30 libcrypto_pic.a(set_key.pico)
 .comment       0x00000000       0x30 libcrypto_pic.a(c_skey.pico)
 .comment       0x00000000       0x30 libcrypto_pic.a(wp_dgst.pico)
 .comment       0x00000000       0x30 libcrypto_pic.a(wp_block.pico)
 .comment       0x00000000       0x30 libcrypto_pic.a(i_cbc.pico)
 .comment       0x00000000       0x30 libcrypto_pic.a(rc4_utl.pico)
 .comment       0x00000000       0x30 libcrypto_pic.a(rc2_cbc.pico)
 .comment       0x00000000       0x30 libcrypto_pic.a(cmll_misc.pico)
 .comment       0x00000000       0x30 libcrypto_pic.a(camellia.pico)
 .comment       0x00000000       0x30 libcrypto_pic.a(gost_keywrap.pico)
 .comment       0x00000000       0x30 libcrypto_pic.a(gosthash.pico)
 .comment       0x00000000       0x30 libcrypto_pic.a(gost_crypt.pico)
 .comment       0x00000000       0x30 libcrypto_pic.a(gost_ameth.pico)
 .comment       0x00000000       0x30 libcrypto_pic.a(gost89.pico)
 .comment       0x00000000       0x30 libcrypto_pic.a(gost2001.pico)
 .comment       0x00000000       0x30 libcrypto_pic.a(gost_sign.pico)
 .comment       0x00000000       0x30 libcrypto_pic.a(gost_params.pico)
 .comment       0x00000000       0x30 libcrypto_pic.a(gost_ctl.pico)
 .comment       0x00000000       0x30 libcrypto_pic.a(gost_asn1.pico)
 .comment       0x00000000       0x30 libcrypto_pic.a(e_gost_err.pico)
 .comment       0x00000000       0x30 libcrypto_pic.a(v3_utl.pico)
 .comment       0x00000000       0x30 libcrypto_pic.a(v3_sxnet.pico)
 .comment       0x00000000       0x30 libcrypto_pic.a(v3_skey.pico)
 .comment       0x00000000       0x30 libcrypto_pic.a(v3_purp.pico)
 .comment       0x00000000       0x30 libcrypto_pic.a(v3_prn.pico)
 .comment       0x00000000       0x30 libcrypto_pic.a(v3_pku.pico)
 .comment       0x00000000       0x30 libcrypto_pic.a(v3_pci.pico)
 .comment       0x00000000       0x30 libcrypto_pic.a(v3_pcia.pico)
 .comment       0x00000000       0x30 libcrypto_pic.a(v3_ocsp.pico)
 .comment       0x00000000       0x30 libcrypto_pic.a(ocsp_asn.pico)
 .comment       0x00000000       0x30 libcrypto_pic.a(f_string.pico)
 .comment       0x00000000       0x30 libcrypto_pic.a(v3_ncons.pico)
 .comment       0x00000000       0x30 libcrypto_pic.a(v3_lib.pico)
 .comment       0x00000000       0x30 libcrypto_pic.a(v3_int.pico)
 .comment       0x00000000       0x30 libcrypto_pic.a(v3_info.pico)
 .comment       0x00000000       0x30 libcrypto_pic.a(v3_ia5.pico)
 .comment       0x00000000       0x30 libcrypto_pic.a(v3_extku.pico)
 .comment       0x00000000       0x30 libcrypto_pic.a(v3_enum.pico)
 .comment       0x00000000       0x30 libcrypto_pic.a(v3_bitst.pico)
 .comment       0x00000000       0x30 libcrypto_pic.a(v3_bcons.pico)
 .comment       0x00000000       0x30 libcrypto_pic.a(v3_akey.pico)
 .comment       0x00000000       0x30 libcrypto_pic.a(v3_genn.pico)
 .comment       0x00000000       0x30 libcrypto_pic.a(v3_crld.pico)
 .comment       0x00000000       0x30 libcrypto_pic.a(v3_alt.pico)
 .comment       0x00000000       0x30 libcrypto_pic.a(v3_cpols.pico)
 .comment       0x00000000       0x30 libcrypto_pic.a(v3_conf.pico)
 .comment       0x00000000       0x30 libcrypto_pic.a(x509_req.pico)
 .comment       0x00000000       0x30 libcrypto_pic.a(asn1_gen.pico)
 .comment       0x00000000       0x30 libcrypto_pic.a(x509rset.pico)
 .comment       0x00000000       0x30 libcrypto_pic.a(conf_mod.pico)
 .comment       0x00000000       0x30 libcrypto_pic.a(x509_def.pico)
 .comment       0x00000000       0x30 libcrypto_pic.a(pcy_tree.pico)
 .comment       0x00000000       0x30 libcrypto_pic.a(pcy_node.pico)
 .comment       0x00000000       0x30 libcrypto_pic.a(pcy_lib.pico)
 .comment       0x00000000       0x30 libcrypto_pic.a(pcy_map.pico)
 .comment       0x00000000       0x30 libcrypto_pic.a(v3_pmaps.pico)
 .comment       0x00000000       0x30 libcrypto_pic.a(x_all.pico)
 .comment       0x00000000       0x30 libcrypto_pic.a(i2d_pr.pico)
 .comment       0x00000000       0x30 libcrypto_pic.a(d2i_pr.pico)
 .comment       0x00000000       0x30 libcrypto_pic.a(x_spki.pico)
 .comment       0x00000000       0x30 libcrypto_pic.a(x_req.pico)
 .comment       0x00000000       0x30 libcrypto_pic.a(a_digest.pico)
 .comment       0x00000000       0x30 libcrypto_pic.a(a_sign.pico)
 .comment       0x00000000       0x30 libcrypto_pic.a(evp_pkey.pico)
 .comment       0x00000000       0x30 libcrypto_pic.a(x509_lu.pico)
 .comment       0x00000000       0x30 libcrypto_pic.a(x509name.pico)
 .comment       0x00000000       0x30 libcrypto_pic.a(a_print.pico)
 .comment       0x00000000       0x30 libcrypto_pic.a(x509_vfy.pico)
 .comment       0x00000000       0x30 libcrypto_pic.a(x509_vpm.pico)
 .comment       0x00000000       0x30 libcrypto_pic.a(x509_trs.pico)
 .comment       0x00000000       0x30 libcrypto_pic.a(x509_cmp.pico)
 .comment       0x00000000       0x30 libcrypto_pic.a(ui_openssl.pico)
 .comment       0x00000000       0x30 libcrypto_pic.a(stack.pico)
 .comment       0x00000000       0x30 libcrypto_pic.a(rsa_crpt.pico)
 .comment       0x00000000       0x30 libcrypto_pic.a(rsa_pss.pico)
 .comment       0x00000000       0x30 libcrypto_pic.a(rsa_pmeth.pico)
 .comment       0x00000000       0x30 libcrypto_pic.a(rsa_saos.pico)
 .comment       0x00000000       0x30 libcrypto_pic.a(rsa_gen.pico)
 .comment       0x00000000       0x30 libcrypto_pic.a(rsa_ameth.pico)
 .comment       0x00000000       0x30 libcrypto_pic.a(rsa_asn1.pico)
 .comment       0x00000000       0x30 libcrypto_pic.a(f_int.pico)
 .comment       0x00000000       0x30 libcrypto_pic.a(rsa_oaep.pico)
 .comment       0x00000000       0x30 libcrypto_pic.a(rsa_ssl.pico)
 .comment       0x00000000       0x30 libcrypto_pic.a(rsa_pk1.pico)
 .comment       0x00000000       0x30 libcrypto_pic.a(rsa_sign.pico)
 .comment       0x00000000       0x30 libcrypto_pic.a(rsa_lib.pico)
 .comment       0x00000000       0x30 libcrypto_pic.a(rsa_eay.pico)
 .comment       0x00000000       0x30 libcrypto_pic.a(tb_rsa.pico)
 .comment       0x00000000       0x30 libcrypto_pic.a(bn_blind.pico)
 .comment       0x00000000       0x30 libcrypto_pic.a(rsa_x931.pico)
 .comment       0x00000000       0x30 libcrypto_pic.a(rsa_none.pico)
 .comment       0x00000000       0x30 libcrypto_pic.a(rand_unix.pico)
 .comment       0x00000000       0x30 libcrypto_pic.a(rand_egd.pico)
 .comment       0x00000000       0x30 libcrypto_pic.a(rand_lib.pico)
 .comment       0x00000000       0x30 libcrypto_pic.a(md_rand.pico)
 .comment       0x00000000       0x30 libcrypto_pic.a(tb_rand.pico)
 .comment       0x00000000       0x30 libcrypto_pic.a(pk7_attr.pico)
 .comment       0x00000000       0x30 libcrypto_pic.a(pk7_doit.pico)
 .comment       0x00000000       0x30 libcrypto_pic.a(pk7_lib.pico)
 .comment       0x00000000       0x30 libcrypto_pic.a(pk7_asn1.pico)
 .comment       0x00000000       0x30 libcrypto_pic.a(p12_p8e.pico)
 .comment       0x00000000       0x30 libcrypto_pic.a(p12_p8d.pico)
 .comment       0x00000000       0x30 libcrypto_pic.a(p12_utl.pico)
 .comment       0x00000000       0x30 libcrypto_pic.a(p12_add.pico)
 .comment       0x00000000       0x30 libcrypto_pic.a(p12_decr.pico)
 .comment       0x00000000       0x30 libcrypto_pic.a(p12_asn.pico)
 .comment       0x00000000       0x30 libcrypto_pic.a(x_sig.pico)
 .comment       0x00000000       0x30 libcrypto_pic.a(p12_key.pico)
 .comment       0x00000000       0x30 libcrypto_pic.a(p12_crpt.pico)
 .comment       0x00000000       0x30 libcrypto_pic.a(pem_oth.pico)
 .comment       0x00000000       0x30 libcrypto_pic.a(pem_lib.pico)
 .comment       0x00000000       0x30 libcrypto_pic.a(m_md5.pico)
 .comment       0x00000000       0x30 libcrypto_pic.a(evp_key.pico)
 .comment       0x00000000       0x30 libcrypto_pic.a(ui_lib.pico)
 .comment       0x00000000       0x30 libcrypto_pic.a(md5_dgst.pico)
 .comment       0x00000000       0x30 libcrypto_pic.a(obj_lib.pico)
 .comment       0x00000000       0x30 libcrypto_pic.a(obj_dat.pico)
 .comment       0x00000000       0x30 libcrypto_pic.a(lhash.pico)
 .comment       0x00000000       0x30 libcrypto_pic.a(hm_pmeth.pico)
 .comment       0x00000000       0x30 libcrypto_pic.a(hm_ameth.pico)
 .comment       0x00000000       0x30 libcrypto_pic.a(hmac.pico)
 .comment       0x00000000       0x30 libcrypto_pic.a(pmeth_gn.pico)
 .comment       0x00000000       0x30 libcrypto_pic.a(m_sigver.pico)
 .comment       0x00000000       0x30 libcrypto_pic.a(pmeth_fn.pico)
 .comment       0x00000000       0x30 libcrypto_pic.a(pmeth_lib.pico)
 .comment       0x00000000       0x30 libcrypto_pic.a(ec_pmeth.pico)
 .comment       0x00000000       0x30 libcrypto_pic.a(dsa_pmeth.pico)
 .comment       0x00000000       0x30 libcrypto_pic.a(dsa_key.pico)
 .comment       0x00000000       0x30 libcrypto_pic.a(dsa_gen.pico)
 .comment       0x00000000       0x30 libcrypto_pic.a(dh_pmeth.pico)
 .comment       0x00000000       0x30 libcrypto_pic.a(dh_gen.pico)
 .comment       0x00000000       0x30 libcrypto_pic.a(cm_pmeth.pico)
 .comment       0x00000000       0x30 libcrypto_pic.a(ecs_vrf.pico)
 .comment       0x00000000       0x30 libcrypto_pic.a(ech_key.pico)
 .comment       0x00000000       0x30 libcrypto_pic.a(ech_lib.pico)
 .comment       0x00000000       0x30 libcrypto_pic.a(tb_ecdh.pico)
 .comment       0x00000000       0x30 libcrypto_pic.a(ech_ossl.pico)
 .comment       0x00000000       0x30 libcrypto_pic.a(p5_crpt2.pico)
 .comment       0x00000000       0x30 libcrypto_pic.a(p5_crpt.pico)
 .comment       0x00000000       0x30 libcrypto_pic.a(p5_pbe.pico)
 .comment       0x00000000       0x30 libcrypto_pic.a(evp_pbe.pico)
 .comment       0x00000000       0x30 libcrypto_pic.a(bio_enc.pico)
 .comment       0x00000000       0x30 libcrypto_pic.a(bio_md.pico)
 .comment       0x00000000       0x30 libcrypto_pic.a(p_lib.pico)
 .comment       0x00000000       0x30 libcrypto_pic.a(p_verify.pico)
 .comment       0x00000000       0x30 libcrypto_pic.a(p_sign.pico)
 .comment       0x00000000       0x30 libcrypto_pic.a(evp_enc.pico)
 .comment       0x00000000       0x30 libcrypto_pic.a(tb_cipher.pico)
 .comment       0x00000000       0x30 libcrypto_pic.a(digest.pico)
 .comment       0x00000000       0x30 libcrypto_pic.a(tb_digest.pico)
 .comment       0x00000000       0x30 libcrypto_pic.a(err.pico)
 .comment       0x00000000       0x30 libcrypto_pic.a(tb_pkmeth.pico)
 .comment       0x00000000       0x30 libcrypto_pic.a(tb_ecdsa.pico)
 .comment       0x00000000       0x30 libcrypto_pic.a(tb_dh.pico)
 .comment       0x00000000       0x30 libcrypto_pic.a(tb_dsa.pico)
 .comment       0x00000000       0x30 libcrypto_pic.a(tb_asnmth.pico)
 .comment       0x00000000       0x30 libcrypto_pic.a(eng_table.pico)
 .comment       0x00000000       0x30 libcrypto_pic.a(eng_list.pico)
 .comment       0x00000000       0x30 libcrypto_pic.a(eng_ctrl.pico)
 .comment       0x00000000       0x30 libcrypto_pic.a(ecs_sign.pico)
 .comment       0x00000000       0x30 libcrypto_pic.a(ecs_ossl.pico)
 .comment       0x00000000       0x30 libcrypto_pic.a(ecs_asn1.pico)
 .comment       0x00000000       0x30 libcrypto_pic.a(ecp_oct.pico)
 .comment       0x00000000       0x30 libcrypto_pic.a(bn_sqrt.pico)
 .comment       0x00000000       0x30 libcrypto_pic.a(bn_kron.pico)
 .comment       0x00000000       0x30 libcrypto_pic.a(ec2_oct.pico)
 .comment       0x00000000       0x30 libcrypto_pic.a(ec_ameth.pico)
 .comment       0x00000000       0x30 libcrypto_pic.a(ecs_lib.pico)
 .comment       0x00000000       0x30 libcrypto_pic.a(eck_prn.pico)
 .comment       0x00000000       0x30 libcrypto_pic.a(ec_print.pico)
 .comment       0x00000000       0x30 libcrypto_pic.a(ec_asn1.pico)
 .comment       0x00000000       0x30 libcrypto_pic.a(bn_print.pico)
 .comment       0x00000000       0x30 libcrypto_pic.a(ec_oct.pico)
 .comment       0x00000000       0x30 libcrypto_pic.a(ec_mult.pico)
 .comment       0x00000000       0x30 libcrypto_pic.a(dso_openssl.pico)
 .comment       0x00000000       0x30 libcrypto_pic.a(dso_dlfcn.pico)
 .comment       0x00000000       0x30 libcrypto_pic.a(dso_lib.pico)
 .comment       0x00000000       0x30 libcrypto_pic.a(dsa_ameth.pico)
 .comment       0x00000000       0x30 libcrypto_pic.a(dsa_asn1.pico)
 .comment       0x00000000       0x30 libcrypto_pic.a(dsa_vrf.pico)
 .comment       0x00000000       0x30 libcrypto_pic.a(mem_dbg.pico)
 .comment       0x00000000       0x30 libcrypto_pic.a(conf_def.pico)
 .comment       0x00000000       0x30 libcrypto_pic.a(conf_lib.pico)
 .comment       0x00000000       0x30 libcrypto_pic.a(conf_api.pico)
 .comment       0x00000000       0x30 libcrypto_pic.a(cms_pwri.pico)
 .comment       0x00000000       0x30 libcrypto_pic.a(p5_pbev2.pico)
 .comment       0x00000000       0x30 libcrypto_pic.a(asn_pack.pico)
 .comment       0x00000000       0x30 libcrypto_pic.a(a_set.pico)
 .comment       0x00000000       0x30 libcrypto_pic.a(cms_enc.pico)
 .comment       0x00000000       0x30 libcrypto_pic.a(cms_env.pico)
 .comment       0x00000000       0x30 libcrypto_pic.a(aes_wrap.pico)
 .comment       0x00000000       0x30 libcrypto_pic.a(aes_misc.pico)
 .comment       0x00000000       0x30 libcrypto_pic.a(cms_dd.pico)
 .comment       0x00000000       0x30 libcrypto_pic.a(cms_sd.pico)
 .comment       0x00000000       0x30 libcrypto_pic.a(cms_att.pico)
 .comment       0x00000000       0x30 libcrypto_pic.a(x509_att.pico)
 .comment       0x00000000       0x30 libcrypto_pic.a(a_strnid.pico)
 .comment       0x00000000       0x30 libcrypto_pic.a(cms_io.pico)
 .comment       0x00000000       0x30 libcrypto_pic.a(asn_mime.pico)
 .comment       0x00000000       0x30 libcrypto_pic.a(a_i2d_fp.pico)
 .comment       0x00000000       0x30 libcrypto_pic.a(a_d2i_fp.pico)
 .comment       0x00000000       0x30 libcrypto_pic.a(bio_b64.pico)
 .comment       0x00000000       0x30 libcrypto_pic.a(encode.pico)
 .comment       0x00000000       0x30 libcrypto_pic.a(bf_buff.pico)
 .comment       0x00000000       0x30 libcrypto_pic.a(bio_ndef.pico)
 .comment       0x00000000       0x30 libcrypto_pic.a(bio_asn1.pico)
 .comment       0x00000000       0x30 libcrypto_pic.a(cms_asn1.pico)
 .comment       0x00000000       0x30 libcrypto_pic.a(cms_lib.pico)
 .comment       0x00000000       0x30 libcrypto_pic.a(bss_null.pico)
 .comment       0x00000000       0x30 libcrypto_pic.a(bss_mem.pico)
 .comment       0x00000000       0x30 libcrypto_pic.a(tasn_prn.pico)
 .comment       0x00000000       0x30 libcrypto_pic.a(x_crl.pico)
 .comment       0x00000000       0x30 libcrypto_pic.a(a_verify.pico)
 .comment       0x00000000       0x30 libcrypto_pic.a(a_enum.pico)
 .comment       0x00000000       0x30 libcrypto_pic.a(names.pico)
 .comment       0x00000000       0x30 libcrypto_pic.a(o_names.pico)
 .comment       0x00000000       0x30 libcrypto_pic.a(tasn_typ.pico)
 .comment       0x00000000       0x30 libcrypto_pic.a(t_x509.pico)
 .comment       0x00000000       0x30 libcrypto_pic.a(obj_xref.pico)
 .comment       0x00000000       0x30 libcrypto_pic.a(m_sha1.pico)
 .comment       0x00000000       0x30 libcrypto_pic.a(err_prn.pico)
 .comment       0x00000000       0x30 libcrypto_pic.a(ameth_lib.pico)
 .comment       0x00000000       0x30 libcrypto_pic.a(t_x509a.pico)
 .comment       0x00000000       0x30 libcrypto_pic.a(sha1dgst.pico)
 .comment       0x00000000       0x30 libcrypto_pic.a(dh_ameth.pico)
 .comment       0x00000000       0x30 libcrypto_pic.a(dh_asn1.pico)
 .comment       0x00000000       0x30 libcrypto_pic.a(cm_ameth.pico)
 .comment       0x00000000       0x30 libcrypto_pic.a(cmac.pico)
 .comment       0x00000000       0x30 libcrypto_pic.a(p8_pkey.pico)
 .comment       0x00000000       0x30 libcrypto_pic.a(t_pkey.pico)
 .comment       0x00000000       0x30 libcrypto_pic.a(x_long.pico)
 .comment       0x00000000       0x30 libcrypto_pic.a(x_bignum.pico)
 .comment       0x00000000       0x30 libcrypto_pic.a(x_attrib.pico)
 .comment       0x00000000       0x30 libcrypto_pic.a(x_x509a.pico)
 .comment       0x00000000       0x30 libcrypto_pic.a(x_x509.pico)
 .comment       0x00000000       0x30 libcrypto_pic.a(x_name.pico)
 .comment       0x00000000       0x30 libcrypto_pic.a(x_pubkey.pico)
 .comment       0x00000000       0x30 libcrypto_pic.a(x_val.pico)
 .comment       0x00000000       0x30 libcrypto_pic.a(x_algor.pico)
 .comment       0x00000000       0x30 libcrypto_pic.a(a_strex.pico)
 .comment       0x00000000       0x30 libcrypto_pic.a(a_mbstr.pico)
 .comment       0x00000000       0x30 libcrypto_pic.a(a_utf8.pico)
 .comment       0x00000000       0x30 libcrypto_pic.a(a_time.pico)
 .comment       0x00000000       0x30 libcrypto_pic.a(a_gentm.pico)
 .comment       0x00000000       0x30 libcrypto_pic.a(a_utctm.pico)
 .comment       0x00000000       0x30 libcrypto_pic.a(v3_asid.pico)
 .comment       0x00000000       0x30 libcrypto_pic.a(v3_akeya.pico)
 .comment       0x00000000       0x30 libcrypto_pic.a(v3_addr.pico)
 .comment       0x00000000       0x30 libcrypto_pic.a(pcy_cache.pico)
 .comment       0x00000000       0x30 libcrypto_pic.a(x509_ext.pico)
 .comment       0x00000000       0x30 libcrypto_pic.a(x509_v3.pico)
 .comment       0x00000000       0x30 libcrypto_pic.a(x509_obj.pico)
 .comment       0x00000000       0x30 libcrypto_pic.a(evp_lib.pico)
 .comment       0x00000000       0x30 libcrypto_pic.a(ec_key.pico)
 .comment       0x00000000       0x30 libcrypto_pic.a(dsa_lib.pico)
 .comment       0x00000000       0x30 libcrypto_pic.a(dh_lib.pico)
 .comment       0x00000000       0x30 libcrypto_pic.a(dh_key.pico)
 .comment       0x00000000       0x30 libcrypto_pic.a(o_time.pico)
 .comment       0x00000000       0x30 libcrypto_pic.a(bss_file.pico)
 .comment       0x00000000       0x30 libcrypto_pic.a(evp_asn1.pico)
 .comment       0x00000000       0x30 libcrypto_pic.a(a_bytes.pico)
 .comment       0x00000000       0x30 libcrypto_pic.a(asn1_par.pico)
 .comment       0x00000000       0x30 libcrypto_pic.a(x_exten.pico)
 .comment       0x00000000       0x30 libcrypto_pic.a(a_bool.pico)
 .comment       0x00000000       0x30 libcrypto_pic.a(a_dup.pico)
 .comment       0x00000000       0x30 libcrypto_pic.a(a_octet.pico)
 .comment       0x00000000       0x30 libcrypto_pic.a(v3_pcons.pico)
 .comment       0x00000000       0x30 libcrypto_pic.a(pcy_data.pico)
 .comment       0x00000000       0x30 libcrypto_pic.a(eng_init.pico)
 .comment       0x00000000       0x30 libcrypto_pic.a(eng_lib.pico)
 .comment       0x00000000       0x30 libcrypto_pic.a(ec_curve.pico)
 .comment       0x00000000       0x30 libcrypto_pic.a(ec_cvt.pico)
 .comment       0x00000000       0x30 libcrypto_pic.a(ecp_nist.pico)
 .comment       0x00000000       0x30 libcrypto_pic.a(ecp_mont.pico)
 .comment       0x00000000       0x30 libcrypto_pic.a(ecp_smpl.pico)
 .comment       0x00000000       0x30 libcrypto_pic.a(dsa_ossl.pico)
 .comment       0x00000000       0x30 libcrypto_pic.a(dsa_sign.pico)
 .comment       0x00000000       0x30 libcrypto_pic.a(dh_check.pico)
 .comment       0x00000000       0x30 libcrypto_pic.a(bn_nist.pico)
 .comment       0x00000000       0x30 libcrypto_pic.a(bn_exp2.pico)
 .comment       0x00000000       0x30 libcrypto_pic.a(bn_prime.pico)
 .comment       0x00000000       0x30 libcrypto_pic.a(bn_exp.pico)
 .comment       0x00000000       0x30 libcrypto_pic.a(b_dump.pico)
 .comment       0x00000000       0x30 libcrypto_pic.a(tasn_dec.pico)
 .comment       0x00000000       0x30 libcrypto_pic.a(tasn_enc.pico)
 .comment       0x00000000       0x30 libcrypto_pic.a(tasn_new.pico)
 .comment       0x00000000       0x30 libcrypto_pic.a(a_type.pico)
 .comment       0x00000000       0x30 libcrypto_pic.a(a_bitstr.pico)
 .comment       0x00000000       0x30 libcrypto_pic.a(ec2_smpl.pico)
 .comment       0x00000000       0x30 libcrypto_pic.a(buffer.pico)
 .comment       0x00000000       0x30 libcrypto_pic.a(bn_mont.pico)
 .comment       0x00000000       0x30 libcrypto_pic.a(bn_recp.pico)
 .comment       0x00000000       0x30 libcrypto_pic.a(bn_gcd.pico)
 .comment       0x00000000       0x30 libcrypto_pic.a(bn_mod.pico)
 .comment       0x00000000       0x30 libcrypto_pic.a(bn_div.pico)
 .comment       0x00000000       0x30 libcrypto_pic.a(tasn_fre.pico)
 .comment       0x00000000       0x30 libcrypto_pic.a(a_object.pico)
 .comment       0x00000000       0x30 libcrypto_pic.a(ec2_mult.pico)
 .comment       0x00000000       0x30 libcrypto_pic.a(ec_lib.pico)
 .comment       0x00000000       0x30 libcrypto_pic.a(bn_gf2m.pico)
 .comment       0x00000000       0x30 libcrypto_pic.a(bn_sqr.pico)
 .comment       0x00000000       0x30 libcrypto_pic.a(bn_mul.pico)
 .comment       0x00000000       0x30 libcrypto_pic.a(bn_word.pico)
 .comment       0x00000000       0x30 libcrypto_pic.a(bn_shift.pico)
 .comment       0x00000000       0x30 libcrypto_pic.a(bn_rand.pico)
 .comment       0x00000000       0x30 libcrypto_pic.a(bn_ctx.pico)
 .comment       0x00000000       0x30 libcrypto_pic.a(bn_add.pico)
 .comment       0x00000000       0x30 libcrypto_pic.a(tasn_utl.pico)
 .comment       0x00000000       0x30 libcrypto_pic.a(a_int.pico)
 .comment       0x00000000       0x30 libcrypto_pic.a(bn_lib.pico)
 .comment       0x00000000       0x30 libcrypto_pic.a(asn1_lib.pico)
 .comment       0x00000000       0x30 libcrypto_pic.a(b_print.pico)
 .comment       0x00000000       0x30 libcrypto_pic.a(bio_lib.pico)
 .comment       0x00000000       0x30 libcrypto_pic.a(ex_data.pico)
 .comment       0x00000000       0x30 libcrypto_pic.a(cryptlib.pico)
 .comment       0x00000000       0x30 libcrypto_pic.a(buf_str.pico)
 .comment       0x00000000       0x30 libcrypto_pic.a(mem.pico)
 .comment       0x00000000       0x30 libcrypto_pic.a(o_init.pico)

.ident          0x00000000       0xde
 .ident         0x00000000       0x36 /usr/lib/crti.o
 .ident         0x00000036       0x3a /usr/lib/crtbeginS.o
 .ident         0x00000070       0x38 /usr/lib/crtendS.o
 .ident         0x000000a8       0x36 /usr/lib/crtn.o

.debug
 *(.debug)

.line
 *(.line)

.debug_srcinfo
 *(.debug_srcinfo)

.debug_sfnames
 *(.debug_sfnames)

.debug_aranges
 *(.debug_aranges)

.debug_pubnames
 *(.debug_pubnames)

.debug_info
 *(.debug_info .gnu.linkonce.wi.*)

.debug_abbrev
 *(.debug_abbrev)

.debug_line
 *(.debug_line)

.debug_frame
 *(.debug_frame)

.debug_str
 *(.debug_str)

.debug_loc
 *(.debug_loc)

.debug_macinfo
 *(.debug_macinfo)

.debug_weaknames
 *(.debug_weaknames)

.debug_funcnames
 *(.debug_funcnames)

.debug_typenames
 *(.debug_typenames)

.debug_varnames
 *(.debug_varnames)

.debug_pubtypes
 *(.debug_pubtypes)

.debug_ranges
 *(.debug_ranges)

.debug_macro
 *(.debug_macro)

.gnu.attributes
 *(.gnu.attributes)

/DISCARD/
 *(.note.GNU-stack)
 *(.gnu_debuglink)
 *(.gnu.lto_*)
OUTPUT(libcrypto.so.8.4 elf32-i386-minix)
