Archive member included because of file (symbol)

libisccfg_pic.a(dnsconf.pico)
                              (--whole-archive)
libisccfg_pic.a(version.pico)
                              (--whole-archive)
libisccfg_pic.a(aclconf.pico)
                              (--whole-archive)
libisccfg_pic.a(namedconf.pico)
                              (--whole-archive)
libisccfg_pic.a(parser.pico)  (--whole-archive)
libisccfg_pic.a(log.pico)     (--whole-archive)

Discarded input sections

 .note.GNU-stack
                0x00000000        0x0 libisccfg_pic.a(dnsconf.pico)
 .note.GNU-stack
                0x00000000        0x0 libisccfg_pic.a(version.pico)
 .note.GNU-stack
                0x00000000        0x0 libisccfg_pic.a(aclconf.pico)
 .note.GNU-stack
                0x00000000        0x0 libisccfg_pic.a(namedconf.pico)
 .note.GNU-stack
                0x00000000        0x0 libisccfg_pic.a(parser.pico)
 .note.GNU-stack
                0x00000000        0x0 libisccfg_pic.a(log.pico)

Memory Configuration

Name             Origin             Length             Attributes
*default*        0x00000000         0xffffffff

Linker script and memory map

LOAD /usr/lib/crti.o
LOAD /usr/lib/crtbeginS.o
LOAD libisccfg_pic.a
LOAD /usr/src/crypto/external/bsd/openssl/lib/libcrypto/libcrypto.so
LOAD /usr/src/external/bsd/bind/lib/libisc/libisc.so
LOAD /usr/src/external/bsd/bind/lib/libdns/libdns.so
LOAD /usr/lib/libc.so
LOAD /usr/lib/crtendS.o
LOAD /usr/lib/crtn.o
                0x000000f4                . = (0x0 + SIZEOF_HEADERS)

.note.gnu.build-id
 *(.note.gnu.build-id)

.hash           0x000000f4      0x6a0
 *(.hash)
 .hash          0x000000f4      0x6a0 /usr/lib/crti.o

.gnu.hash
 *(.gnu.hash)

.dynsym         0x00000794      0xe10
 *(.dynsym)
 .dynsym        0x00000794      0xe10 /usr/lib/crti.o

.dynstr         0x000015a4      0xeb4
 *(.dynstr)
 .dynstr        0x000015a4      0xeb4 /usr/lib/crti.o

.gnu.version    0x00002458        0x0
 *(.gnu.version)
 .gnu.version   0x00000000        0x0 /usr/lib/crti.o

.gnu.version_d  0x00002458        0x0
 *(.gnu.version_d)
 .gnu.version_d
                0x00000000        0x0 /usr/lib/crti.o

.gnu.version_r  0x00002458        0x0
 *(.gnu.version_r)
 .gnu.version_r
                0x00000000        0x0 /usr/lib/crti.o

.rel.dyn        0x00002458     0x3de8
 *(.rel.init)
 *(.rel.text .rel.text.* .rel.gnu.linkonce.t.*)
 *(.rel.fini)
 *(.rel.rodata .rel.rodata.* .rel.gnu.linkonce.r.*)
 *(.rel.data.rel.ro .rel.data.rel.ro.* .rel.gnu.linkonce.d.rel.ro.*)
 .rel.data.rel.ro.local
                0x00002458       0x30 /usr/lib/crti.o
 *(.rel.data .rel.data.* .rel.gnu.linkonce.d.*)
 .rel.data.rel  0x00002488     0x3408 /usr/lib/crti.o
 .rel.data.rel.local
                0x00005890      0x850 /usr/lib/crti.o
 *(.rel.tdata .rel.tdata.* .rel.gnu.linkonce.td.*)
 *(.rel.tbss .rel.tbss.* .rel.gnu.linkonce.tb.*)
 *(.rel.ctors)
 *(.rel.dtors)
 *(.rel.got)
 .rel.got       0x000060e0      0x160 /usr/lib/crti.o
 *(.rel.bss .rel.bss.* .rel.gnu.linkonce.b.*)
 *(.rel.ifunc)
 .rel.ifunc     0x00000000        0x0 /usr/lib/crti.o

.rel.plt        0x00006240      0x3b0
 *(.rel.plt)
 .rel.plt       0x00006240      0x3b0 /usr/lib/crti.o
 *(.rel.iplt)

.init           0x000065f0        0xa
 *(SORT(.init))
 .init          0x000065f0        0x3 /usr/lib/crti.o
                0x000065f0                _init
 .init          0x000065f3        0x5 /usr/lib/crtbeginS.o
 .init          0x000065f8        0x2 /usr/lib/crtn.o

.plt            0x00006600      0x770
 *(.plt)
 .plt           0x00006600      0x770 /usr/lib/crti.o
 *(.iplt)

.text           0x00006d70     0x9d70
                0x00006d70                PROVIDE (__eprol, .)
 *(.text)
 .text          0x00006d70        0x0 /usr/lib/crti.o
 .text          0x00006d70       0xef /usr/lib/crtbeginS.o
 *fill*         0x00006e5f        0x1 
 .text          0x00006e60        0x0 libisccfg_pic.a(dnsconf.pico)
 .text          0x00006e60        0x0 libisccfg_pic.a(version.pico)
 .text          0x00006e60     0x14fa libisccfg_pic.a(aclconf.pico)
                0x00006e60                cfg_aclconfctx_create
                0x00006f90                cfg_aclconfctx_attach
                0x00007050                cfg_aclconfctx_detach
                0x000071f0                cfg_acl_fromconfig
                0x00007250                cfg_acl_fromconfig2
 *fill*         0x0000835a        0x6 
 .text          0x00008360     0x2963 libisccfg_pic.a(namedconf.pico)
 *fill*         0x0000acc3        0xd 
 .text          0x0000acd0     0x5d91 libisccfg_pic.a(parser.pico)
                0x0000aed0                cfg_print_obj
                0x0000aee0                cfg_print_chars
                0x0000af20                cfg_parse_obj
                0x0000afc0                cfg_print
                0x0000b010                cfg_printx
                0x0000b060                cfg_create_tuple
                0x0000b170                cfg_create_obj
                0x0000b280                cfg_parse_tuple
                0x0000b3a0                cfg_obj_destroy
                0x0000b4e0                cfg_print_tuple
                0x0000b590                cfg_print_void
                0x0000b5a0                cfg_doc_tuple
                0x0000b630                cfg_doc_obj
                0x0000b640                cfg_obj_istuple
                0x0000b6a0                cfg_tuple_get
                0x0000b760                cfg_parse_special
                0x0000b7d0                cfg_gettoken
                0x0000ba70                cfg_parser_error
                0x0000bac0                cfg_parser_create
                0x0000bdb0                cfg_create_list
                0x0000be00                cfg_parser_setcallback
                0x0000be20                cfg_parse_file
                0x0000c0c0                cfg_parse_buffer
                0x0000c130                cfg_parser_attach
                0x0000c1f0                cfg_parser_destroy
                0x0000c2b0                cfg_parse_void
                0x0000c2f0                cfg_doc_void
                0x0000c300                cfg_obj_isvoid
                0x0000c360                cfg_parse_uint32
                0x0000c3f0                cfg_print_cstr
                0x0000c430                cfg_print_rawuint
                0x0000c490                cfg_print_uint32
                0x0000c4f0                cfg_obj_isuint32
                0x0000c550                cfg_obj_asuint32
                0x0000c5b0                cfg_doc_terminal
                0x0000c630                cfg_obj_isuint64
                0x0000c690                cfg_obj_asuint64
                0x0000c6f0                cfg_print_uint64
                0x0000c760                cfg_parse_qstring
                0x0000c8d0                cfg_parse_astring
                0x0000c950                cfg_parse_sstring
                0x0000c9d0                cfg_is_enum
                0x0000ca30                cfg_parse_enum
                0x0000cbc0                cfg_doc_enum
                0x0000cc80                cfg_print_ustring
                0x0000ccc0                cfg_obj_isstring
                0x0000cd20                cfg_obj_asstring
                0x0000cea0                cfg_obj_isboolean
                0x0000cf00                cfg_obj_asboolean
                0x0000cf60                cfg_parse_boolean
                0x0000d0a0                cfg_print_boolean
                0x0000d100                cfg_parse_listelt
                0x0000d220                cfg_parse_bracketed_list
                0x0000d4b0                cfg_print_bracketed_list
                0x0000d660                cfg_doc_bracketed_list
                0x0000d6d0                cfg_parse_spacelist
                0x0000d820                cfg_peektoken
                0x0000d880                cfg_print_spacelist
                0x0000d8f0                cfg_obj_islist
                0x0000d950                cfg_list_first
                0x0000d9b0                cfg_list_next
                0x0000da00                cfg_list_length
                0x0000dab0                cfg_listelt_value
                0x0000db00                cfg_parse_mapbody
                0x0000e370                cfg_ungettoken
                0x0000e3b0                cfg_parser_warning
                0x0000e400                cfg_parse_map
                0x0000e4d0                cfg_parse_named_map
                0x0000e5a0                cfg_parse_addressed_map
                0x0000e670                cfg_parse_netprefix_map
                0x0000e740                cfg_print_mapbody
                0x0000e980                cfg_doc_mapbody
                0x0000ea80                cfg_print_map
                0x0000eb60                cfg_doc_map
                0x0000ee20                cfg_obj_ismap
                0x0000ee80                cfg_map_get
                0x0000ef70                cfg_map_getname
                0x0000efd0                cfg_map_count
                0x0000f350                cfg_parse_rawaddr
                0x0000f6d0                cfg_lookingat_netaddr
                0x0000f710                cfg_parse_rawport
                0x0000f7c0                cfg_print_rawaddr
                0x0000f850                cfg_parse_dscp
                0x0000f9b0                cfg_print_sockaddr
                0x0000fc40                cfg_parse_netprefix
                0x0000fe70                cfg_obj_isnetprefix
                0x0000fed0                cfg_obj_asnetprefix
                0x00010090                cfg_parse_sockaddr
                0x00010360                cfg_doc_sockaddr
                0x000104d0                cfg_obj_issockaddr
                0x00010530                cfg_obj_assockaddr
                0x00010590                cfg_obj_getdscp
                0x00010820                cfg_obj_log
                0x000108e0                cfg_obj_file
                0x000108f0                cfg_obj_line
                0x00010900                cfg_obj_istype
                0x00010920                cfg_obj_attach
                0x000109e0                cfg_print_grammar
 *fill*         0x00010a61        0xf 
 .text          0x00010a70       0x6e libisccfg_pic.a(log.pico)
                0x00010a70                cfg_log_init
 *fill*         0x00010ade        0x2 
 .text          0x00010ae0        0x0 /usr/lib/crtendS.o
 .text          0x00010ae0        0x0 /usr/lib/crtn.o
 *(.text.unlikely .text.*_unlikely)
 *(.text.exit .text.exit.*)
 *(.text.startup .text.startup.*)
 *(.text.hot .text.hot.*)
 *(.stub .text.* .gnu.linkonce.t.*)
 *(.gnu.warning)

.fini           0x00010ae0        0xa
 *(SORT(.fini))
 .fini          0x00010ae0        0x3 /usr/lib/crti.o
                0x00010ae0                _fini
 .fini          0x00010ae3        0x5 /usr/lib/crtbeginS.o
 .fini          0x00010ae8        0x2 /usr/lib/crtn.o
                0x00010aea                PROVIDE (__etext, .)
                0x00010aea                PROVIDE (_etext, .)
                0x00010aea                PROVIDE (etext, .)

.rodata         0x00010aec     0x26d0
 *(.rodata .rodata.* .gnu.linkonce.r.*)
 .rodata.str1.1
                0x00010aec       0x2f libisccfg_pic.a(dnsconf.pico)
                                 0x42 (size before relaxing)
 *fill*         0x00010b1b        0x1 
 .rodata        0x00010b1c       0x18 libisccfg_pic.a(version.pico)
                0x00010b1c                cfg_version
                0x00010b28                cfg_libinterface
                0x00010b2c                cfg_librevision
                0x00010b30                cfg_libage
 .rodata.str1.1
                0x00010b34      0x459 libisccfg_pic.a(aclconf.pico)
                                0x463 (size before relaxing)
 .rodata.str1.1
                0x00010f8d     0x195c libisccfg_pic.a(namedconf.pico)
                               0x1c15 (size before relaxing)
 .rodata.str1.1
                0x000128e9      0x879 libisccfg_pic.a(parser.pico)
                                0xa3e (size before relaxing)
 .rodata.str1.1
                0x00013162       0x5a libisccfg_pic.a(log.pico)

.rodata1
 *(.rodata1)

.eh_frame_hdr   0x000131bc      0x5e4
 *(.eh_frame_hdr)
 .eh_frame_hdr  0x000131bc      0x5e4 libisccfg_pic.a(aclconf.pico)

.eh_frame       0x000137a0     0x16c0
 *(.eh_frame)
 .eh_frame      0x000137a0       0x3c /usr/lib/crti.o
                                 0x40 (size before relaxing)
 .eh_frame      0x000137dc        0x0 /usr/lib/crtbeginS.o
 .eh_frame      0x000137dc       0xf4 libisccfg_pic.a(aclconf.pico)
 .eh_frame      0x000138d0      0x744 libisccfg_pic.a(namedconf.pico)
                                0x75c (size before relaxing)
 .eh_frame      0x00014014      0xe28 libisccfg_pic.a(parser.pico)
                                0xe40 (size before relaxing)
 .eh_frame      0x00014e3c       0x20 libisccfg_pic.a(log.pico)
                                 0x38 (size before relaxing)
 .eh_frame      0x00014e5c        0x4 /usr/lib/crtendS.o

.note.netbsd.ident
                0x00014e60       0x18
 .note.netbsd.ident
                0x00014e60       0x18 /usr/lib/crti.o

.note.netbsd.pax
                0x00014e78       0x14
 .note.netbsd.pax
                0x00014e78       0x14 /usr/lib/crti.o

.gcc_except_table
 *(.gcc_except_table .gcc_except_table.*)

.exception_ranges
 *(.exception_ranges .exception_ranges*)
                0x00014e8c                . = (ALIGN (0x1000) - ((0x1000 - .) & 0xfff))
                0x00015000                . = DATA_SEGMENT_ALIGN (0x1000, 0x1000)

.eh_frame
 *(.eh_frame)

.gcc_except_table
 *(.gcc_except_table .gcc_except_table.*)

.exception_ranges
 *(.exception_ranges .exception_ranges*)

.tdata
 *(.tdata .tdata.* .gnu.linkonce.td.*)

.tbss
 *(.tbss .tbss.* .gnu.linkonce.tb.*)
 *(.tcommon)

.preinit_array
 *(.preinit_array)

.init_array
 *(SORT(.init_array.*))
 *(.init_array)

.fini_array
 *(SORT(.fini_array.*))
 *(.fini_array)

.ctors          0x00015000        0x8
 *crtbegin.o(.ctors)
 *crtbegin?.o(.ctors)
 .ctors         0x00015000        0x4 /usr/lib/crtbeginS.o
 *(EXCLUDE_FILE(*crtend?.o *crtend.o) .ctors)
 *(SORT(.ctors.*))
 *(.ctors)
 .ctors         0x00015004        0x4 /usr/lib/crtendS.o
                0x00015004                __CTOR_LIST_END__

.dtors          0x00015008        0x8
 *crtbegin.o(.dtors)
 *crtbegin?.o(.dtors)
 .dtors         0x00015008        0x4 /usr/lib/crtbeginS.o
 *(EXCLUDE_FILE(*crtend?.o *crtend.o) .dtors)
 *(SORT(.dtors.*))
 *(.dtors)
 .dtors         0x0001500c        0x4 /usr/lib/crtendS.o

.jcr            0x00015010        0x4
 *(.jcr)
 .jcr           0x00015010        0x0 /usr/lib/crtbeginS.o
 .jcr           0x00015010        0x4 /usr/lib/crtendS.o

.data.rel.ro    0x00015014       0x38
 *(.data.rel.ro.local* .gnu.linkonce.d.rel.ro.local.*)
 .data.rel.ro.local
                0x00015014       0x38 libisccfg_pic.a(parser.pico)
 *(.data.rel.ro .data.rel.ro.* .gnu.linkonce.d.rel.ro.*)

.dynamic        0x0001504c       0xc8
 *(.dynamic)
 .dynamic       0x0001504c       0xc8 /usr/lib/crti.o
                0x0001504c                _DYNAMIC

.got            0x00015114       0xb0
 *(.got)
 .got           0x00015114       0xb0 /usr/lib/crti.o
 *(.igot)
                0x000151c4                . = DATA_SEGMENT_RELRO_END (., (SIZEOF (.got.plt) >= 0xc)?0xc:0x0)

.got.plt        0x000151c4      0x1e4
 *(.got.plt)
 .got.plt       0x000151c4      0x1e4 /usr/lib/crti.o
                0x000151c4                _GLOBAL_OFFSET_TABLE_
 *(.igot.plt)

.data           0x000153a8     0x2a00
 *(.data .data.* .gnu.linkonce.d.*)
 .data          0x000153a8        0x0 /usr/lib/crti.o
 .data          0x000153a8        0x0 /usr/lib/crtbeginS.o
 .data.rel      0x000153a8       0x26 /usr/lib/crtbeginS.o
                0x000153a8                __dso_handle
 *fill*         0x000153ce        0x2 
 .data          0x000153d0        0x0 libisccfg_pic.a(dnsconf.pico)
 .data.rel.local
                0x000153d0       0x20 libisccfg_pic.a(dnsconf.pico)
 .data.rel      0x000153f0       0x90 libisccfg_pic.a(dnsconf.pico)
                0x000153f0                cfg_type_dnsconf
 .data          0x00015480        0x0 libisccfg_pic.a(version.pico)
 .data          0x00015480        0x0 libisccfg_pic.a(aclconf.pico)
 .data          0x00015480        0xc libisccfg_pic.a(namedconf.pico)
 .data.rel.local
                0x0001548c      0x698 libisccfg_pic.a(namedconf.pico)
 .data.rel      0x00015b24     0x2010 libisccfg_pic.a(namedconf.pico)
                0x00015b24                cfg_type_namedconf
                0x00015b3c                cfg_type_bindkeys
                0x00015b54                cfg_type_newzones
                0x00015b6c                cfg_type_addzoneconf
                0x00015b8c                cfg_type_keyref
                0x00015ba4                cfg_type_rndcconf
                0x00015bbc                cfg_type_rndckey
                0x00015bd4                cfg_type_sessionkey
 .data          0x00017b34       0x21 libisccfg_pic.a(parser.pico)
 *fill*         0x00017b55        0x3 
 .data.rel.local
                0x00017b58       0x50 libisccfg_pic.a(parser.pico)
                0x00017b58                cfg_rep_uint32
                0x00017b60                cfg_rep_uint64
                0x00017b68                cfg_rep_string
                0x00017b70                cfg_rep_boolean
                0x00017b78                cfg_rep_map
                0x00017b80                cfg_rep_list
                0x00017b88                cfg_rep_tuple
                0x00017b90                cfg_rep_sockaddr
                0x00017b98                cfg_rep_netprefix
                0x00017ba0                cfg_rep_void
 .data.rel      0x00017ba8      0x1e0 libisccfg_pic.a(parser.pico)
                0x00017bc0                cfg_type_void
                0x00017bd8                cfg_type_uint32
                0x00017bf0                cfg_type_uint64
                0x00017c08                cfg_type_qstring
                0x00017c20                cfg_type_sstring
                0x00017c38                cfg_type_ustring
                0x00017c50                cfg_type_astring
                0x00017c68                cfg_type_boolean
                0x00017c80                cfg_type_unsupported
                0x00017cb0                cfg_type_netaddr
                0x00017cc8                cfg_type_netprefix
                0x00017ce0                cfg_type_token
                0x00017cf8                cfg_type_netaddr4
                0x00017d10                cfg_type_netaddr4wild
                0x00017d28                cfg_type_netaddr6
                0x00017d40                cfg_type_netaddr6wild
                0x00017d58                cfg_type_sockaddr
                0x00017d70                cfg_type_sockaddrdscp
 .data          0x00017d88        0x0 libisccfg_pic.a(log.pico)
 .data.rel.local
                0x00017d88       0x20 libisccfg_pic.a(log.pico)
                0x00017d88                cfg_categories
                0x00017d98                cfg_modules
 .data          0x00017da8        0x0 /usr/lib/crtendS.o
 .data          0x00017da8        0x0 /usr/lib/crtn.o

.data1
 *(.data1)
                0x00017da8                _edata = .
                0x00017da8                PROVIDE (edata, .)
                0x00017da8                . = .
                0x00017da8                __bss_start = .

.bss            0x00017da8      0xc64
 *(.dynbss)
 .dynbss        0x00000000        0x0 /usr/lib/crti.o
 *(.bss .bss.* .gnu.linkonce.b.*)
 .bss           0x00017da8        0x0 /usr/lib/crti.o
 .bss           0x00017da8        0x0 /usr/lib/crtbeginS.o
 .bss           0x00017da8        0x0 libisccfg_pic.a(dnsconf.pico)
 .bss           0x00017da8        0x0 libisccfg_pic.a(version.pico)
 .bss           0x00017da8        0x0 libisccfg_pic.a(aclconf.pico)
 .bss           0x00017da8        0x0 libisccfg_pic.a(namedconf.pico)
 .bss           0x00017da8      0xc64 libisccfg_pic.a(parser.pico)
 .bss           0x00018a0c        0x0 libisccfg_pic.a(log.pico)
 .bss           0x00018a0c        0x0 /usr/lib/crtendS.o
 .bss           0x00018a0c        0x0 /usr/lib/crtn.o
 *(COMMON)
                0x00018a0c                . = ALIGN ((. != 0x0)?0x4:0x1)
                0x00018a0c                . = ALIGN (0x4)
                0x00018a0c                . = ALIGN (0x4)
                0x00018a0c                _end = .
                0x00018a0c                PROVIDE (end, .)
                0x00018a0c                . = DATA_SEGMENT_END (.)

.stab
 *(.stab)

.stabstr
 *(.stabstr)

.stab.excl
 *(.stab.excl)

.stab.exclstr
 *(.stab.exclstr)

.stab.index
 *(.stab.index)

.stab.indexstr
 *(.stab.indexstr)

.comment        0x00000000       0x2f
 *(.comment)
 .comment       0x00000000       0x2f libisccfg_pic.a(dnsconf.pico)
                                 0x30 (size before relaxing)
 .comment       0x00000000       0x30 libisccfg_pic.a(version.pico)
 .comment       0x00000000       0x30 libisccfg_pic.a(aclconf.pico)
 .comment       0x00000000       0x30 libisccfg_pic.a(namedconf.pico)
 .comment       0x00000000       0x30 libisccfg_pic.a(parser.pico)
 .comment       0x00000000       0x30 libisccfg_pic.a(log.pico)

.ident          0x00000000       0xde
 .ident         0x00000000       0x36 /usr/lib/crti.o
 .ident         0x00000036       0x3a /usr/lib/crtbeginS.o
 .ident         0x00000070       0x38 /usr/lib/crtendS.o
 .ident         0x000000a8       0x36 /usr/lib/crtn.o

.debug
 *(.debug)

.line
 *(.line)

.debug_srcinfo
 *(.debug_srcinfo)

.debug_sfnames
 *(.debug_sfnames)

.debug_aranges
 *(.debug_aranges)

.debug_pubnames
 *(.debug_pubnames)

.debug_info
 *(.debug_info .gnu.linkonce.wi.*)

.debug_abbrev
 *(.debug_abbrev)

.debug_line
 *(.debug_line)

.debug_frame
 *(.debug_frame)

.debug_str
 *(.debug_str)

.debug_loc
 *(.debug_loc)

.debug_macinfo
 *(.debug_macinfo)

.debug_weaknames
 *(.debug_weaknames)

.debug_funcnames
 *(.debug_funcnames)

.debug_typenames
 *(.debug_typenames)

.debug_varnames
 *(.debug_varnames)

.debug_pubtypes
 *(.debug_pubtypes)

.debug_ranges
 *(.debug_ranges)

.debug_macro
 *(.debug_macro)

.gnu.attributes
 *(.gnu.attributes)

/DISCARD/
 *(.note.GNU-stack)
 *(.gnu_debuglink)
 *(.gnu.lto_*)
OUTPUT(libisccfg.so.8.2 elf32-i386-minix)
